Archive member included because of file (symbol)

C:\Users\gmtii\workspace\disco-noFB-noUGUI\libs\libarm_cortexM4lf_math_r4p5.a(arm_const_structs.o)
                              ./src/ui/ui.o (arm_cfft_sR_f32_len1024)
C:\Users\gmtii\workspace\disco-noFB-noUGUI\libs\libarm_cortexM4lf_math_r4p5.a(arm_common_tables.o)
                              C:\Users\gmtii\workspace\disco-noFB-noUGUI\libs\libarm_cortexM4lf_math_r4p5.a(arm_const_structs.o) (armBitRevIndexTable_fixed_4096)
C:\Users\gmtii\workspace\disco-noFB-noUGUI\libs\libarm_cortexM4lf_math_r4p5.a(arm_fill_f32.o)
                              ./src/codec/audio.o (arm_fill_f32)
C:\Users\gmtii\workspace\disco-noFB-noUGUI\libs\libarm_cortexM4lf_math_r4p5.a(arm_copy_q15.o)
                              ./src/ui/ui.o (arm_copy_q15)
C:\Users\gmtii\workspace\disco-noFB-noUGUI\libs\libarm_cortexM4lf_math_r4p5.a(arm_copy_f32.o)
                              ./src/ui/ui.o (arm_copy_f32)
C:\Users\gmtii\workspace\disco-noFB-noUGUI\libs\libarm_cortexM4lf_math_r4p5.a(arm_min_q15.o)
                              ./src/ui/ui.o (arm_min_q15)
C:\Users\gmtii\workspace\disco-noFB-noUGUI\libs\libarm_cortexM4lf_math_r4p5.a(arm_min_f32.o)
                              ./src/ui/ui.o (arm_min_f32)
C:\Users\gmtii\workspace\disco-noFB-noUGUI\libs\libarm_cortexM4lf_math_r4p5.a(arm_mean_q15.o)
                              ./src/ui/ui.o (arm_mean_q15)
C:\Users\gmtii\workspace\disco-noFB-noUGUI\libs\libarm_cortexM4lf_math_r4p5.a(arm_mean_f32.o)
                              ./src/ui/ui.o (arm_mean_f32)
C:\Users\gmtii\workspace\disco-noFB-noUGUI\libs\libarm_cortexM4lf_math_r4p5.a(arm_max_q15.o)
                              ./src/ui/ui.o (arm_max_q15)
C:\Users\gmtii\workspace\disco-noFB-noUGUI\libs\libarm_cortexM4lf_math_r4p5.a(arm_max_f32.o)
                              ./src/ui/ui.o (arm_max_f32)
C:\Users\gmtii\workspace\disco-noFB-noUGUI\libs\libarm_cortexM4lf_math_r4p5.a(arm_cfft_f32.o)
                              ./src/ui/ui.o (arm_cfft_f32)
C:\Users\gmtii\workspace\disco-noFB-noUGUI\libs\libarm_cortexM4lf_math_r4p5.a(arm_lms_norm_init_f32.o)
                              ./src/codec/audio.o (arm_lms_norm_init_f32)
C:\Users\gmtii\workspace\disco-noFB-noUGUI\libs\libarm_cortexM4lf_math_r4p5.a(arm_lms_norm_f32.o)
                              ./src/codec/audio.o (arm_lms_norm_f32)
C:\Users\gmtii\workspace\disco-noFB-noUGUI\libs\libarm_cortexM4lf_math_r4p5.a(arm_iir_lattice_f32.o)
                              ./src/codec/audio.o (arm_iir_lattice_f32)
C:\Users\gmtii\workspace\disco-noFB-noUGUI\libs\libarm_cortexM4lf_math_r4p5.a(arm_fir_interpolate_f32.o)
                              ./src/codec/audio.o (arm_fir_interpolate_f32)
C:\Users\gmtii\workspace\disco-noFB-noUGUI\libs\libarm_cortexM4lf_math_r4p5.a(arm_fir_init_f32.o)
                              ./src/ui/ui.o (arm_fir_init_f32)
C:\Users\gmtii\workspace\disco-noFB-noUGUI\libs\libarm_cortexM4lf_math_r4p5.a(arm_fir_f32.o)
                              ./src/codec/audio.o (arm_fir_f32)
C:\Users\gmtii\workspace\disco-noFB-noUGUI\libs\libarm_cortexM4lf_math_r4p5.a(arm_fir_decimate_f32.o)
                              ./src/codec/audio.o (arm_fir_decimate_f32)
C:\Users\gmtii\workspace\disco-noFB-noUGUI\libs\libarm_cortexM4lf_math_r4p5.a(arm_cmplx_mag_f32.o)
                              ./src/ui/ui.o (arm_cmplx_mag_f32)
C:\Users\gmtii\workspace\disco-noFB-noUGUI\libs\libarm_cortexM4lf_math_r4p5.a(arm_sin_f32.o)
                              ./src/ui/ui.o (arm_sin_f32)
C:\Users\gmtii\workspace\disco-noFB-noUGUI\libs\libarm_cortexM4lf_math_r4p5.a(arm_cos_f32.o)
                              ./src/ui/ui.o (arm_cos_f32)
C:\Users\gmtii\workspace\disco-noFB-noUGUI\libs\libarm_cortexM4lf_math_r4p5.a(arm_sub_f32.o)
                              ./src/ui/ui.o (arm_sub_f32)
C:\Users\gmtii\workspace\disco-noFB-noUGUI\libs\libarm_cortexM4lf_math_r4p5.a(arm_scale_f32.o)
                              ./src/ui/ui.o (arm_scale_f32)
C:\Users\gmtii\workspace\disco-noFB-noUGUI\libs\libarm_cortexM4lf_math_r4p5.a(arm_mult_f32.o)
                              ./src/codec/audio.o (arm_mult_f32)
C:\Users\gmtii\workspace\disco-noFB-noUGUI\libs\libarm_cortexM4lf_math_r4p5.a(arm_add_f32.o)
                              ./src/ui/ui.o (arm_add_f32)
C:\Users\gmtii\workspace\disco-noFB-noUGUI\libs\libarm_cortexM4lf_math_r4p5.a(arm_bitreversal2.o)
                              C:\Users\gmtii\workspace\disco-noFB-noUGUI\libs\libarm_cortexM4lf_math_r4p5.a(arm_cfft_f32.o) (arm_bitreversal_32)
C:\Users\gmtii\workspace\disco-noFB-noUGUI\libs\libarm_cortexM4lf_math_r4p5.a(arm_cfft_radix8_f32.o)
                              C:\Users\gmtii\workspace\disco-noFB-noUGUI\libs\libarm_cortexM4lf_math_r4p5.a(arm_cfft_f32.o) (arm_radix8_butterfly_f32)
C:\Users\gmtii\workspace\disco-noFB-noUGUI\libs\libm.a(lib_a-s_cos.o)
                              ./src/ra8875/ui_ra8875.o (cos)
C:\Users\gmtii\workspace\disco-noFB-noUGUI\libs\libm.a(lib_a-s_pow10.o)
                              ./src/ui/ui.o (pow10)
C:\Users\gmtii\workspace\disco-noFB-noUGUI\libs\libm.a(lib_a-s_round.o)
                              ./src/ra8875/ui_ra8875.o (round)
C:\Users\gmtii\workspace\disco-noFB-noUGUI\libs\libm.a(lib_a-s_sin.o)
                              ./src/ra8875/ui_ra8875.o (sin)
C:\Users\gmtii\workspace\disco-noFB-noUGUI\libs\libm.a(lib_a-sf_ceil.o)
                              ./src/si570/ui_si570.o (ceilf)
C:\Users\gmtii\workspace\disco-noFB-noUGUI\libs\libm.a(lib_a-sf_floor.o)
                              ./src/si570/ui_si570.o (floorf)
C:\Users\gmtii\workspace\disco-noFB-noUGUI\libs\libm.a(lib_a-sf_round.o)
                              ./src/si570/ui_si570.o (roundf)
C:\Users\gmtii\workspace\disco-noFB-noUGUI\libs\libm.a(lib_a-w_log10.o)
                              ./src/ui/ui.o (log10)
C:\Users\gmtii\workspace\disco-noFB-noUGUI\libs\libm.a(lib_a-w_pow.o)
                              C:\Users\gmtii\workspace\disco-noFB-noUGUI\libs\libm.a(lib_a-s_pow10.o) (pow)
C:\Users\gmtii\workspace\disco-noFB-noUGUI\libs\libm.a(lib_a-w_sqrt.o)
                              ./src/ui/ui.o (sqrt)
C:\Users\gmtii\workspace\disco-noFB-noUGUI\libs\libm.a(lib_a-wf_log10.o)
                              ./src/ui/ui.o (log10f)
C:\Users\gmtii\workspace\disco-noFB-noUGUI\libs\libm.a(lib_a-wf_pow.o)
                              ./src/ui/ui.o (powf)
C:\Users\gmtii\workspace\disco-noFB-noUGUI\libs\libm.a(lib_a-wf_sqrt.o)
                              ./src/codec/audio.o (sqrtf)
C:\Users\gmtii\workspace\disco-noFB-noUGUI\libs\libm.a(lib_a-e_log10.o)
                              C:\Users\gmtii\workspace\disco-noFB-noUGUI\libs\libm.a(lib_a-w_log10.o) (__ieee754_log10)
C:\Users\gmtii\workspace\disco-noFB-noUGUI\libs\libm.a(lib_a-e_pow.o)
                              C:\Users\gmtii\workspace\disco-noFB-noUGUI\libs\libm.a(lib_a-w_pow.o) (__ieee754_pow)
C:\Users\gmtii\workspace\disco-noFB-noUGUI\libs\libm.a(lib_a-e_rem_pio2.o)
                              C:\Users\gmtii\workspace\disco-noFB-noUGUI\libs\libm.a(lib_a-s_cos.o) (__ieee754_rem_pio2)
C:\Users\gmtii\workspace\disco-noFB-noUGUI\libs\libm.a(lib_a-e_sqrt.o)
                              C:\Users\gmtii\workspace\disco-noFB-noUGUI\libs\libm.a(lib_a-w_sqrt.o) (__ieee754_sqrt)
C:\Users\gmtii\workspace\disco-noFB-noUGUI\libs\libm.a(lib_a-ef_log10.o)
                              C:\Users\gmtii\workspace\disco-noFB-noUGUI\libs\libm.a(lib_a-wf_log10.o) (__ieee754_log10f)
C:\Users\gmtii\workspace\disco-noFB-noUGUI\libs\libm.a(lib_a-ef_pow.o)
                              C:\Users\gmtii\workspace\disco-noFB-noUGUI\libs\libm.a(lib_a-wf_pow.o) (__ieee754_powf)
C:\Users\gmtii\workspace\disco-noFB-noUGUI\libs\libm.a(lib_a-ef_sqrt.o)
                              C:\Users\gmtii\workspace\disco-noFB-noUGUI\libs\libm.a(lib_a-wf_sqrt.o) (__ieee754_sqrtf)
C:\Users\gmtii\workspace\disco-noFB-noUGUI\libs\libm.a(lib_a-k_cos.o)
                              C:\Users\gmtii\workspace\disco-noFB-noUGUI\libs\libm.a(lib_a-s_cos.o) (__kernel_cos)
C:\Users\gmtii\workspace\disco-noFB-noUGUI\libs\libm.a(lib_a-k_rem_pio2.o)
                              C:\Users\gmtii\workspace\disco-noFB-noUGUI\libs\libm.a(lib_a-e_rem_pio2.o) (__kernel_rem_pio2)
C:\Users\gmtii\workspace\disco-noFB-noUGUI\libs\libm.a(lib_a-k_sin.o)
                              C:\Users\gmtii\workspace\disco-noFB-noUGUI\libs\libm.a(lib_a-s_cos.o) (__kernel_sin)
C:\Users\gmtii\workspace\disco-noFB-noUGUI\libs\libm.a(lib_a-s_fabs.o)
                              C:\Users\gmtii\workspace\disco-noFB-noUGUI\libs\libm.a(lib_a-e_pow.o) (fabs)
C:\Users\gmtii\workspace\disco-noFB-noUGUI\libs\libm.a(lib_a-s_finite.o)
                              C:\Users\gmtii\workspace\disco-noFB-noUGUI\libs\libm.a(lib_a-w_pow.o) (finite)
C:\Users\gmtii\workspace\disco-noFB-noUGUI\libs\libm.a(lib_a-s_floor.o)
                              C:\Users\gmtii\workspace\disco-noFB-noUGUI\libs\libm.a(lib_a-k_rem_pio2.o) (floor)
C:\Users\gmtii\workspace\disco-noFB-noUGUI\libs\libm.a(lib_a-s_fpclassify.o)
                              C:\Users\gmtii\workspace\disco-noFB-noUGUI\libs\libm.a(lib_a-w_log10.o) (__fpclassifyd)
C:\Users\gmtii\workspace\disco-noFB-noUGUI\libs\libm.a(lib_a-s_lib_ver.o)
                              C:\Users\gmtii\workspace\disco-noFB-noUGUI\libs\libm.a(lib_a-w_log10.o) (__fdlib_version)
C:\Users\gmtii\workspace\disco-noFB-noUGUI\libs\libm.a(lib_a-s_matherr.o)
                              C:\Users\gmtii\workspace\disco-noFB-noUGUI\libs\libm.a(lib_a-w_log10.o) (matherr)
C:\Users\gmtii\workspace\disco-noFB-noUGUI\libs\libm.a(lib_a-s_nan.o)
                              C:\Users\gmtii\workspace\disco-noFB-noUGUI\libs\libm.a(lib_a-w_log10.o) (nan)
C:\Users\gmtii\workspace\disco-noFB-noUGUI\libs\libm.a(lib_a-s_rint.o)
                              C:\Users\gmtii\workspace\disco-noFB-noUGUI\libs\libm.a(lib_a-w_pow.o) (rint)
C:\Users\gmtii\workspace\disco-noFB-noUGUI\libs\libm.a(lib_a-s_scalbn.o)
                              C:\Users\gmtii\workspace\disco-noFB-noUGUI\libs\libm.a(lib_a-e_pow.o) (scalbn)
C:\Users\gmtii\workspace\disco-noFB-noUGUI\libs\libm.a(lib_a-sf_fabs.o)
                              C:\Users\gmtii\workspace\disco-noFB-noUGUI\libs\libm.a(lib_a-ef_pow.o) (fabsf)
C:\Users\gmtii\workspace\disco-noFB-noUGUI\libs\libm.a(lib_a-sf_finite.o)
                              C:\Users\gmtii\workspace\disco-noFB-noUGUI\libs\libm.a(lib_a-wf_pow.o) (finitef)
C:\Users\gmtii\workspace\disco-noFB-noUGUI\libs\libm.a(lib_a-sf_fpclassify.o)
                              C:\Users\gmtii\workspace\disco-noFB-noUGUI\libs\libm.a(lib_a-wf_log10.o) (__fpclassifyf)
C:\Users\gmtii\workspace\disco-noFB-noUGUI\libs\libm.a(lib_a-sf_nan.o)
                              C:\Users\gmtii\workspace\disco-noFB-noUGUI\libs\libm.a(lib_a-ef_pow.o) (nanf)
C:\Users\gmtii\workspace\disco-noFB-noUGUI\libs\libm.a(lib_a-sf_scalbn.o)
                              C:\Users\gmtii\workspace\disco-noFB-noUGUI\libs\libm.a(lib_a-ef_pow.o) (scalbnf)
C:\Users\gmtii\workspace\disco-noFB-noUGUI\libs\libm.a(lib_a-e_log.o)
                              C:\Users\gmtii\workspace\disco-noFB-noUGUI\libs\libm.a(lib_a-e_log10.o) (__ieee754_log)
C:\Users\gmtii\workspace\disco-noFB-noUGUI\libs\libm.a(lib_a-ef_log.o)
                              C:\Users\gmtii\workspace\disco-noFB-noUGUI\libs\libm.a(lib_a-ef_log10.o) (__ieee754_logf)
C:\Users\gmtii\workspace\disco-noFB-noUGUI\libs\libm.a(lib_a-s_copysign.o)
                              C:\Users\gmtii\workspace\disco-noFB-noUGUI\libs\libm.a(lib_a-s_scalbn.o) (copysign)
C:\Users\gmtii\workspace\disco-noFB-noUGUI\libs\libm.a(lib_a-sf_copysign.o)
                              C:\Users\gmtii\workspace\disco-noFB-noUGUI\libs\libm.a(lib_a-sf_scalbn.o) (copysignf)
d:/stm32/gcc/bin/../lib/gcc/arm-none-eabi/4.9.3/armv7e-m/fpu\libgcc.a(_arm_addsubdf3.o)
                              ./src/ui/ui.o (__aeabi_dsub)
d:/stm32/gcc/bin/../lib/gcc/arm-none-eabi/4.9.3/armv7e-m/fpu\libgcc.a(_arm_muldivdf3.o)
                              ./src/ui/ui.o (__aeabi_dmul)
d:/stm32/gcc/bin/../lib/gcc/arm-none-eabi/4.9.3/armv7e-m/fpu\libgcc.a(_arm_cmpdf2.o)
                              ./src/si570/ui_si570.o (__aeabi_dcmpeq)
d:/stm32/gcc/bin/../lib/gcc/arm-none-eabi/4.9.3/armv7e-m/fpu\libgcc.a(_arm_fixdfsi.o)
                              ./src/ra8875/ui_ra8875.o (__aeabi_d2iz)
d:/stm32/gcc/bin/../lib/gcc/arm-none-eabi/4.9.3/armv7e-m/fpu\libgcc.a(_arm_fixunsdfsi.o)
                              ./src/si5351/si5351.o (__aeabi_d2uiz)
d:/stm32/gcc/bin/../lib/gcc/arm-none-eabi/4.9.3/armv7e-m/fpu\libgcc.a(_arm_truncdfsf2.o)
                              ./src/ui/ui.o (__aeabi_d2f)
d:/stm32/gcc/bin/../lib/gcc/arm-none-eabi/4.9.3/armv7e-m/fpu\libgcc.a(_aeabi_uldivmod.o)
                              ./src/si5351/si5351.o (__aeabi_uldivmod)
d:/stm32/gcc/bin/../lib/gcc/arm-none-eabi/4.9.3/armv7e-m/fpu\libgcc.a(bpabi.o)
                              d:/stm32/gcc/bin/../lib/gcc/arm-none-eabi/4.9.3/armv7e-m/fpu\libgcc.a(_aeabi_uldivmod.o) (__gnu_uldivmod_helper)
d:/stm32/gcc/bin/../lib/gcc/arm-none-eabi/4.9.3/armv7e-m/fpu\libgcc.a(_dvmd_tls.o)
                              d:/stm32/gcc/bin/../lib/gcc/arm-none-eabi/4.9.3/armv7e-m/fpu\libgcc.a(_aeabi_uldivmod.o) (__aeabi_ldiv0)
d:/stm32/gcc/bin/../lib/gcc/arm-none-eabi/4.9.3/armv7e-m/fpu\libgcc.a(_divdi3.o)
                              d:/stm32/gcc/bin/../lib/gcc/arm-none-eabi/4.9.3/armv7e-m/fpu\libgcc.a(bpabi.o) (__divdi3)
d:/stm32/gcc/bin/../lib/gcc/arm-none-eabi/4.9.3/armv7e-m/fpu\libgcc.a(_udivdi3.o)
                              d:/stm32/gcc/bin/../lib/gcc/arm-none-eabi/4.9.3/armv7e-m/fpu\libgcc.a(bpabi.o) (__udivdi3)
d:/stm32/gcc/bin/../lib/gcc/arm-none-eabi/4.9.3/../../../../arm-none-eabi/lib/armv7e-m/fpu\libg_nano.a(lib_a-errno.o)
                              ./system/src/newlib/_sbrk.o (__errno)
d:/stm32/gcc/bin/../lib/gcc/arm-none-eabi/4.9.3/../../../../arm-none-eabi/lib/armv7e-m/fpu\libg_nano.a(lib_a-malloc.o)
                              ./src/button/tm_stm32f4_button.o (malloc)
d:/stm32/gcc/bin/../lib/gcc/arm-none-eabi/4.9.3/../../../../arm-none-eabi/lib/armv7e-m/fpu\libg_nano.a(lib_a-memcmp.o)
                              ./src/si570/ui_si570.o (memcmp)
d:/stm32/gcc/bin/../lib/gcc/arm-none-eabi/4.9.3/../../../../arm-none-eabi/lib/armv7e-m/fpu\libg_nano.a(lib_a-memset.o)
                              ./src/ui/ui.o (memset)
d:/stm32/gcc/bin/../lib/gcc/arm-none-eabi/4.9.3/../../../../arm-none-eabi/lib/armv7e-m/fpu\libg_nano.a(lib_a-nano-freer.o)
                              d:/stm32/gcc/bin/../lib/gcc/arm-none-eabi/4.9.3/../../../../arm-none-eabi/lib/armv7e-m/fpu\libg_nano.a(lib_a-malloc.o) (_free_r)
d:/stm32/gcc/bin/../lib/gcc/arm-none-eabi/4.9.3/../../../../arm-none-eabi/lib/armv7e-m/fpu\libg_nano.a(lib_a-nano-mallocr.o)
                              d:/stm32/gcc/bin/../lib/gcc/arm-none-eabi/4.9.3/../../../../arm-none-eabi/lib/armv7e-m/fpu\libg_nano.a(lib_a-malloc.o) (_malloc_r)
d:/stm32/gcc/bin/../lib/gcc/arm-none-eabi/4.9.3/../../../../arm-none-eabi/lib/armv7e-m/fpu\libg_nano.a(lib_a-sbrkr.o)
                              d:/stm32/gcc/bin/../lib/gcc/arm-none-eabi/4.9.3/../../../../arm-none-eabi/lib/armv7e-m/fpu\libg_nano.a(lib_a-nano-mallocr.o) (_sbrk_r)
d:/stm32/gcc/bin/../lib/gcc/arm-none-eabi/4.9.3/../../../../arm-none-eabi/lib/armv7e-m/fpu\libg_nano.a(lib_a-strlen.o)
                              ./src/tm/tm_stm32f4_fonts.o (strlen)

Allocating common symbols
Common symbol       size              file

band_decod_mode     0x28              ./src/ui/ui.o
FIR_A               0xc               ./src/codec/audio.o
right_buffer        0x40              ./src/codec/audio.o
ts_event            0x40              ./src/ra8875/gsl1680.o
pwmt                0x10              ./src/ui/ui.o
errno               0x4               ./system/src/newlib/_syscalls.o
left_buffer         0x40              ./src/codec/audio.o
DIS                 0x1c              ./src/tm/tm_stm32f4_dma2d_graphic.o
ts                  0xbc              ./src/ra8875/ui_ra8875.o
osc_i               0x100             ./src/codec/audio.o
band_filter_mode    0x28              ./src/ui/ui.o
ILI9341_x           0x2               ./src/tm/tm_stm32f4_ili9341_ltdc.o
band_dial_value     0x28              ./src/ui/ui.o
lms1StateF32        0x300             ./src/codec/audio.o
lms2StateF32        0x300             ./src/codec/audio.o
tot_cyc             0x4               ./src/codec/cyclesleep.o
temp                0x1e              ./src/main.o
fingers             0x1               ./src/main.o
lms1_instance       0x10              ./src/codec/audio.o
errsig2             0x104             ./src/codec/audio.o
lms2_nr_delay       0x1040            ./src/codec/audio.o
rx_buffer           0x100             ./src/main.o
os                  0x20              ./src/si570/ui_si570.o
dev_status          0x5               ./src/si5351/si5351.o
interpState         0xc0              ./src/codec/audio.o
tx_buffer           0x100             ./src/main.o
si570_address       0x2               ./src/si570/ui_si570.o
errsig1             0x104             ./src/codec/audio.o
FIR_Q               0xc               ./src/codec/audio.o
LCD_Buttons         0x168             ./src/tm/tm_stm32f4_ili9341_button.o
df                  0x44              ./src/main.o
ILI9341_Opts        0x10              ./src/tm/tm_stm32f4_ili9341_ltdc.o
lms1NormCoeff_f32   0x300             ./src/codec/audio.o
buttonPressed       0x1               ./src/main.o
lms2NormCoeff_f32   0x300             ./src/codec/audio.o
osc_q               0x100             ./src/codec/audio.o
fc                  0x410             ./src/main.o
dev_int_status      0x4               ./src/si5351/si5351.o
vfo                 0x38              ./src/si5351/si5351.o
result              0x104             ./src/codec/audio.o
agc_delay           0x540             ./src/codec/audio.o
lms1Norm_instance   0x18              ./src/codec/audio.o
ILI9341_y           0x2               ./src/tm/tm_stm32f4_ili9341_ltdc.o
s_tot               0x4               ./src/codec/cyclesleep.o
FIR_I               0xc               ./src/codec/audio.o
ews                 0xc               ./src/ui/ui.o
decimState          0xc0              ./src/codec/audio.o
sm                  0x14              ./src/codec/audio.o
mult                0x4               ./src/button/tm_stm32f4_delay.o
lms1_nr_delay       0x840             ./src/codec/audio.o
firState_A          0xc0              ./src/codec/audio.o
DelayCyc1s          0x4               ./src/codec/cyclesleep.o
lms2Norm_instance   0x18              ./src/codec/audio.o
ads                 0xaa0             ./src/codec/audio.o
act_cyc             0x4               ./src/codec/cyclesleep.o
lms2_instance       0x10              ./src/codec/audio.o

Discarded input sections

 .text          0x00000000        0x0 ./system/src/stm32f4/misc.o
 .data          0x00000000        0x0 ./system/src/stm32f4/misc.o
 .bss           0x00000000        0x0 ./system/src/stm32f4/misc.o
 .text.NVIC_PriorityGroupConfig
                0x00000000       0x14 ./system/src/stm32f4/misc.o
 .text.NVIC_SetVectorTable
                0x00000000       0x14 ./system/src/stm32f4/misc.o
 .text.NVIC_SystemLPConfig
                0x00000000       0x18 ./system/src/stm32f4/misc.o
 .text.SysTick_CLKSourceConfig
                0x00000000       0x18 ./system/src/stm32f4/misc.o
 .text          0x00000000        0x0 ./system/src/stm32f4/stm32f4xx_adc.o
 .data          0x00000000        0x0 ./system/src/stm32f4/stm32f4xx_adc.o
 .bss           0x00000000        0x0 ./system/src/stm32f4/stm32f4xx_adc.o
 .text.ADC_DeInit
                0x00000000       0x1c ./system/src/stm32f4/stm32f4xx_adc.o
 .text.ADC_Init
                0x00000000       0x50 ./system/src/stm32f4/stm32f4xx_adc.o
 .text.ADC_StructInit
                0x00000000       0x14 ./system/src/stm32f4/stm32f4xx_adc.o
 .text.ADC_CommonInit
                0x00000000       0x28 ./system/src/stm32f4/stm32f4xx_adc.o
 .text.ADC_CommonStructInit
                0x00000000        0xc ./system/src/stm32f4/stm32f4xx_adc.o
 .text.ADC_Cmd  0x00000000       0x14 ./system/src/stm32f4/stm32f4xx_adc.o
 .text.ADC_AnalogWatchdogCmd
                0x00000000       0x10 ./system/src/stm32f4/stm32f4xx_adc.o
 .text.ADC_AnalogWatchdogThresholdsConfig
                0x00000000        0x8 ./system/src/stm32f4/stm32f4xx_adc.o
 .text.ADC_AnalogWatchdogSingleChannelConfig
                0x00000000        0xc ./system/src/stm32f4/stm32f4xx_adc.o
 .text.ADC_TempSensorVrefintCmd
                0x00000000       0x1c ./system/src/stm32f4/stm32f4xx_adc.o
 .text.ADC_VBATCmd
                0x00000000       0x1c ./system/src/stm32f4/stm32f4xx_adc.o
 .text.ADC_RegularChannelConfig
                0x00000000       0x8c ./system/src/stm32f4/stm32f4xx_adc.o
 .text.ADC_SoftwareStartConv
                0x00000000        0xc ./system/src/stm32f4/stm32f4xx_adc.o
 .text.ADC_GetSoftwareStartConvStatus
                0x00000000        0x8 ./system/src/stm32f4/stm32f4xx_adc.o
 .text.ADC_EOCOnEachRegularChannelCmd
                0x00000000       0x14 ./system/src/stm32f4/stm32f4xx_adc.o
 .text.ADC_ContinuousModeCmd
                0x00000000       0x14 ./system/src/stm32f4/stm32f4xx_adc.o
 .text.ADC_DiscModeChannelCountConfig
                0x00000000       0x10 ./system/src/stm32f4/stm32f4xx_adc.o
 .text.ADC_DiscModeCmd
                0x00000000       0x14 ./system/src/stm32f4/stm32f4xx_adc.o
 .text.ADC_GetConversionValue
                0x00000000        0x8 ./system/src/stm32f4/stm32f4xx_adc.o
 .text.ADC_GetMultiModeConversionValue
                0x00000000        0xc ./system/src/stm32f4/stm32f4xx_adc.o
 .text.ADC_DMACmd
                0x00000000       0x14 ./system/src/stm32f4/stm32f4xx_adc.o
 .text.ADC_DMARequestAfterLastTransferCmd
                0x00000000       0x14 ./system/src/stm32f4/stm32f4xx_adc.o
 .text.ADC_MultiModeDMARequestAfterLastTransferCmd
                0x00000000       0x1c ./system/src/stm32f4/stm32f4xx_adc.o
 .text.ADC_InjectedChannelConfig
                0x00000000       0x58 ./system/src/stm32f4/stm32f4xx_adc.o
 .text.ADC_InjectedSequencerLengthConfig
                0x00000000       0x10 ./system/src/stm32f4/stm32f4xx_adc.o
 .text.ADC_SetInjectedOffset
                0x00000000       0x18 ./system/src/stm32f4/stm32f4xx_adc.o
 .text.ADC_ExternalTrigInjectedConvConfig
                0x00000000        0xc ./system/src/stm32f4/stm32f4xx_adc.o
 .text.ADC_ExternalTrigInjectedConvEdgeConfig
                0x00000000        0xc ./system/src/stm32f4/stm32f4xx_adc.o
 .text.ADC_SoftwareStartInjectedConv
                0x00000000        0xc ./system/src/stm32f4/stm32f4xx_adc.o
 .text.ADC_GetSoftwareStartInjectedConvCmdStatus
                0x00000000        0x8 ./system/src/stm32f4/stm32f4xx_adc.o
 .text.ADC_AutoInjectedConvCmd
                0x00000000       0x14 ./system/src/stm32f4/stm32f4xx_adc.o
 .text.ADC_InjectedDiscModeCmd
                0x00000000       0x14 ./system/src/stm32f4/stm32f4xx_adc.o
 .text.ADC_GetInjectedConversionValue
                0x00000000       0x1c ./system/src/stm32f4/stm32f4xx_adc.o
 .text.ADC_ITConfig
                0x00000000       0x1c ./system/src/stm32f4/stm32f4xx_adc.o
 .text.ADC_GetFlagStatus
                0x00000000        0xc ./system/src/stm32f4/stm32f4xx_adc.o
 .text.ADC_ClearFlag
                0x00000000        0x8 ./system/src/stm32f4/stm32f4xx_adc.o
 .text.ADC_GetITStatus
                0x00000000       0x1c ./system/src/stm32f4/stm32f4xx_adc.o
 .text.ADC_ClearITPendingBit
                0x00000000        0x8 ./system/src/stm32f4/stm32f4xx_adc.o
 .debug_info    0x00000000      0xc8c ./system/src/stm32f4/stm32f4xx_adc.o
 .debug_abbrev  0x00000000      0x1ce ./system/src/stm32f4/stm32f4xx_adc.o
 .debug_loc     0x00000000      0xa81 ./system/src/stm32f4/stm32f4xx_adc.o
 .debug_aranges
                0x00000000      0x148 ./system/src/stm32f4/stm32f4xx_adc.o
 .debug_ranges  0x00000000      0x138 ./system/src/stm32f4/stm32f4xx_adc.o
 .debug_line    0x00000000      0x4eb ./system/src/stm32f4/stm32f4xx_adc.o
 .debug_str     0x00000000      0x857 ./system/src/stm32f4/stm32f4xx_adc.o
 .comment       0x00000000       0x71 ./system/src/stm32f4/stm32f4xx_adc.o
 .debug_frame   0x00000000      0x2e4 ./system/src/stm32f4/stm32f4xx_adc.o
 .ARM.attributes
                0x00000000       0x39 ./system/src/stm32f4/stm32f4xx_adc.o
 .text          0x00000000        0x0 ./system/src/stm32f4/stm32f4xx_dma.o
 .data          0x00000000        0x0 ./system/src/stm32f4/stm32f4xx_dma.o
 .bss           0x00000000        0x0 ./system/src/stm32f4/stm32f4xx_dma.o
 .text.DMA_PeriphIncOffsetSizeConfig
                0x00000000       0x14 ./system/src/stm32f4/stm32f4xx_dma.o
 .text.DMA_FlowControllerConfig
                0x00000000       0x14 ./system/src/stm32f4/stm32f4xx_dma.o
 .text.DMA_GetCurrDataCounter
                0x00000000        0x8 ./system/src/stm32f4/stm32f4xx_dma.o
 .text.DMA_DoubleBufferModeConfig
                0x00000000       0x18 ./system/src/stm32f4/stm32f4xx_dma.o
 .text.DMA_DoubleBufferModeCmd
                0x00000000       0x14 ./system/src/stm32f4/stm32f4xx_dma.o
 .text.DMA_MemoryTargetConfig
                0x00000000        0xc ./system/src/stm32f4/stm32f4xx_dma.o
 .text.DMA_GetCurrentMemoryTarget
                0x00000000        0x8 ./system/src/stm32f4/stm32f4xx_dma.o
 .text.DMA_GetCmdStatus
                0x00000000        0x8 ./system/src/stm32f4/stm32f4xx_dma.o
 .text.DMA_GetFIFOStatus
                0x00000000        0x8 ./system/src/stm32f4/stm32f4xx_dma.o
 .text          0x00000000        0x0 ./system/src/stm32f4/stm32f4xx_dma2d.o
 .data          0x00000000        0x0 ./system/src/stm32f4/stm32f4xx_dma2d.o
 .bss           0x00000000        0x0 ./system/src/stm32f4/stm32f4xx_dma2d.o
 .text.DMA2D_DeInit
                0x00000000       0x1c ./system/src/stm32f4/stm32f4xx_dma2d.o
 .text.DMA2D_Init
                0x00000000       0xac ./system/src/stm32f4/stm32f4xx_dma2d.o
 .text.DMA2D_StructInit
                0x00000000       0x18 ./system/src/stm32f4/stm32f4xx_dma2d.o
 .text.DMA2D_StartTransfer
                0x00000000       0x10 ./system/src/stm32f4/stm32f4xx_dma2d.o
 .text.DMA2D_AbortTransfer
                0x00000000       0x10 ./system/src/stm32f4/stm32f4xx_dma2d.o
 .text.DMA2D_Suspend
                0x00000000       0x1c ./system/src/stm32f4/stm32f4xx_dma2d.o
 .text.DMA2D_FGConfig
                0x00000000       0x70 ./system/src/stm32f4/stm32f4xx_dma2d.o
 .text.DMA2D_FG_StructInit
                0x00000000       0x1c ./system/src/stm32f4/stm32f4xx_dma2d.o
 .text.DMA2D_BGConfig
                0x00000000       0x70 ./system/src/stm32f4/stm32f4xx_dma2d.o
 .text.DMA2D_BG_StructInit
                0x00000000       0x1c ./system/src/stm32f4/stm32f4xx_dma2d.o
 .text.DMA2D_FGStart
                0x00000000       0x1c ./system/src/stm32f4/stm32f4xx_dma2d.o
 .text.DMA2D_BGStart
                0x00000000       0x1c ./system/src/stm32f4/stm32f4xx_dma2d.o
 .text.DMA2D_DeadTimeConfig
                0x00000000       0x2c ./system/src/stm32f4/stm32f4xx_dma2d.o
 .text.DMA2D_LineWatermarkConfig
                0x00000000        0xc ./system/src/stm32f4/stm32f4xx_dma2d.o
 .text.DMA2D_ITConfig
                0x00000000       0x18 ./system/src/stm32f4/stm32f4xx_dma2d.o
 .text.DMA2D_GetFlagStatus
                0x00000000       0x14 ./system/src/stm32f4/stm32f4xx_dma2d.o
 .text.DMA2D_ClearFlag
                0x00000000        0xc ./system/src/stm32f4/stm32f4xx_dma2d.o
 .text.DMA2D_GetITStatus
                0x00000000       0x20 ./system/src/stm32f4/stm32f4xx_dma2d.o
 .text.DMA2D_ClearITPendingBit
                0x00000000        0xc ./system/src/stm32f4/stm32f4xx_dma2d.o
 .debug_info    0x00000000      0x872 ./system/src/stm32f4/stm32f4xx_dma2d.o
 .debug_abbrev  0x00000000      0x1f6 ./system/src/stm32f4/stm32f4xx_dma2d.o
 .debug_loc     0x00000000      0x569 ./system/src/stm32f4/stm32f4xx_dma2d.o
 .debug_aranges
                0x00000000       0xb0 ./system/src/stm32f4/stm32f4xx_dma2d.o
 .debug_ranges  0x00000000       0xa0 ./system/src/stm32f4/stm32f4xx_dma2d.o
 .debug_line    0x00000000      0x345 ./system/src/stm32f4/stm32f4xx_dma2d.o
 .debug_str     0x00000000      0x789 ./system/src/stm32f4/stm32f4xx_dma2d.o
 .comment       0x00000000       0x71 ./system/src/stm32f4/stm32f4xx_dma2d.o
 .debug_frame   0x00000000      0x188 ./system/src/stm32f4/stm32f4xx_dma2d.o
 .ARM.attributes
                0x00000000       0x39 ./system/src/stm32f4/stm32f4xx_dma2d.o
 .text          0x00000000        0x0 ./system/src/stm32f4/stm32f4xx_fmc.o
 .data          0x00000000        0x0 ./system/src/stm32f4/stm32f4xx_fmc.o
 .bss           0x00000000        0x0 ./system/src/stm32f4/stm32f4xx_fmc.o
 .text.FMC_NORSRAMDeInit
                0x00000000       0x28 ./system/src/stm32f4/stm32f4xx_fmc.o
 .text.FMC_NORSRAMStructInit
                0x00000000       0x3c ./system/src/stm32f4/stm32f4xx_fmc.o
 .text.FMC_NANDDeInit
                0x00000000       0x24 ./system/src/stm32f4/stm32f4xx_fmc.o
 .text.FMC_NANDInit
                0x00000000       0x84 ./system/src/stm32f4/stm32f4xx_fmc.o
 .text.FMC_NANDStructInit
                0x00000000       0x30 ./system/src/stm32f4/stm32f4xx_fmc.o
 .text.FMC_NANDCmd
                0x00000000       0x34 ./system/src/stm32f4/stm32f4xx_fmc.o
 .text.FMC_NANDECCCmd
                0x00000000       0x34 ./system/src/stm32f4/stm32f4xx_fmc.o
 .text.FMC_GetECC
                0x00000000       0x14 ./system/src/stm32f4/stm32f4xx_fmc.o
 .text.FMC_PCCARDDeInit
                0x00000000       0x1c ./system/src/stm32f4/stm32f4xx_fmc.o
 .text.FMC_PCCARDInit
                0x00000000       0x78 ./system/src/stm32f4/stm32f4xx_fmc.o
 .text.FMC_PCCARDStructInit
                0x00000000       0x30 ./system/src/stm32f4/stm32f4xx_fmc.o
 .text.FMC_PCCARDCmd
                0x00000000       0x20 ./system/src/stm32f4/stm32f4xx_fmc.o
 .text.FMC_SDRAMDeInit
                0x00000000       0x2c ./system/src/stm32f4/stm32f4xx_fmc.o
 .text.FMC_SDRAMStructInit
                0x00000000       0x38 ./system/src/stm32f4/stm32f4xx_fmc.o
 .text.FMC_GetModeStatus
                0x00000000       0x1c ./system/src/stm32f4/stm32f4xx_fmc.o
 .text.FMC_SetAutoRefresh_Number
                0x00000000       0x10 ./system/src/stm32f4/stm32f4xx_fmc.o
 .text.FMC_SDRAMWriteProtectionConfig
                0x00000000       0x28 ./system/src/stm32f4/stm32f4xx_fmc.o
 .text.FMC_ITConfig
                0x00000000       0x8c ./system/src/stm32f4/stm32f4xx_fmc.o
 .text.FMC_ClearFlag
                0x00000000       0x50 ./system/src/stm32f4/stm32f4xx_fmc.o
 .text.FMC_GetITStatus
                0x00000000       0x64 ./system/src/stm32f4/stm32f4xx_fmc.o
 .text.FMC_ClearITPendingBit
                0x00000000       0x50 ./system/src/stm32f4/stm32f4xx_fmc.o
 .rodata        0x00000000       0x1c ./system/src/stm32f4/stm32f4xx_fmc.o
 .text          0x00000000        0x0 ./system/src/stm32f4/stm32f4xx_gpio.o
 .data          0x00000000        0x0 ./system/src/stm32f4/stm32f4xx_gpio.o
 .bss           0x00000000        0x0 ./system/src/stm32f4/stm32f4xx_gpio.o
 .text.GPIO_DeInit
                0x00000000      0x15c ./system/src/stm32f4/stm32f4xx_gpio.o
 .text.GPIO_StructInit
                0x00000000       0x14 ./system/src/stm32f4/stm32f4xx_gpio.o
 .text.GPIO_PinLockConfig
                0x00000000       0x24 ./system/src/stm32f4/stm32f4xx_gpio.o
 .text.GPIO_ReadInputData
                0x00000000        0x8 ./system/src/stm32f4/stm32f4xx_gpio.o
 .text.GPIO_ReadOutputDataBit
                0x00000000        0xc ./system/src/stm32f4/stm32f4xx_gpio.o
 .text.GPIO_ReadOutputData
                0x00000000        0x8 ./system/src/stm32f4/stm32f4xx_gpio.o
 .text.GPIO_WriteBit
                0x00000000        0xc ./system/src/stm32f4/stm32f4xx_gpio.o
 .text.GPIO_Write
                0x00000000        0x4 ./system/src/stm32f4/stm32f4xx_gpio.o
 .text          0x00000000        0x0 ./system/src/stm32f4/stm32f4xx_i2c.o
 .data          0x00000000        0x0 ./system/src/stm32f4/stm32f4xx_i2c.o
 .bss           0x00000000        0x0 ./system/src/stm32f4/stm32f4xx_i2c.o
 .text.I2C_DeInit
                0x00000000       0x6c ./system/src/stm32f4/stm32f4xx_i2c.o
 .text.I2C_StructInit
                0x00000000       0x24 ./system/src/stm32f4/stm32f4xx_i2c.o
 .text.I2C_Cmd  0x00000000       0x1c ./system/src/stm32f4/stm32f4xx_i2c.o
 .text.I2C_AnalogFilterCmd
                0x00000000       0x1c ./system/src/stm32f4/stm32f4xx_i2c.o
 .text.I2C_DigitalFilterConfig
                0x00000000       0x14 ./system/src/stm32f4/stm32f4xx_i2c.o
 .text.I2C_OwnAddress2Config
                0x00000000       0x14 ./system/src/stm32f4/stm32f4xx_i2c.o
 .text.I2C_DualAddressCmd
                0x00000000       0x1c ./system/src/stm32f4/stm32f4xx_i2c.o
 .text.I2C_GeneralCallCmd
                0x00000000       0x1c ./system/src/stm32f4/stm32f4xx_i2c.o
 .text.I2C_SoftwareResetCmd
                0x00000000       0x1c ./system/src/stm32f4/stm32f4xx_i2c.o
 .text.I2C_StretchClockCmd
                0x00000000       0x1c ./system/src/stm32f4/stm32f4xx_i2c.o
 .text.I2C_FastModeDutyCycleConfig
                0x00000000       0x20 ./system/src/stm32f4/stm32f4xx_i2c.o
 .text.I2C_NACKPositionConfig
                0x00000000       0x20 ./system/src/stm32f4/stm32f4xx_i2c.o
 .text.I2C_SMBusAlertConfig
                0x00000000       0x20 ./system/src/stm32f4/stm32f4xx_i2c.o
 .text.I2C_ARPCmd
                0x00000000       0x1c ./system/src/stm32f4/stm32f4xx_i2c.o
 .text.I2C_TransmitPEC
                0x00000000       0x1c ./system/src/stm32f4/stm32f4xx_i2c.o
 .text.I2C_PECPositionConfig
                0x00000000       0x20 ./system/src/stm32f4/stm32f4xx_i2c.o
 .text.I2C_CalculatePEC
                0x00000000       0x1c ./system/src/stm32f4/stm32f4xx_i2c.o
 .text.I2C_GetPEC
                0x00000000        0x8 ./system/src/stm32f4/stm32f4xx_i2c.o
 .text.I2C_DMACmd
                0x00000000       0x1c ./system/src/stm32f4/stm32f4xx_i2c.o
 .text.I2C_DMALastTransferCmd
                0x00000000       0x1c ./system/src/stm32f4/stm32f4xx_i2c.o
 .text.I2C_ReadRegister
                0x00000000       0x18 ./system/src/stm32f4/stm32f4xx_i2c.o
 .text.I2C_ITConfig
                0x00000000       0x14 ./system/src/stm32f4/stm32f4xx_i2c.o
 .text.I2C_GetLastEvent
                0x00000000       0x10 ./system/src/stm32f4/stm32f4xx_i2c.o
 .text.I2C_GetITStatus
                0x00000000       0x1c ./system/src/stm32f4/stm32f4xx_i2c.o
 .text.I2C_ClearITPendingBit
                0x00000000        0x8 ./system/src/stm32f4/stm32f4xx_i2c.o
 .text          0x00000000        0x0 ./system/src/stm32f4/stm32f4xx_ltdc.o
 .data          0x00000000        0x0 ./system/src/stm32f4/stm32f4xx_ltdc.o
 .bss           0x00000000        0x0 ./system/src/stm32f4/stm32f4xx_ltdc.o
 .text.LTDC_DeInit
                0x00000000       0x1c ./system/src/stm32f4/stm32f4xx_ltdc.o
 .text.LTDC_Init
                0x00000000       0xa0 ./system/src/stm32f4/stm32f4xx_ltdc.o
 .text.LTDC_StructInit
                0x00000000       0x24 ./system/src/stm32f4/stm32f4xx_ltdc.o
 .text.LTDC_Cmd
                0x00000000       0x1c ./system/src/stm32f4/stm32f4xx_ltdc.o
 .text.LTDC_DitherCmd
                0x00000000       0x1c ./system/src/stm32f4/stm32f4xx_ltdc.o
 .text.LTDC_GetRGBWidth
                0x00000000       0x34 ./system/src/stm32f4/stm32f4xx_ltdc.o
 .text.LTDC_RGBStructInit
                0x00000000        0xc ./system/src/stm32f4/stm32f4xx_ltdc.o
 .text.LTDC_LIPConfig
                0x00000000        0xc ./system/src/stm32f4/stm32f4xx_ltdc.o
 .text.LTDC_ReloadConfig
                0x00000000        0xc ./system/src/stm32f4/stm32f4xx_ltdc.o
 .text.LTDC_LayerInit
                0x00000000       0xbc ./system/src/stm32f4/stm32f4xx_ltdc.o
 .text.LTDC_LayerStructInit
                0x00000000       0x34 ./system/src/stm32f4/stm32f4xx_ltdc.o
 .text.LTDC_LayerCmd
                0x00000000       0x14 ./system/src/stm32f4/stm32f4xx_ltdc.o
 .text.LTDC_GetPosStatus
                0x00000000       0x1c ./system/src/stm32f4/stm32f4xx_ltdc.o
 .text.LTDC_PosStructInit
                0x00000000        0x8 ./system/src/stm32f4/stm32f4xx_ltdc.o
 .text.LTDC_GetCDStatus
                0x00000000       0x14 ./system/src/stm32f4/stm32f4xx_ltdc.o
 .text.LTDC_ColorKeyingConfig
                0x00000000       0x44 ./system/src/stm32f4/stm32f4xx_ltdc.o
 .text.LTDC_ColorKeyingStructInit
                0x00000000        0xc ./system/src/stm32f4/stm32f4xx_ltdc.o
 .text.LTDC_CLUTCmd
                0x00000000       0x24 ./system/src/stm32f4/stm32f4xx_ltdc.o
 .text.LTDC_CLUTInit
                0x00000000       0x1c ./system/src/stm32f4/stm32f4xx_ltdc.o
 .text.LTDC_CLUTStructInit
                0x00000000        0xc ./system/src/stm32f4/stm32f4xx_ltdc.o
 .text.LTDC_LayerPosition
                0x00000000       0x74 ./system/src/stm32f4/stm32f4xx_ltdc.o
 .text.LTDC_LayerAlpha
                0x00000000        0x4 ./system/src/stm32f4/stm32f4xx_ltdc.o
 .text.LTDC_LayerAddress
                0x00000000        0x4 ./system/src/stm32f4/stm32f4xx_ltdc.o
 .text.LTDC_LayerSize
                0x00000000       0x58 ./system/src/stm32f4/stm32f4xx_ltdc.o
 .text.LTDC_LayerPixelFormat
                0x00000000       0x64 ./system/src/stm32f4/stm32f4xx_ltdc.o
 .text.LTDC_ITConfig
                0x00000000       0x18 ./system/src/stm32f4/stm32f4xx_ltdc.o
 .text.LTDC_GetFlagStatus
                0x00000000       0x14 ./system/src/stm32f4/stm32f4xx_ltdc.o
 .text.LTDC_ClearFlag
                0x00000000        0xc ./system/src/stm32f4/stm32f4xx_ltdc.o
 .text.LTDC_GetITStatus
                0x00000000       0x20 ./system/src/stm32f4/stm32f4xx_ltdc.o
 .text.LTDC_ClearITPendingBit
                0x00000000        0xc ./system/src/stm32f4/stm32f4xx_ltdc.o
 .debug_info    0x00000000      0xd45 ./system/src/stm32f4/stm32f4xx_ltdc.o
 .debug_abbrev  0x00000000      0x200 ./system/src/stm32f4/stm32f4xx_ltdc.o
 .debug_loc     0x00000000      0x789 ./system/src/stm32f4/stm32f4xx_ltdc.o
 .debug_aranges
                0x00000000      0x108 ./system/src/stm32f4/stm32f4xx_ltdc.o
 .debug_ranges  0x00000000       0xf8 ./system/src/stm32f4/stm32f4xx_ltdc.o
 .debug_line    0x00000000      0x4b5 ./system/src/stm32f4/stm32f4xx_ltdc.o
 .debug_str     0x00000000      0xa7b ./system/src/stm32f4/stm32f4xx_ltdc.o
 .comment       0x00000000       0x71 ./system/src/stm32f4/stm32f4xx_ltdc.o
 .debug_frame   0x00000000      0x284 ./system/src/stm32f4/stm32f4xx_ltdc.o
 .ARM.attributes
                0x00000000       0x39 ./system/src/stm32f4/stm32f4xx_ltdc.o
 .text          0x00000000        0x0 ./system/src/stm32f4/stm32f4xx_rcc.o
 .bss           0x00000000        0x0 ./system/src/stm32f4/stm32f4xx_rcc.o
 .text.RCC_DeInit
                0x00000000       0x50 ./system/src/stm32f4/stm32f4xx_rcc.o
 .text.RCC_HSEConfig
                0x00000000       0x10 ./system/src/stm32f4/stm32f4xx_rcc.o
 .text.RCC_WaitForHSEStartUp
                0x00000000       0x34 ./system/src/stm32f4/stm32f4xx_rcc.o
 .text.RCC_AdjustHSICalibrationValue
                0x00000000       0x14 ./system/src/stm32f4/stm32f4xx_rcc.o
 .text.RCC_HSICmd
                0x00000000        0xc ./system/src/stm32f4/stm32f4xx_rcc.o
 .text.RCC_LSEConfig
                0x00000000       0x20 ./system/src/stm32f4/stm32f4xx_rcc.o
 .text.RCC_LSICmd
                0x00000000        0xc ./system/src/stm32f4/stm32f4xx_rcc.o
 .text.RCC_PLLConfig
                0x00000000       0x24 ./system/src/stm32f4/stm32f4xx_rcc.o
 .text.RCC_PLLCmd
                0x00000000        0xc ./system/src/stm32f4/stm32f4xx_rcc.o
 .text.RCC_PLLI2SConfig
                0x00000000       0x18 ./system/src/stm32f4/stm32f4xx_rcc.o
 .text.RCC_PLLI2SCmd
                0x00000000        0xc ./system/src/stm32f4/stm32f4xx_rcc.o
 .text.RCC_PLLSAIConfig
                0x00000000       0x18 ./system/src/stm32f4/stm32f4xx_rcc.o
 .text.RCC_PLLSAICmd
                0x00000000        0xc ./system/src/stm32f4/stm32f4xx_rcc.o
 .text.RCC_ClockSecuritySystemCmd
                0x00000000        0xc ./system/src/stm32f4/stm32f4xx_rcc.o
 .text.RCC_MCO1Config
                0x00000000       0x14 ./system/src/stm32f4/stm32f4xx_rcc.o
 .text.RCC_SYSCLKConfig
                0x00000000       0x14 ./system/src/stm32f4/stm32f4xx_rcc.o
 .text.RCC_GetSYSCLKSource
                0x00000000       0x10 ./system/src/stm32f4/stm32f4xx_rcc.o
 .text.RCC_HCLKConfig
                0x00000000       0x14 ./system/src/stm32f4/stm32f4xx_rcc.o
 .text.RCC_PCLK1Config
                0x00000000       0x14 ./system/src/stm32f4/stm32f4xx_rcc.o
 .text.RCC_PCLK2Config
                0x00000000       0x14 ./system/src/stm32f4/stm32f4xx_rcc.o
 .text.RCC_RTCCLKConfig
                0x00000000       0x30 ./system/src/stm32f4/stm32f4xx_rcc.o
 .text.RCC_RTCCLKCmd
                0x00000000        0xc ./system/src/stm32f4/stm32f4xx_rcc.o
 .text.RCC_BackupResetCmd
                0x00000000        0xc ./system/src/stm32f4/stm32f4xx_rcc.o
 .text.RCC_I2SCLKConfig
                0x00000000        0xc ./system/src/stm32f4/stm32f4xx_rcc.o
 .text.RCC_SAIBlockACLKConfig
                0x00000000       0x18 ./system/src/stm32f4/stm32f4xx_rcc.o
 .text.RCC_SAIBlockBCLKConfig
                0x00000000       0x18 ./system/src/stm32f4/stm32f4xx_rcc.o
 .text.RCC_SAIPLLI2SClkDivConfig
                0x00000000       0x18 ./system/src/stm32f4/stm32f4xx_rcc.o
 .text.RCC_SAIPLLSAIClkDivConfig
                0x00000000       0x1c ./system/src/stm32f4/stm32f4xx_rcc.o
 .text.RCC_LTDCCLKDivConfig
                0x00000000       0x18 ./system/src/stm32f4/stm32f4xx_rcc.o
 .text.RCC_TIMCLKPresConfig
                0x00000000        0xc ./system/src/stm32f4/stm32f4xx_rcc.o
 .text.RCC_AHB2PeriphClockCmd
                0x00000000       0x18 ./system/src/stm32f4/stm32f4xx_rcc.o
 .text.RCC_AHB1PeriphResetCmd
                0x00000000       0x18 ./system/src/stm32f4/stm32f4xx_rcc.o
 .text.RCC_AHB2PeriphResetCmd
                0x00000000       0x18 ./system/src/stm32f4/stm32f4xx_rcc.o
 .text.RCC_AHB3PeriphResetCmd
                0x00000000       0x18 ./system/src/stm32f4/stm32f4xx_rcc.o
 .text.RCC_AHB1PeriphClockLPModeCmd
                0x00000000       0x18 ./system/src/stm32f4/stm32f4xx_rcc.o
 .text.RCC_AHB2PeriphClockLPModeCmd
                0x00000000       0x18 ./system/src/stm32f4/stm32f4xx_rcc.o
 .text.RCC_AHB3PeriphClockLPModeCmd
                0x00000000       0x18 ./system/src/stm32f4/stm32f4xx_rcc.o
 .text.RCC_APB1PeriphClockLPModeCmd
                0x00000000       0x18 ./system/src/stm32f4/stm32f4xx_rcc.o
 .text.RCC_APB2PeriphClockLPModeCmd
                0x00000000       0x18 ./system/src/stm32f4/stm32f4xx_rcc.o
 .text.RCC_LSEModeConfig
                0x00000000       0x18 ./system/src/stm32f4/stm32f4xx_rcc.o
 .text.RCC_ITConfig
                0x00000000       0x18 ./system/src/stm32f4/stm32f4xx_rcc.o
 .text.RCC_GetFlagStatus
                0x00000000       0x34 ./system/src/stm32f4/stm32f4xx_rcc.o
 .text.RCC_ClearFlag
                0x00000000       0x10 ./system/src/stm32f4/stm32f4xx_rcc.o
 .text.RCC_GetITStatus
                0x00000000       0x14 ./system/src/stm32f4/stm32f4xx_rcc.o
 .text.RCC_ClearITPendingBit
                0x00000000        0xc ./system/src/stm32f4/stm32f4xx_rcc.o
 .text          0x00000000        0x0 ./system/src/stm32f4/stm32f4xx_spi.o
 .data          0x00000000        0x0 ./system/src/stm32f4/stm32f4xx_spi.o
 .bss           0x00000000        0x0 ./system/src/stm32f4/stm32f4xx_spi.o
 .text.SPI_Init
                0x00000000       0x50 ./system/src/stm32f4/stm32f4xx_spi.o
 .text.SPI_StructInit
                0x00000000       0x18 ./system/src/stm32f4/stm32f4xx_spi.o
 .text.I2S_StructInit
                0x00000000       0x14 ./system/src/stm32f4/stm32f4xx_spi.o
 .text.SPI_Cmd  0x00000000       0x1c ./system/src/stm32f4/stm32f4xx_spi.o
 .text.SPI_DataSizeConfig
                0x00000000       0x18 ./system/src/stm32f4/stm32f4xx_spi.o
 .text.SPI_BiDirectionalLineConfig
                0x00000000       0x20 ./system/src/stm32f4/stm32f4xx_spi.o
 .text.SPI_NSSInternalSoftwareConfig
                0x00000000       0x20 ./system/src/stm32f4/stm32f4xx_spi.o
 .text.SPI_SSOutputCmd
                0x00000000       0x1c ./system/src/stm32f4/stm32f4xx_spi.o
 .text.SPI_TIModeCmd
                0x00000000       0x1c ./system/src/stm32f4/stm32f4xx_spi.o
 .text.SPI_I2S_ReceiveData
                0x00000000        0x8 ./system/src/stm32f4/stm32f4xx_spi.o
 .text.SPI_I2S_SendData
                0x00000000        0x4 ./system/src/stm32f4/stm32f4xx_spi.o
 .text.SPI_CalculateCRC
                0x00000000       0x1c ./system/src/stm32f4/stm32f4xx_spi.o
 .text.SPI_TransmitCRC
                0x00000000        0xc ./system/src/stm32f4/stm32f4xx_spi.o
 .text.SPI_GetCRC
                0x00000000        0xc ./system/src/stm32f4/stm32f4xx_spi.o
 .text.SPI_GetCRCPolynomial
                0x00000000        0x8 ./system/src/stm32f4/stm32f4xx_spi.o
 .text.SPI_I2S_ITConfig
                0x00000000       0x20 ./system/src/stm32f4/stm32f4xx_spi.o
 .text.SPI_I2S_GetFlagStatus
                0x00000000        0xc ./system/src/stm32f4/stm32f4xx_spi.o
 .text.SPI_I2S_ClearFlag
                0x00000000        0x8 ./system/src/stm32f4/stm32f4xx_spi.o
 .text.SPI_I2S_GetITStatus
                0x00000000       0x2c ./system/src/stm32f4/stm32f4xx_spi.o
 .text.SPI_I2S_ClearITPendingBit
                0x00000000       0x10 ./system/src/stm32f4/stm32f4xx_spi.o
 .text          0x00000000        0x0 ./system/src/stm32f4/stm32f4xx_tim.o
 .data          0x00000000        0x0 ./system/src/stm32f4/stm32f4xx_tim.o
 .bss           0x00000000        0x0 ./system/src/stm32f4/stm32f4xx_tim.o
 .text.TIM_DeInit
                0x00000000      0x1b8 ./system/src/stm32f4/stm32f4xx_tim.o
 .text.TIM_TimeBaseStructInit
                0x00000000       0x14 ./system/src/stm32f4/stm32f4xx_tim.o
 .text.TIM_PrescalerConfig
                0x00000000        0x8 ./system/src/stm32f4/stm32f4xx_tim.o
 .text.TIM_CounterModeConfig
                0x00000000       0x10 ./system/src/stm32f4/stm32f4xx_tim.o
 .text.TIM_SetCounter
                0x00000000        0x4 ./system/src/stm32f4/stm32f4xx_tim.o
 .text.TIM_SetAutoreload
                0x00000000        0x4 ./system/src/stm32f4/stm32f4xx_tim.o
 .text.TIM_GetPrescaler
                0x00000000        0x8 ./system/src/stm32f4/stm32f4xx_tim.o
 .text.TIM_UpdateDisableConfig
                0x00000000       0x1c ./system/src/stm32f4/stm32f4xx_tim.o
 .text.TIM_UpdateRequestConfig
                0x00000000       0x1c ./system/src/stm32f4/stm32f4xx_tim.o
 .text.TIM_ARRPreloadConfig
                0x00000000       0x1c ./system/src/stm32f4/stm32f4xx_tim.o
 .text.TIM_SelectOnePulseMode
                0x00000000       0x18 ./system/src/stm32f4/stm32f4xx_tim.o
 .text.TIM_SetClockDivision
                0x00000000       0x18 ./system/src/stm32f4/stm32f4xx_tim.o
 .text.TIM_OC1Init
                0x00000000       0x84 ./system/src/stm32f4/stm32f4xx_tim.o
 .text.TIM_OC2Init
                0x00000000       0x90 ./system/src/stm32f4/stm32f4xx_tim.o
 .text.TIM_OC3Init
                0x00000000       0x90 ./system/src/stm32f4/stm32f4xx_tim.o
 .text.TIM_OC4Init
                0x00000000       0x74 ./system/src/stm32f4/stm32f4xx_tim.o
 .text.TIM_OCStructInit
                0x00000000       0x14 ./system/src/stm32f4/stm32f4xx_tim.o
 .text.TIM_SelectOCxM
                0x00000000       0x50 ./system/src/stm32f4/stm32f4xx_tim.o
 .text.TIM_SetCompare1
                0x00000000        0x4 ./system/src/stm32f4/stm32f4xx_tim.o
 .text.TIM_SetCompare2
                0x00000000        0x4 ./system/src/stm32f4/stm32f4xx_tim.o
 .text.TIM_SetCompare3
                0x00000000        0x4 ./system/src/stm32f4/stm32f4xx_tim.o
 .text.TIM_SetCompare4
                0x00000000        0x4 ./system/src/stm32f4/stm32f4xx_tim.o
 .text.TIM_ForcedOC1Config
                0x00000000       0x10 ./system/src/stm32f4/stm32f4xx_tim.o
 .text.TIM_ForcedOC2Config
                0x00000000       0x14 ./system/src/stm32f4/stm32f4xx_tim.o
 .text.TIM_ForcedOC3Config
                0x00000000       0x10 ./system/src/stm32f4/stm32f4xx_tim.o
 .text.TIM_ForcedOC4Config
                0x00000000       0x14 ./system/src/stm32f4/stm32f4xx_tim.o
 .text.TIM_OC1PreloadConfig
                0x00000000       0x10 ./system/src/stm32f4/stm32f4xx_tim.o
 .text.TIM_OC2PreloadConfig
                0x00000000       0x14 ./system/src/stm32f4/stm32f4xx_tim.o
 .text.TIM_OC3PreloadConfig
                0x00000000       0x10 ./system/src/stm32f4/stm32f4xx_tim.o
 .text.TIM_OC4PreloadConfig
                0x00000000       0x14 ./system/src/stm32f4/stm32f4xx_tim.o
 .text.TIM_OC1FastConfig
                0x00000000       0x10 ./system/src/stm32f4/stm32f4xx_tim.o
 .text.TIM_OC2FastConfig
                0x00000000       0x14 ./system/src/stm32f4/stm32f4xx_tim.o
 .text.TIM_OC3FastConfig
                0x00000000       0x10 ./system/src/stm32f4/stm32f4xx_tim.o
 .text.TIM_OC4FastConfig
                0x00000000       0x14 ./system/src/stm32f4/stm32f4xx_tim.o
 .text.TIM_ClearOC1Ref
                0x00000000       0x10 ./system/src/stm32f4/stm32f4xx_tim.o
 .text.TIM_ClearOC2Ref
                0x00000000       0x10 ./system/src/stm32f4/stm32f4xx_tim.o
 .text.TIM_ClearOC3Ref
                0x00000000       0x10 ./system/src/stm32f4/stm32f4xx_tim.o
 .text.TIM_ClearOC4Ref
                0x00000000       0x10 ./system/src/stm32f4/stm32f4xx_tim.o
 .text.TIM_OC1PolarityConfig
                0x00000000       0x10 ./system/src/stm32f4/stm32f4xx_tim.o
 .text.TIM_OC1NPolarityConfig
                0x00000000       0x10 ./system/src/stm32f4/stm32f4xx_tim.o
 .text.TIM_OC2PolarityConfig
                0x00000000       0x14 ./system/src/stm32f4/stm32f4xx_tim.o
 .text.TIM_OC2NPolarityConfig
                0x00000000       0x14 ./system/src/stm32f4/stm32f4xx_tim.o
 .text.TIM_OC3PolarityConfig
                0x00000000       0x14 ./system/src/stm32f4/stm32f4xx_tim.o
 .text.TIM_OC3NPolarityConfig
                0x00000000       0x14 ./system/src/stm32f4/stm32f4xx_tim.o
 .text.TIM_OC4PolarityConfig
                0x00000000       0x14 ./system/src/stm32f4/stm32f4xx_tim.o
 .text.TIM_CCxCmd
                0x00000000       0x20 ./system/src/stm32f4/stm32f4xx_tim.o
 .text.TIM_CCxNCmd
                0x00000000       0x20 ./system/src/stm32f4/stm32f4xx_tim.o
 .text.TIM_ICInit
                0x00000000      0x168 ./system/src/stm32f4/stm32f4xx_tim.o
 .text.TIM_ICStructInit
                0x00000000       0x10 ./system/src/stm32f4/stm32f4xx_tim.o
 .text.TIM_PWMIConfig
                0x00000000      0x158 ./system/src/stm32f4/stm32f4xx_tim.o
 .text.TIM_GetCapture1
                0x00000000        0x4 ./system/src/stm32f4/stm32f4xx_tim.o
 .text.TIM_GetCapture2
                0x00000000        0x4 ./system/src/stm32f4/stm32f4xx_tim.o
 .text.TIM_GetCapture3
                0x00000000        0x4 ./system/src/stm32f4/stm32f4xx_tim.o
 .text.TIM_GetCapture4
                0x00000000        0x4 ./system/src/stm32f4/stm32f4xx_tim.o
 .text.TIM_SetIC1Prescaler
                0x00000000       0x18 ./system/src/stm32f4/stm32f4xx_tim.o
 .text.TIM_SetIC2Prescaler
                0x00000000       0x1c ./system/src/stm32f4/stm32f4xx_tim.o
 .text.TIM_SetIC3Prescaler
                0x00000000       0x18 ./system/src/stm32f4/stm32f4xx_tim.o
 .text.TIM_SetIC4Prescaler
                0x00000000       0x1c ./system/src/stm32f4/stm32f4xx_tim.o
 .text.TIM_BDTRConfig
                0x00000000       0x28 ./system/src/stm32f4/stm32f4xx_tim.o
 .text.TIM_BDTRStructInit
                0x00000000       0x14 ./system/src/stm32f4/stm32f4xx_tim.o
 .text.TIM_CtrlPWMOutputs
                0x00000000       0x20 ./system/src/stm32f4/stm32f4xx_tim.o
 .text.TIM_SelectCOM
                0x00000000       0x1c ./system/src/stm32f4/stm32f4xx_tim.o
 .text.TIM_CCPreloadControl
                0x00000000       0x1c ./system/src/stm32f4/stm32f4xx_tim.o
 .text.TIM_ITConfig
                0x00000000       0x14 ./system/src/stm32f4/stm32f4xx_tim.o
 .text.TIM_GenerateEvent
                0x00000000        0x4 ./system/src/stm32f4/stm32f4xx_tim.o
 .text.TIM_GetFlagStatus
                0x00000000        0xc ./system/src/stm32f4/stm32f4xx_tim.o
 .text.TIM_ClearFlag
                0x00000000        0x8 ./system/src/stm32f4/stm32f4xx_tim.o
 .text.TIM_GetITStatus
                0x00000000       0x18 ./system/src/stm32f4/stm32f4xx_tim.o
 .text.TIM_ClearITPendingBit
                0x00000000        0x8 ./system/src/stm32f4/stm32f4xx_tim.o
 .text.TIM_DMAConfig
                0x00000000        0x8 ./system/src/stm32f4/stm32f4xx_tim.o
 .text.TIM_DMACmd
                0x00000000       0x14 ./system/src/stm32f4/stm32f4xx_tim.o
 .text.TIM_SelectCCDMA
                0x00000000       0x1c ./system/src/stm32f4/stm32f4xx_tim.o
 .text.TIM_InternalClockConfig
                0x00000000       0x10 ./system/src/stm32f4/stm32f4xx_tim.o
 .text.TIM_ITRxExternalClockConfig
                0x00000000       0x1c ./system/src/stm32f4/stm32f4xx_tim.o
 .text.TIM_TIxExternalClockConfig
                0x00000000       0x88 ./system/src/stm32f4/stm32f4xx_tim.o
 .text.TIM_ETRClockMode1Config
                0x00000000       0x28 ./system/src/stm32f4/stm32f4xx_tim.o
 .text.TIM_ETRClockMode2Config
                0x00000000       0x24 ./system/src/stm32f4/stm32f4xx_tim.o
 .text.TIM_SelectInputTrigger
                0x00000000       0x10 ./system/src/stm32f4/stm32f4xx_tim.o
 .text.TIM_SelectOutputTrigger
                0x00000000       0x18 ./system/src/stm32f4/stm32f4xx_tim.o
 .text.TIM_SelectSlaveMode
                0x00000000       0x18 ./system/src/stm32f4/stm32f4xx_tim.o
 .text.TIM_SelectMasterSlaveMode
                0x00000000       0x18 ./system/src/stm32f4/stm32f4xx_tim.o
 .text.TIM_ETRConfig
                0x00000000       0x18 ./system/src/stm32f4/stm32f4xx_tim.o
 .text.TIM_SelectHallSensor
                0x00000000       0x1c ./system/src/stm32f4/stm32f4xx_tim.o
 .text.TIM_RemapConfig
                0x00000000        0x8 ./system/src/stm32f4/stm32f4xx_tim.o
 .text          0x00000000        0x0 ./system/src/stm32f4/stm32f4xx_usart.o
 .data          0x00000000        0x0 ./system/src/stm32f4/stm32f4xx_usart.o
 .bss           0x00000000        0x0 ./system/src/stm32f4/stm32f4xx_usart.o
 .text.USART_DeInit
                0x00000000      0x10c ./system/src/stm32f4/stm32f4xx_usart.o
 .text.USART_Init
                0x00000000       0xc4 ./system/src/stm32f4/stm32f4xx_usart.o
 .text.USART_StructInit
                0x00000000       0x18 ./system/src/stm32f4/stm32f4xx_usart.o
 .text.USART_ClockInit
                0x00000000       0x24 ./system/src/stm32f4/stm32f4xx_usart.o
 .text.USART_ClockStructInit
                0x00000000        0xc ./system/src/stm32f4/stm32f4xx_usart.o
 .text.USART_Cmd
                0x00000000       0x1c ./system/src/stm32f4/stm32f4xx_usart.o
 .text.USART_SetPrescaler
                0x00000000       0x14 ./system/src/stm32f4/stm32f4xx_usart.o
 .text.USART_OverSampling8Cmd
                0x00000000       0x1c ./system/src/stm32f4/stm32f4xx_usart.o
 .text.USART_OneBitMethodCmd
                0x00000000       0x1c ./system/src/stm32f4/stm32f4xx_usart.o
 .text.USART_SendData
                0x00000000        0x8 ./system/src/stm32f4/stm32f4xx_usart.o
 .text.USART_ReceiveData
                0x00000000        0x8 ./system/src/stm32f4/stm32f4xx_usart.o
 .text.USART_SetAddress
                0x00000000       0x18 ./system/src/stm32f4/stm32f4xx_usart.o
 .text.USART_ReceiverWakeUpCmd
                0x00000000       0x1c ./system/src/stm32f4/stm32f4xx_usart.o
 .text.USART_WakeUpConfig
                0x00000000       0x18 ./system/src/stm32f4/stm32f4xx_usart.o
 .text.USART_LINBreakDetectLengthConfig
                0x00000000       0x18 ./system/src/stm32f4/stm32f4xx_usart.o
 .text.USART_LINCmd
                0x00000000       0x1c ./system/src/stm32f4/stm32f4xx_usart.o
 .text.USART_SendBreak
                0x00000000        0xc ./system/src/stm32f4/stm32f4xx_usart.o
 .text.USART_HalfDuplexCmd
                0x00000000       0x1c ./system/src/stm32f4/stm32f4xx_usart.o
 .text.USART_SetGuardTime
                0x00000000       0x14 ./system/src/stm32f4/stm32f4xx_usart.o
 .text.USART_SmartCardCmd
                0x00000000       0x1c ./system/src/stm32f4/stm32f4xx_usart.o
 .text.USART_SmartCardNACKCmd
                0x00000000       0x1c ./system/src/stm32f4/stm32f4xx_usart.o
 .text.USART_IrDAConfig
                0x00000000       0x18 ./system/src/stm32f4/stm32f4xx_usart.o
 .text.USART_IrDACmd
                0x00000000       0x1c ./system/src/stm32f4/stm32f4xx_usart.o
 .text.USART_DMACmd
                0x00000000       0x14 ./system/src/stm32f4/stm32f4xx_usart.o
 .text.USART_ITConfig
                0x00000000       0x3c ./system/src/stm32f4/stm32f4xx_usart.o
 .text.USART_GetFlagStatus
                0x00000000        0xc ./system/src/stm32f4/stm32f4xx_usart.o
 .text.USART_ClearFlag
                0x00000000        0x8 ./system/src/stm32f4/stm32f4xx_usart.o
 .text.USART_GetITStatus
                0x00000000       0x4c ./system/src/stm32f4/stm32f4xx_usart.o
 .text.USART_ClearITPendingBit
                0x00000000       0x10 ./system/src/stm32f4/stm32f4xx_usart.o
 .debug_info    0x00000000      0xbb1 ./system/src/stm32f4/stm32f4xx_usart.o
 .debug_abbrev  0x00000000      0x1ed ./system/src/stm32f4/stm32f4xx_usart.o
 .debug_loc     0x00000000      0x917 ./system/src/stm32f4/stm32f4xx_usart.o
 .debug_aranges
                0x00000000      0x100 ./system/src/stm32f4/stm32f4xx_usart.o
 .debug_ranges  0x00000000       0xf0 ./system/src/stm32f4/stm32f4xx_usart.o
 .debug_line    0x00000000      0x482 ./system/src/stm32f4/stm32f4xx_usart.o
 .debug_str     0x00000000      0x70b ./system/src/stm32f4/stm32f4xx_usart.o
 .comment       0x00000000       0x71 ./system/src/stm32f4/stm32f4xx_usart.o
 .debug_frame   0x00000000      0x274 ./system/src/stm32f4/stm32f4xx_usart.o
 .ARM.attributes
                0x00000000       0x39 ./system/src/stm32f4/stm32f4xx_usart.o
 .text          0x00000000        0x0 ./system/src/newlib/_cxx.o
 .data          0x00000000        0x0 ./system/src/newlib/_cxx.o
 .bss           0x00000000        0x0 ./system/src/newlib/_cxx.o
 .text._ZN9__gnu_cxx27__verbose_terminate_handlerEv
                0x00000000        0x8 ./system/src/newlib/_cxx.o
 .text.__cxa_pure_virtual
                0x00000000        0x8 ./system/src/newlib/_cxx.o
 .debug_info    0x00000000      0x4c6 ./system/src/newlib/_cxx.o
 .debug_abbrev  0x00000000      0x1a4 ./system/src/newlib/_cxx.o
 .debug_aranges
                0x00000000       0x28 ./system/src/newlib/_cxx.o
 .debug_ranges  0x00000000       0x18 ./system/src/newlib/_cxx.o
 .debug_line    0x00000000      0x132 ./system/src/newlib/_cxx.o
 .debug_str     0x00000000      0x346 ./system/src/newlib/_cxx.o
 .comment       0x00000000       0x71 ./system/src/newlib/_cxx.o
 .debug_frame   0x00000000       0x40 ./system/src/newlib/_cxx.o
 .ARM.attributes
                0x00000000       0x39 ./system/src/newlib/_cxx.o
 .text          0x00000000        0x0 ./system/src/newlib/_exit.o
 .data          0x00000000        0x0 ./system/src/newlib/_exit.o
 .bss           0x00000000        0x0 ./system/src/newlib/_exit.o
 .text.abort    0x00000000        0x8 ./system/src/newlib/_exit.o
 .text          0x00000000        0x0 ./system/src/newlib/_sbrk.o
 .data          0x00000000        0x0 ./system/src/newlib/_sbrk.o
 .text          0x00000000        0x0 ./system/src/newlib/_startup.o
 .data          0x00000000        0x0 ./system/src/newlib/_startup.o
 .bss           0x00000000        0x0 ./system/src/newlib/_startup.o
 .text.__initialize_data
                0x00000000       0x14 ./system/src/newlib/_startup.o
 .text.__initialize_bss
                0x00000000       0x10 ./system/src/newlib/_startup.o
 .text.__run_init_array
                0x00000000       0x48 ./system/src/newlib/_startup.o
 .text.__run_fini_array
                0x00000000       0x24 ./system/src/newlib/_startup.o
 .text          0x00000000        0x0 ./system/src/newlib/_syscalls.o
 .text.raise    0x00000000       0x10 ./system/src/newlib/_syscalls.o
 .text.kill     0x00000000       0x10 ./system/src/newlib/_syscalls.o
 .text._chown   0x00000000       0x10 ./system/src/newlib/_syscalls.o
 .text._close   0x00000000       0x10 ./system/src/newlib/_syscalls.o
 .text._execve  0x00000000       0x10 ./system/src/newlib/_syscalls.o
 .text._fork    0x00000000       0x10 ./system/src/newlib/_syscalls.o
 .text._fstat   0x00000000       0x10 ./system/src/newlib/_syscalls.o
 .text._getpid  0x00000000       0x10 ./system/src/newlib/_syscalls.o
 .text._gettimeofday
                0x00000000       0x10 ./system/src/newlib/_syscalls.o
 .text._isatty  0x00000000       0x10 ./system/src/newlib/_syscalls.o
 .text._kill    0x00000000       0x10 ./system/src/newlib/_syscalls.o
 .text._link    0x00000000       0x10 ./system/src/newlib/_syscalls.o
 .text._lseek   0x00000000       0x10 ./system/src/newlib/_syscalls.o
 .text._open    0x00000000       0x10 ./system/src/newlib/_syscalls.o
 .text._read    0x00000000       0x10 ./system/src/newlib/_syscalls.o
 .text._readlink
                0x00000000       0x10 ./system/src/newlib/_syscalls.o
 .text._stat    0x00000000       0x10 ./system/src/newlib/_syscalls.o
 .text._symlink
                0x00000000       0x10 ./system/src/newlib/_syscalls.o
 .text._times   0x00000000       0x10 ./system/src/newlib/_syscalls.o
 .text._unlink  0x00000000       0x10 ./system/src/newlib/_syscalls.o
 .text._wait    0x00000000       0x10 ./system/src/newlib/_syscalls.o
 .text._write   0x00000000       0x10 ./system/src/newlib/_syscalls.o
 .text          0x00000000        0x0 ./system/src/newlib/assert.o
 .data          0x00000000        0x0 ./system/src/newlib/assert.o
 .bss           0x00000000        0x0 ./system/src/newlib/assert.o
 .text.__assert_func
                0x00000000        0x8 ./system/src/newlib/assert.o
 .debug_info    0x00000000      0x10b ./system/src/newlib/assert.o
 .debug_abbrev  0x00000000       0xa6 ./system/src/newlib/assert.o
 .debug_loc     0x00000000       0x84 ./system/src/newlib/assert.o
 .debug_aranges
                0x00000000       0x20 ./system/src/newlib/assert.o
 .debug_ranges  0x00000000       0x10 ./system/src/newlib/assert.o
 .debug_line    0x00000000       0xab ./system/src/newlib/assert.o
 .debug_str     0x00000000      0x1d9 ./system/src/newlib/assert.o
 .comment       0x00000000       0x71 ./system/src/newlib/assert.o
 .debug_frame   0x00000000       0x28 ./system/src/newlib/assert.o
 .ARM.attributes
                0x00000000       0x39 ./system/src/newlib/assert.o
 .text          0x00000000        0x0 ./system/src/diag/Trace.o
 .data          0x00000000        0x0 ./system/src/diag/Trace.o
 .bss           0x00000000        0x0 ./system/src/diag/Trace.o
 .debug_line    0x00000000        0x0 ./system/src/diag/Trace.o
 .debug_str     0x00000000       0xf6 ./system/src/diag/Trace.o
 .comment       0x00000000       0x71 ./system/src/diag/Trace.o
 .ARM.attributes
                0x00000000       0x39 ./system/src/diag/Trace.o
 .text          0x00000000        0x0 ./system/src/diag/trace_impl.o
 .data          0x00000000        0x0 ./system/src/diag/trace_impl.o
 .bss           0x00000000        0x0 ./system/src/diag/trace_impl.o
 .debug_line    0x00000000        0x0 ./system/src/diag/trace_impl.o
 .debug_str     0x00000000       0xfb ./system/src/diag/trace_impl.o
 .comment       0x00000000       0x71 ./system/src/diag/trace_impl.o
 .ARM.attributes
                0x00000000       0x39 ./system/src/diag/trace_impl.o
 .text          0x00000000        0x0 ./system/src/cortexm/_initialize_hardware.o
 .data          0x00000000        0x0 ./system/src/cortexm/_initialize_hardware.o
 .bss           0x00000000        0x0 ./system/src/cortexm/_initialize_hardware.o
 .text          0x00000000        0x0 ./system/src/cortexm/_reset_hardware.o
 .data          0x00000000        0x0 ./system/src/cortexm/_reset_hardware.o
 .bss           0x00000000        0x0 ./system/src/cortexm/_reset_hardware.o
 .text          0x00000000        0x0 ./system/src/cortexm/exception_handlers.o
 .data          0x00000000        0x0 ./system/src/cortexm/exception_handlers.o
 .bss           0x00000000        0x0 ./system/src/cortexm/exception_handlers.o
 .text          0x00000000        0x0 ./system/src/cmsis/system_stm32f4xx.o
 .bss           0x00000000        0x0 ./system/src/cmsis/system_stm32f4xx.o
 .text          0x00000000        0x0 ./system/src/cmsis/vectors_stm32f429xx.o
 .data          0x00000000        0x0 ./system/src/cmsis/vectors_stm32f429xx.o
 .bss           0x00000000        0x0 ./system/src/cmsis/vectors_stm32f429xx.o
 .text          0x00000000        0x0 ./src/ui/ui.o
 .text.UiDriverCreateFunctionButtons
                0x00000000      0x1cc ./src/ui/ui.o
 .text.UiDriverClearSpectrumDisplay
                0x00000000       0x20 ./src/ui/ui.o
 .text.UiDriverShowFilter
                0x00000000       0x94 ./src/ui/ui.o
 .text.UiDriverUpdateFrequencyFast
                0x00000000       0x58 ./src/ui/ui.o
 .text.UiDriverHandlePowerSupply
                0x00000000      0x1f8 ./src/ui/ui.o
 .text          0x00000000        0x0 ./src/tm/tm_stm32f4_disco.o
 .data          0x00000000        0x0 ./src/tm/tm_stm32f4_disco.o
 .bss           0x00000000        0x1 ./src/tm/tm_stm32f4_disco.o
 .text.TM_DISCO_LedInit
                0x00000000       0x28 ./src/tm/tm_stm32f4_disco.o
 .text.TM_DISCO_ButtonInit
                0x00000000       0x20 ./src/tm/tm_stm32f4_disco.o
 .text.TM_DISCO_ButtonOnPressed
                0x00000000       0x2c ./src/tm/tm_stm32f4_disco.o
 .text.TM_DISCO_ButtonOnReleased
                0x00000000       0x2c ./src/tm/tm_stm32f4_disco.o
 .debug_info    0x00000000      0x328 ./src/tm/tm_stm32f4_disco.o
 .debug_abbrev  0x00000000      0x12c ./src/tm/tm_stm32f4_disco.o
 .debug_aranges
                0x00000000       0x38 ./src/tm/tm_stm32f4_disco.o
 .debug_ranges  0x00000000       0x28 ./src/tm/tm_stm32f4_disco.o
 .debug_line    0x00000000      0x180 ./src/tm/tm_stm32f4_disco.o
 .debug_str     0x00000000      0x3bb ./src/tm/tm_stm32f4_disco.o
 .comment       0x00000000       0x71 ./src/tm/tm_stm32f4_disco.o
 .debug_frame   0x00000000       0x6c ./src/tm/tm_stm32f4_disco.o
 .ARM.attributes
                0x00000000       0x39 ./src/tm/tm_stm32f4_disco.o
 .text          0x00000000        0x0 ./src/tm/tm_stm32f4_dma.o
 .data          0x00000000        0x0 ./src/tm/tm_stm32f4_dma.o
 .bss           0x00000000        0x0 ./src/tm/tm_stm32f4_dma.o
 .text.TM_DMA_ClearFlags
                0x00000000       0x58 ./src/tm/tm_stm32f4_dma.o
 .text.TM_DMA_ClearFlag
                0x00000000       0x60 ./src/tm/tm_stm32f4_dma.o
 .text.TM_DMA_GetFlags
                0x00000000       0x58 ./src/tm/tm_stm32f4_dma.o
 .text.TM_DMA_EnableInterrupts
                0x00000000       0xe0 ./src/tm/tm_stm32f4_dma.o
 .text.TM_DMA_DisableInterrupts
                0x00000000       0xd4 ./src/tm/tm_stm32f4_dma.o
 .text          0x00000000        0x0 ./src/tm/tm_stm32f4_dma2d_graphic.o
 .data          0x00000000        0x0 ./src/tm/tm_stm32f4_dma2d_graphic.o
 .bss           0x00000000       0x28 ./src/tm/tm_stm32f4_dma2d_graphic.o
 .text.TM_DMA2DGRAPHIC_Init
                0x00000000       0x50 ./src/tm/tm_stm32f4_dma2d_graphic.o
 .text.TM_DMA2DGRAPHIC_SetLayer
                0x00000000       0x14 ./src/tm/tm_stm32f4_dma2d_graphic.o
 .text.TM_DMA2DGRAPHIC_DrawPixel
                0x00000000       0xc0 ./src/tm/tm_stm32f4_dma2d_graphic.o
 .text.TM_DMA2DGRAPHIC_GetPixel
                0x00000000       0xb4 ./src/tm/tm_stm32f4_dma2d_graphic.o
 .text.TM_DMA2DGRAPHIC_SetOrientation
                0x00000000       0x2c ./src/tm/tm_stm32f4_dma2d_graphic.o
 .text.TM_DMA2DGRAPHIC_CopyBufferIT
                0x00000000       0x54 ./src/tm/tm_stm32f4_dma2d_graphic.o
 .text.TM_DMA2DGRAPHIC_CopyBuffer
                0x00000000       0x28 ./src/tm/tm_stm32f4_dma2d_graphic.o
 .text.TM_INT_DMA2DGRAPHIC_SetConf
                0x00000000       0x54 ./src/tm/tm_stm32f4_dma2d_graphic.o
 .text.TM_INT_DMA2DGRAPHIC_InitAndTransfer
                0x00000000       0x4c ./src/tm/tm_stm32f4_dma2d_graphic.o
 .text.TM_DMA2DGRAPHIC_Fill
                0x00000000       0x5c ./src/tm/tm_stm32f4_dma2d_graphic.o
 .text.TM_DMA2DGRAPHIC_DrawFilledRectangle
                0x00000000      0x194 ./src/tm/tm_stm32f4_dma2d_graphic.o
 .text.TM_DMA2DGRAPHIC_DrawVerticalLine
                0x00000000      0x180 ./src/tm/tm_stm32f4_dma2d_graphic.o
 .text.TM_DMA2DGRAPHIC_DrawCircle
                0x00000000      0x18c ./src/tm/tm_stm32f4_dma2d_graphic.o
 .text.TM_DMA2DGRAPHIC_DrawHorizontalLine
                0x00000000      0x190 ./src/tm/tm_stm32f4_dma2d_graphic.o
 .text.TM_DMA2DGRAPHIC_DrawRectangle
                0x00000000       0x50 ./src/tm/tm_stm32f4_dma2d_graphic.o
 .text.TM_DMA2DGRAPHIC_DrawLine
                0x00000000       0xd0 ./src/tm/tm_stm32f4_dma2d_graphic.o
 .text.TM_DMA2DGRAPHIC_DrawPolyLine
                0x00000000       0x38 ./src/tm/tm_stm32f4_dma2d_graphic.o
 .text.TM_DMA2DGRAPHIC_DrawTriangle
                0x00000000       0x54 ./src/tm/tm_stm32f4_dma2d_graphic.o
 .text.TM_DMA2DGRAPHIC_DrawFilledTriangle
                0x00000000       0xe4 ./src/tm/tm_stm32f4_dma2d_graphic.o
 .text.TM_DMA2DGRAPHIC_DrawFilledCircle
                0x00000000      0x14c ./src/tm/tm_stm32f4_dma2d_graphic.o
 .text.TM_INT_DMA2DGRAPHIC_SetMemory
                0x00000000       0x24 ./src/tm/tm_stm32f4_dma2d_graphic.o
 .text.TM_INT_DMA2DGRAPHIC_DrawCircleCorner
                0x00000000      0x198 ./src/tm/tm_stm32f4_dma2d_graphic.o
 .text.TM_DMA2DGRAPHIC_DrawRoundedRectangle
                0x00000000      0x12c ./src/tm/tm_stm32f4_dma2d_graphic.o
 .text.TM_INT_DMA2DGRAPHIC_DrawFilledCircleCorner
                0x00000000      0x1c4 ./src/tm/tm_stm32f4_dma2d_graphic.o
 .text.TM_DMA2DGRAPHIC_DrawFilledRoundedRectangle
                0x00000000      0x118 ./src/tm/tm_stm32f4_dma2d_graphic.o
 .debug_info    0x00000000     0x1fdb ./src/tm/tm_stm32f4_dma2d_graphic.o
 .debug_abbrev  0x00000000      0x349 ./src/tm/tm_stm32f4_dma2d_graphic.o
 .debug_loc     0x00000000     0x2285 ./src/tm/tm_stm32f4_dma2d_graphic.o
 .debug_aranges
                0x00000000       0xe0 ./src/tm/tm_stm32f4_dma2d_graphic.o
 .debug_ranges  0x00000000      0x2f0 ./src/tm/tm_stm32f4_dma2d_graphic.o
 .debug_line    0x00000000      0x8cb ./src/tm/tm_stm32f4_dma2d_graphic.o
 .debug_str     0x00000000      0x954 ./src/tm/tm_stm32f4_dma2d_graphic.o
 .comment       0x00000000       0x71 ./src/tm/tm_stm32f4_dma2d_graphic.o
 .debug_frame   0x00000000      0x438 ./src/tm/tm_stm32f4_dma2d_graphic.o
 .ARM.attributes
                0x00000000       0x39 ./src/tm/tm_stm32f4_dma2d_graphic.o
 COMMON         0x00000000       0x1c ./src/tm/tm_stm32f4_dma2d_graphic.o
 .text          0x00000000        0x0 ./src/tm/tm_stm32f4_fonts.o
 .data          0x00000000       0x18 ./src/tm/tm_stm32f4_fonts.o
 .bss           0x00000000        0x0 ./src/tm/tm_stm32f4_fonts.o
 .text.TM_FONTS_GetStringSize
                0x00000000       0x1c ./src/tm/tm_stm32f4_fonts.o
 .rodata        0x00000000     0x2814 ./src/tm/tm_stm32f4_fonts.o
 .debug_info    0x00000000      0x282 ./src/tm/tm_stm32f4_fonts.o
 .debug_abbrev  0x00000000      0x11a ./src/tm/tm_stm32f4_fonts.o
 .debug_loc     0x00000000       0x5a ./src/tm/tm_stm32f4_fonts.o
 .debug_aranges
                0x00000000       0x20 ./src/tm/tm_stm32f4_fonts.o
 .debug_ranges  0x00000000       0x10 ./src/tm/tm_stm32f4_fonts.o
 .debug_line    0x00000000      0x1a0 ./src/tm/tm_stm32f4_fonts.o
 .debug_str     0x00000000      0x2a4 ./src/tm/tm_stm32f4_fonts.o
 .comment       0x00000000       0x71 ./src/tm/tm_stm32f4_fonts.o
 .debug_frame   0x00000000       0x2c ./src/tm/tm_stm32f4_fonts.o
 .ARM.attributes
                0x00000000       0x39 ./src/tm/tm_stm32f4_fonts.o
 .text          0x00000000        0x0 ./src/tm/tm_stm32f4_gpio.o
 .data          0x00000000        0x0 ./src/tm/tm_stm32f4_gpio.o
 .text.TM_GPIO_DeInit
                0x00000000       0x58 ./src/tm/tm_stm32f4_gpio.o
 .text.TM_GPIO_SetPinAsInput
                0x00000000       0x2c ./src/tm/tm_stm32f4_gpio.o
 .text.TM_GPIO_SetPinAsOutput
                0x00000000       0x34 ./src/tm/tm_stm32f4_gpio.o
 .text.TM_GPIO_SetPinAsAnalog
                0x00000000       0x2c ./src/tm/tm_stm32f4_gpio.o
 .text.TM_GPIO_SetPinAsAlternate
                0x00000000       0x34 ./src/tm/tm_stm32f4_gpio.o
 .text.TM_GPIO_SetPullResistor
                0x00000000       0x30 ./src/tm/tm_stm32f4_gpio.o
 .text.TM_GPIO_Lock
                0x00000000       0x10 ./src/tm/tm_stm32f4_gpio.o
 .text.TM_GPIO_GetPinSource
                0x00000000       0x18 ./src/tm/tm_stm32f4_gpio.o
 .text.TM_GPIO_GetPortSource
                0x00000000       0x10 ./src/tm/tm_stm32f4_gpio.o
 .text.TM_GPIO_INT_EnableClock
                0x00000000       0x20 ./src/tm/tm_stm32f4_gpio.o
 .text.TM_GPIO_INT_DisableClock
                0x00000000       0x20 ./src/tm/tm_stm32f4_gpio.o
 .text.TM_GPIO_GetUsedPins
                0x00000000       0x18 ./src/tm/tm_stm32f4_gpio.o
 .text.TM_GPIO_GetFreePins
                0x00000000       0x1c ./src/tm/tm_stm32f4_gpio.o
 .text          0x00000000        0x0 ./src/tm/tm_stm32f4_i2c.o
 .text.TM_I2C_WriteData
                0x00000000       0x34 ./src/tm/tm_stm32f4_i2c.o
 .text.TM_I2C_ReadNoRegister
                0x00000000       0x18 ./src/tm/tm_stm32f4_i2c.o
 .text.TM_I2C_ReadMultiNoRegister
                0x00000000       0x3c ./src/tm/tm_stm32f4_i2c.o
 .text.TM_I2C_Read
                0x00000000       0x58 ./src/tm/tm_stm32f4_i2c.o
 .text.TM_I2C_WriteNoRegister
                0x00000000       0x44 ./src/tm/tm_stm32f4_i2c.o
 .text.TM_I2C_WriteMultiNoRegister
                0x00000000       0x60 ./src/tm/tm_stm32f4_i2c.o
 .text          0x00000000        0x0 ./src/tm/tm_stm32f4_ili9341_button.o
 .data          0x00000000        0x0 ./src/tm/tm_stm32f4_ili9341_button.o
 .bss           0x00000000        0x0 ./src/tm/tm_stm32f4_ili9341_button.o
 .text.LCD_Button_Enable
                0x00000000       0x18 ./src/tm/tm_stm32f4_ili9341_button.o
 .text.LCD_Button_Disable
                0x00000000       0x18 ./src/tm/tm_stm32f4_ili9341_button.o
 .text.LCD_Button_DeleteAll
                0x00000000       0x1c ./src/tm/tm_stm32f4_ili9341_button.o
 .text.LCD_Button_Delete
                0x00000000       0x18 ./src/tm/tm_stm32f4_ili9341_button.o
 .text          0x00000000        0x0 ./src/tm/tm_stm32f4_ili9341_ltdc.o
 .data          0x00000000        0x0 ./src/tm/tm_stm32f4_ili9341_ltdc.o
 .bss           0x00000000        0x0 ./src/tm/tm_stm32f4_ili9341_ltdc.o
 .text.TM_ILI9341_InitPins
                0x00000000       0xf0 ./src/tm/tm_stm32f4_ili9341_ltdc.o
 .text.TM_LCD9341_InitLTDC
                0x00000000       0x84 ./src/tm/tm_stm32f4_ili9341_ltdc.o
 .text.TM_ILI9341_InitLayers
                0x00000000       0xd4 ./src/tm/tm_stm32f4_ili9341_ltdc.o
 .text.TM_ILI9341_SendCommand
                0x00000000       0x58 ./src/tm/tm_stm32f4_ili9341_ltdc.o
 .text.TM_ILI9341_DisplayOn
                0x00000000       0x14 ./src/tm/tm_stm32f4_ili9341_ltdc.o
 .text.TM_ILI9341_DisplayOff
                0x00000000       0x14 ./src/tm/tm_stm32f4_ili9341_ltdc.o
 .text.TM_ILI9341_SendData
                0x00000000       0x58 ./src/tm/tm_stm32f4_ili9341_ltdc.o
 .text.TM_ILI9341_InitLCD
                0x00000000      0x290 ./src/tm/tm_stm32f4_ili9341_ltdc.o
 .text.TM_ILI9341_Init
                0x00000000       0x94 ./src/tm/tm_stm32f4_ili9341_ltdc.o
 .text.TM_ILI9341_DrawPixel
                0x00000000       0x88 ./src/tm/tm_stm32f4_ili9341_ltdc.o
 .text.TM_ILI9341_Fill
                0x00000000       0x24 ./src/tm/tm_stm32f4_ili9341_ltdc.o
 .text.TM_ILI9341_Delay
                0x00000000       0x18 ./src/tm/tm_stm32f4_ili9341_ltdc.o
 .text.TM_ILI9341_Rotate
                0x00000000       0x2c ./src/tm/tm_stm32f4_ili9341_ltdc.o
 .text.TM_ILI9341_SetLayer1
                0x00000000       0x10 ./src/tm/tm_stm32f4_ili9341_ltdc.o
 .text.TM_ILI9341_SetLayer2
                0x00000000       0x14 ./src/tm/tm_stm32f4_ili9341_ltdc.o
 .text.TM_ILI9341_UpdateLayerOpacity
                0x00000000       0x2c ./src/tm/tm_stm32f4_ili9341_ltdc.o
 .text.TM_ILI9341_SetLayer1Opacity
                0x00000000        0xc ./src/tm/tm_stm32f4_ili9341_ltdc.o
 .text.TM_ILI9341_SetLayer2Opacity
                0x00000000        0xc ./src/tm/tm_stm32f4_ili9341_ltdc.o
 .text.TM_ILI9341_ChangeLayers
                0x00000000       0x40 ./src/tm/tm_stm32f4_ili9341_ltdc.o
 .text.TM_ILI9341_Layer2To1
                0x00000000       0x24 ./src/tm/tm_stm32f4_ili9341_ltdc.o
 .text.TM_ILI9341_Layer1To2
                0x00000000       0x24 ./src/tm/tm_stm32f4_ili9341_ltdc.o
 .text.TM_ILI9341_GetStringSize
                0x00000000       0x24 ./src/tm/tm_stm32f4_ili9341_ltdc.o
 .text.TM_ILI9341_Putc
                0x00000000       0xd4 ./src/tm/tm_stm32f4_ili9341_ltdc.o
 .text.TM_ILI9341_Puts
                0x00000000       0x74 ./src/tm/tm_stm32f4_ili9341_ltdc.o
 .text.TM_ILI9341_DrawLine
                0x00000000      0x124 ./src/tm/tm_stm32f4_ili9341_ltdc.o
 .text.TM_ILI9341_DrawRectangle
                0x00000000       0x48 ./src/tm/tm_stm32f4_ili9341_ltdc.o
 .text.TM_ILI9341_DrawFilledRectangle
                0x00000000       0x30 ./src/tm/tm_stm32f4_ili9341_ltdc.o
 .text.TM_ILI9341_DrawCircle
                0x00000000      0x164 ./src/tm/tm_stm32f4_ili9341_ltdc.o
 .text.TM_ILI9341_DrawFilledCircle
                0x00000000      0x144 ./src/tm/tm_stm32f4_ili9341_ltdc.o
 .text.TM_INT_ILI9341_DrawCircleCorner
                0x00000000      0x198 ./src/tm/tm_stm32f4_ili9341_ltdc.o
 .text.TM_ILI9341_DrawRoundedRectangle
                0x00000000      0x10c ./src/tm/tm_stm32f4_ili9341_ltdc.o
 .text.TM_INT_ILI9341_DrawFilledCircleCorner
                0x00000000      0x1c4 ./src/tm/tm_stm32f4_ili9341_ltdc.o
 .text.TM_ILI9341_DrawFilledRoundedRectangle
                0x00000000      0x16c ./src/tm/tm_stm32f4_ili9341_ltdc.o
 .debug_info    0x00000000     0x2df0 ./src/tm/tm_stm32f4_ili9341_ltdc.o
 .debug_abbrev  0x00000000      0x3bc ./src/tm/tm_stm32f4_ili9341_ltdc.o
 .debug_loc     0x00000000     0x137a ./src/tm/tm_stm32f4_ili9341_ltdc.o
 .debug_aranges
                0x00000000      0x120 ./src/tm/tm_stm32f4_ili9341_ltdc.o
 .debug_ranges  0x00000000      0x230 ./src/tm/tm_stm32f4_ili9341_ltdc.o
 .debug_line    0x00000000      0x8ea ./src/tm/tm_stm32f4_ili9341_ltdc.o
 .debug_str     0x00000000      0xe7c ./src/tm/tm_stm32f4_ili9341_ltdc.o
 .comment       0x00000000       0x71 ./src/tm/tm_stm32f4_ili9341_ltdc.o
 .debug_frame   0x00000000      0x498 ./src/tm/tm_stm32f4_ili9341_ltdc.o
 .ARM.attributes
                0x00000000       0x39 ./src/tm/tm_stm32f4_ili9341_ltdc.o
 COMMON         0x00000000       0x16 ./src/tm/tm_stm32f4_ili9341_ltdc.o
 .text          0x00000000        0x0 ./src/tm/tm_stm32f4_sdram.o
 .data          0x00000000        0x0 ./src/tm/tm_stm32f4_sdram.o
 .text          0x00000000        0x0 ./src/tm/tm_stm32f4_spi.o
 .data          0x00000000        0x0 ./src/tm/tm_stm32f4_spi.o
 .bss           0x00000000        0x0 ./src/tm/tm_stm32f4_spi.o
 .text.TM_SPI_GetPrescalerFromMaxFrequency
                0x00000000       0x5c ./src/tm/tm_stm32f4_spi.o
 .text.TM_SPI_SetDataSize
                0x00000000       0x3c ./src/tm/tm_stm32f4_spi.o
 .text.TM_SPI_SendMulti
                0x00000000       0x3c ./src/tm/tm_stm32f4_spi.o
 .text.TM_SPI_WriteMulti
                0x00000000       0x30 ./src/tm/tm_stm32f4_spi.o
 .text.TM_SPI_ReadMulti
                0x00000000       0x38 ./src/tm/tm_stm32f4_spi.o
 .text.TM_SPI_SendMulti16
                0x00000000       0x40 ./src/tm/tm_stm32f4_spi.o
 .text.TM_SPI_WriteMulti16
                0x00000000       0x34 ./src/tm/tm_stm32f4_spi.o
 .text.TM_SPI_ReadMulti16
                0x00000000       0x38 ./src/tm/tm_stm32f4_spi.o
 .text.TM_SPI_InitCustomPinsCallback
                0x00000000        0x4 ./src/tm/tm_stm32f4_spi.o
 .text.TM_SPI1_INT_InitPins
                0x00000000       0x64 ./src/tm/tm_stm32f4_spi.o
 .text.TM_SPI2_INT_InitPins
                0x00000000       0x8c ./src/tm/tm_stm32f4_spi.o
 .text.TM_SPI3_INT_InitPins
                0x00000000       0x64 ./src/tm/tm_stm32f4_spi.o
 .text.TM_SPI4_INT_InitPins
                0x00000000       0x60 ./src/tm/tm_stm32f4_spi.o
 .text.TM_SPI5_INT_InitPins
                0x00000000       0x70 ./src/tm/tm_stm32f4_spi.o
 .text.TM_SPI6_INT_InitPins
                0x00000000       0x44 ./src/tm/tm_stm32f4_spi.o
 .text.TM_SPIx_Init
                0x00000000      0x164 ./src/tm/tm_stm32f4_spi.o
 .text.TM_SPI_Init
                0x00000000       0x8c ./src/tm/tm_stm32f4_spi.o
 .text.TM_SPI_InitWithMode
                0x00000000       0x90 ./src/tm/tm_stm32f4_spi.o
 .text.TM_SPI_InitFull
                0x00000000       0xa0 ./src/tm/tm_stm32f4_spi.o
 .debug_info    0x00000000     0x11cf ./src/tm/tm_stm32f4_spi.o
 .debug_abbrev  0x00000000      0x290 ./src/tm/tm_stm32f4_spi.o
 .debug_loc     0x00000000      0xa20 ./src/tm/tm_stm32f4_spi.o
 .debug_aranges
                0x00000000       0xb0 ./src/tm/tm_stm32f4_spi.o
 .debug_ranges  0x00000000       0xa0 ./src/tm/tm_stm32f4_spi.o
 .debug_line    0x00000000      0x51b ./src/tm/tm_stm32f4_spi.o
 .debug_str     0x00000000      0x85d ./src/tm/tm_stm32f4_spi.o
 .comment       0x00000000       0x71 ./src/tm/tm_stm32f4_spi.o
 .debug_frame   0x00000000      0x2d8 ./src/tm/tm_stm32f4_spi.o
 .ARM.attributes
                0x00000000       0x39 ./src/tm/tm_stm32f4_spi.o
 .text          0x00000000        0x0 ./src/stdio/printf.o
 .bss           0x00000000        0x0 ./src/stdio/printf.o
 .text.PrintChar
                0x00000000        0x4 ./src/stdio/printf.o
 .text.PutChar  0x00000000        0x8 ./src/stdio/printf.o
 .text.PutString
                0x00000000       0x24 ./src/stdio/printf.o
 .text.snprintf
                0x00000000       0x1c ./src/stdio/printf.o
 .text.vsprintf
                0x00000000        0xc ./src/stdio/printf.o
 .text.vfprintf
                0x00000000       0x50 ./src/stdio/printf.o
 .text.vprintf  0x00000000       0x14 ./src/stdio/printf.o
 .text.fprintf  0x00000000       0x1c ./src/stdio/printf.o
 .text.printf   0x00000000       0x28 ./src/stdio/printf.o
 .text.puts     0x00000000       0x14 ./src/stdio/printf.o
 .text.fputc    0x00000000       0x1c ./src/stdio/printf.o
 .text.fputs    0x00000000       0x38 ./src/stdio/printf.o
 .text          0x00000000        0x0 ./src/si570/ui_si570.o
 .data          0x00000000        0x0 ./src/si570/ui_si570.o
 .bss           0x00000000        0x0 ./src/si570/ui_si570.o
 .text.ui_si570_verify_frequency
                0x00000000       0x40 ./src/si570/ui_si570.o
 .text.ui_si570_large_frequency_change
                0x00000000       0xc0 ./src/si570/ui_si570.o
 .text.ui_si570_is_large_change
                0x00000000       0x6c ./src/si570/ui_si570.o
 .text.ui_si570_get_configuration
                0x00000000      0x174 ./src/si570/ui_si570.o
 .text.ui_si570_set_frequency
                0x00000000      0x280 ./src/si570/ui_si570.o
 .text.ui_si570_init_temp_sensor
                0x00000000       0x44 ./src/si570/ui_si570.o
 .text.ui_si570_conv_temp
                0x00000000       0x44 ./src/si570/ui_si570.o
 .text.ui_si570_read_temp
                0x00000000       0x2c ./src/si570/ui_si570.o
 .text.ui_si570_calc_startupfrequency
                0x00000000      0x1e0 ./src/si570/ui_si570.o
 .rodata        0x00000000       0x4c ./src/si570/ui_si570.o
 .debug_info    0x00000000      0xcc4 ./src/si570/ui_si570.o
 .debug_abbrev  0x00000000      0x37b ./src/si570/ui_si570.o
 .debug_loc     0x00000000      0xa27 ./src/si570/ui_si570.o
 .debug_aranges
                0x00000000       0x60 ./src/si570/ui_si570.o
 .debug_ranges  0x00000000       0xd0 ./src/si570/ui_si570.o
 .debug_line    0x00000000      0x48c ./src/si570/ui_si570.o
 .debug_str     0x00000000      0x550 ./src/si570/ui_si570.o
 .comment       0x00000000       0x71 ./src/si570/ui_si570.o
 .debug_frame   0x00000000      0x1e4 ./src/si570/ui_si570.o
 .ARM.attributes
                0x00000000       0x39 ./src/si570/ui_si570.o
 COMMON         0x00000000       0x22 ./src/si570/ui_si570.o
 .text          0x00000000        0x0 ./src/si5351/si5351.o
 .data          0x00000000        0x0 ./src/si5351/si5351.o
 .bss           0x00000000        0x0 ./src/si5351/si5351.o
 .text.Si5351_output_enable
                0x00000000       0x38 ./src/si5351/si5351.o
 .text.Si5351_drive_strength
                0x00000000       0x48 ./src/si5351/si5351.o
 .text.Si5351_update_status
                0x00000000       0x1c ./src/si5351/si5351.o
 .text.Si5351_set_correction
                0x00000000        0xc ./src/si5351/si5351.o
 .text.Si5351_set_phase
                0x00000000       0x10 ./src/si5351/si5351.o
 .text.Si5351_get_correction
                0x00000000        0xc ./src/si5351/si5351.o
 .text.Si5351_pll_reset
                0x00000000       0x1c ./src/si5351/si5351.o
 .text.Si5351_init
                0x00000000       0xa8 ./src/si5351/si5351.o
 .text.Si5351_set_clock_pwr
                0x00000000       0x34 ./src/si5351/si5351.o
 .text.Si5351_set_clock_invert
                0x00000000       0x34 ./src/si5351/si5351.o
 .text.Si5351_set_clock_source
                0x00000000       0x50 ./src/si5351/si5351.o
 .text.Si5351_set_clock_disable
                0x00000000       0x4c ./src/si5351/si5351.o
 .text.Si5351_set_clock_fanout
                0x00000000       0x58 ./src/si5351/si5351.o
 .text.Si5351_write_bulk
                0x00000000        0xc ./src/si5351/si5351.o
 .text.Si5351_write
                0x00000000        0xc ./src/si5351/si5351.o
 .text.Si5351_read
                0x00000000       0x1c ./src/si5351/si5351.o
 .text          0x00000000        0x0 ./src/ra8875/gsl1680.o
 .data          0x00000000        0x0 ./src/ra8875/gsl1680.o
 .bss           0x00000000        0x0 ./src/ra8875/gsl1680.o
 .text.gsl1680_startup_chip
                0x00000000       0x10 ./src/ra8875/gsl1680.o
 .text          0x00000000        0x0 ./src/ra8875/ui_ra8875.o
 .text.LCD_DrawColorPoint
                0x00000000       0x20 ./src/ra8875/ui_ra8875.o
 .text.LCD_BTESize
                0x00000000       0x60 ./src/ra8875/ui_ra8875.o
 .text.LCD_BTESourceDestinationPoints
                0x00000000       0xc0 ./src/ra8875/ui_ra8875.o
 .text.LCD_setRotation
                0x00000000        0x4 ./src/ra8875/ui_ra8875.o
 .text.LCD_DrawPixel
                0x00000000       0x20 ./src/ra8875/ui_ra8875.o
 .text.LCD_Font
                0x00000000       0x18 ./src/ra8875/ui_ra8875.o
 .text.LCD_SetTextWritePosition
                0x00000000       0x60 ./src/ra8875/ui_ra8875.o
 .text.LCD_textColor
                0x00000000       0x70 ./src/ra8875/ui_ra8875.o
 .text.LCD_WriteString
                0x00000000       0x9c ./src/ra8875/ui_ra8875.o
 .text.LCD_cosDeg_helper
                0x00000000       0x3c ./src/ra8875/ui_ra8875.o
 .text.LCD_sinDeg_helper
                0x00000000       0x3c ./src/ra8875/ui_ra8875.o
 .text.map      0x00000000       0x20 ./src/ra8875/ui_ra8875.o
 .text.LCD_PrintTextCentered
                0x00000000       0x8c ./src/ra8875/ui_ra8875.o
 .text          0x00000000        0x0 ./src/ra8875/ui_ra8875_fonts.o
 .data          0x00000000        0x0 ./src/ra8875/ui_ra8875_fonts.o
 .bss           0x00000000        0x0 ./src/ra8875/ui_ra8875_fonts.o
 .text          0x00000000        0x0 ./src/i2c/mchf_hw_i2c.o
 .bss           0x00000000        0x0 ./src/i2c/mchf_hw_i2c.o
 .text.mchf_hw_i2c_init
                0x00000000       0x98 ./src/i2c/mchf_hw_i2c.o
 .text.mchf_hw_i2c_reset
                0x00000000       0x44 ./src/i2c/mchf_hw_i2c.o
 .text.mchf_hw_i2c_ReadData
                0x00000000      0x268 ./src/i2c/mchf_hw_i2c.o
 .text          0x00000000        0x0 ./src/encoder/ui_rotary.o
 .data          0x00000000        0x0 ./src/encoder/ui_rotary.o
 .bss           0x00000000        0x0 ./src/encoder/ui_rotary.o
 .text.UiRotaryEncoderOneInit
                0x00000000       0x94 ./src/encoder/ui_rotary.o
 .text.UiRotaryEncoderThreeInit
                0x00000000       0x8c ./src/encoder/ui_rotary.o
 .text          0x00000000        0x0 ./src/codec/audio.o
 .text          0x00000000        0x0 ./src/codec/codec.o
 .data          0x00000000        0x0 ./src/codec/codec.o
 .bss           0x00000000        0x0 ./src/codec/codec.o
 .text          0x00000000        0x0 ./src/codec/cyclesleep.o
 .data          0x00000000        0xc ./src/codec/cyclesleep.o
 .bss           0x00000000        0x0 ./src/codec/cyclesleep.o
 .text.get_sysclk
                0x00000000       0x14 ./src/codec/cyclesleep.o
 .text.cyccnt_enable
                0x00000000       0x34 ./src/codec/cyclesleep.o
 .text.cyclegoal
                0x00000000       0x10 ./src/codec/cyclesleep.o
 .text.cyclegoal_ms
                0x00000000       0x24 ./src/codec/cyclesleep.o
 .text.cyclecheck
                0x00000000       0x14 ./src/codec/cyclesleep.o
 .text.cyclesleep
                0x00000000       0x14 ./src/codec/cyclesleep.o
 .text.delay    0x00000000       0x2c ./src/codec/cyclesleep.o
 .text.start_meas
                0x00000000       0x20 ./src/codec/cyclesleep.o
 .text.end_meas
                0x00000000       0x20 ./src/codec/cyclesleep.o
 .text.get_meas
                0x00000000       0x18 ./src/codec/cyclesleep.o
 .debug_info    0x00000000      0x429 ./src/codec/cyclesleep.o
 .debug_abbrev  0x00000000      0x1ee ./src/codec/cyclesleep.o
 .debug_loc     0x00000000      0x175 ./src/codec/cyclesleep.o
 .debug_aranges
                0x00000000       0x68 ./src/codec/cyclesleep.o
 .debug_ranges  0x00000000       0xc0 ./src/codec/cyclesleep.o
 .debug_line    0x00000000      0x218 ./src/codec/cyclesleep.o
 .debug_str     0x00000000      0x2dd ./src/codec/cyclesleep.o
 .comment       0x00000000       0x71 ./src/codec/cyclesleep.o
 .debug_frame   0x00000000       0xc8 ./src/codec/cyclesleep.o
 .ARM.attributes
                0x00000000       0x39 ./src/codec/cyclesleep.o
 COMMON         0x00000000       0x10 ./src/codec/cyclesleep.o
 .text          0x00000000        0x0 ./src/codec/i2s.o
 .data          0x00000000        0x0 ./src/codec/i2s.o
 .text.I2S_Block_Stop
                0x00000000       0x5c ./src/codec/i2s.o
 .text          0x00000000        0x0 ./src/button/tm_stm32f4_button.o
 .data          0x00000000        0x0 ./src/button/tm_stm32f4_button.o
 .text.TM_BUTTON_SetPressTime
                0x00000000        0x8 ./src/button/tm_stm32f4_button.o
 .text          0x00000000        0x0 ./src/button/tm_stm32f4_delay.o
 .data          0x00000000        0x0 ./src/button/tm_stm32f4_delay.o
 .text.TM_DELAY_EnableDelayTimer
                0x00000000       0x1c ./src/button/tm_stm32f4_delay.o
 .text.TM_DELAY_DisableDelayTimer
                0x00000000       0x10 ./src/button/tm_stm32f4_delay.o
 .text.TM_DELAY_TimerCreate
                0x00000000       0x48 ./src/button/tm_stm32f4_delay.o
 .text.TM_DELAY_TimerDelete
                0x00000000       0x6c ./src/button/tm_stm32f4_delay.o
 .text.TM_DELAY_TimerStop
                0x00000000        0x8 ./src/button/tm_stm32f4_delay.o
 .text.TM_DELAY_TimerStart
                0x00000000        0x8 ./src/button/tm_stm32f4_delay.o
 .text.TM_DELAY_TimerReset
                0x00000000        0x8 ./src/button/tm_stm32f4_delay.o
 .text.TM_DELAY_TimerAutoReload
                0x00000000        0x4 ./src/button/tm_stm32f4_delay.o
 .text.TM_DELAY_TimerAutoReloadValue
                0x00000000        0x4 ./src/button/tm_stm32f4_delay.o
 .text          0x00000000        0x0 ./src/button/tm_stm32f4_timer_properties.o
 .data          0x00000000        0x0 ./src/button/tm_stm32f4_timer_properties.o
 .bss           0x00000000        0x0 ./src/button/tm_stm32f4_timer_properties.o
 .text.TM_TIMER_PROPERTIES_GetTimerProperties
                0x00000000       0xbc ./src/button/tm_stm32f4_timer_properties.o
 .text.TM_TIMER_PROPERTIES_GenerateDataForWorkingFrequency
                0x00000000       0xa4 ./src/button/tm_stm32f4_timer_properties.o
 .text.TM_TIMER_PROPERTIES_EnableClock
                0x00000000      0x148 ./src/button/tm_stm32f4_timer_properties.o
 .text.TM_TIMER_PROPERTIES_DisableClock
                0x00000000      0x148 ./src/button/tm_stm32f4_timer_properties.o
 .debug_info    0x00000000      0x674 ./src/button/tm_stm32f4_timer_properties.o
 .debug_abbrev  0x00000000      0x15b ./src/button/tm_stm32f4_timer_properties.o
 .debug_loc     0x00000000      0x1c0 ./src/button/tm_stm32f4_timer_properties.o
 .debug_aranges
                0x00000000       0x38 ./src/button/tm_stm32f4_timer_properties.o
 .debug_ranges  0x00000000       0x28 ./src/button/tm_stm32f4_timer_properties.o
 .debug_line    0x00000000      0x2b9 ./src/button/tm_stm32f4_timer_properties.o
 .debug_str     0x00000000      0x5fb ./src/button/tm_stm32f4_timer_properties.o
 .comment       0x00000000       0x71 ./src/button/tm_stm32f4_timer_properties.o
 .debug_frame   0x00000000       0x80 ./src/button/tm_stm32f4_timer_properties.o
 .ARM.attributes
                0x00000000       0x39 ./src/button/tm_stm32f4_timer_properties.o
 .text          0x00000000        0x0 ./src/main.o
 .data          0x00000000        0x0 ./src/main.o
 .text.BUTTON1_EventHandler
                0x00000000       0xf0 ./src/main.o
 .text.BUTTON2_EventHandler
                0x00000000       0x78 ./src/main.o
 .text.BUTTON3_EventHandler
                0x00000000      0x220 ./src/main.o
 .text.BUTTON4_EventHandler
                0x00000000       0x20 ./src/main.o
 .text.BUTTON5_EventHandler
                0x00000000      0x1c8 ./src/main.o
 .text.BUTTON6_EventHandler
                0x00000000       0x44 ./src/main.o
 .text.BUTTON8_EventHandler
                0x00000000       0xec ./src/main.o
 .text          0x00000000        0x0 C:\Users\gmtii\workspace\disco-noFB-noUGUI\libs\libarm_cortexM4lf_math_r4p5.a(arm_const_structs.o)
 .data          0x00000000        0x0 C:\Users\gmtii\workspace\disco-noFB-noUGUI\libs\libarm_cortexM4lf_math_r4p5.a(arm_const_structs.o)
 .bss           0x00000000        0x0 C:\Users\gmtii\workspace\disco-noFB-noUGUI\libs\libarm_cortexM4lf_math_r4p5.a(arm_const_structs.o)
 .rodata.arm_cfft_sR_q15_len1024
                0x00000000       0x10 C:\Users\gmtii\workspace\disco-noFB-noUGUI\libs\libarm_cortexM4lf_math_r4p5.a(arm_const_structs.o)
 .rodata.arm_cfft_sR_q31_len512
                0x00000000       0x10 C:\Users\gmtii\workspace\disco-noFB-noUGUI\libs\libarm_cortexM4lf_math_r4p5.a(arm_const_structs.o)
 .rodata.arm_cfft_sR_q15_len16
                0x00000000       0x10 C:\Users\gmtii\workspace\disco-noFB-noUGUI\libs\libarm_cortexM4lf_math_r4p5.a(arm_const_structs.o)
 .rodata.arm_cfft_sR_f32_len256
                0x00000000       0x10 C:\Users\gmtii\workspace\disco-noFB-noUGUI\libs\libarm_cortexM4lf_math_r4p5.a(arm_const_structs.o)
 .rodata.arm_cfft_sR_f32_len2048
                0x00000000       0x10 C:\Users\gmtii\workspace\disco-noFB-noUGUI\libs\libarm_cortexM4lf_math_r4p5.a(arm_const_structs.o)
 .rodata.arm_cfft_sR_q31_len4096
                0x00000000       0x10 C:\Users\gmtii\workspace\disco-noFB-noUGUI\libs\libarm_cortexM4lf_math_r4p5.a(arm_const_structs.o)
 .rodata.arm_cfft_sR_q15_len32
                0x00000000       0x10 C:\Users\gmtii\workspace\disco-noFB-noUGUI\libs\libarm_cortexM4lf_math_r4p5.a(arm_const_structs.o)
 .rodata.arm_cfft_sR_f32_len16
                0x00000000       0x10 C:\Users\gmtii\workspace\disco-noFB-noUGUI\libs\libarm_cortexM4lf_math_r4p5.a(arm_const_structs.o)
 .rodata.arm_cfft_sR_q15_len4096
                0x00000000       0x10 C:\Users\gmtii\workspace\disco-noFB-noUGUI\libs\libarm_cortexM4lf_math_r4p5.a(arm_const_structs.o)
 .rodata.arm_cfft_sR_q15_len512
                0x00000000       0x10 C:\Users\gmtii\workspace\disco-noFB-noUGUI\libs\libarm_cortexM4lf_math_r4p5.a(arm_const_structs.o)
 .rodata.arm_cfft_sR_f32_len32
                0x00000000       0x10 C:\Users\gmtii\workspace\disco-noFB-noUGUI\libs\libarm_cortexM4lf_math_r4p5.a(arm_const_structs.o)
 .rodata.arm_cfft_sR_f32_len64
                0x00000000       0x10 C:\Users\gmtii\workspace\disco-noFB-noUGUI\libs\libarm_cortexM4lf_math_r4p5.a(arm_const_structs.o)
 .rodata.arm_cfft_sR_q31_len16
                0x00000000       0x10 C:\Users\gmtii\workspace\disco-noFB-noUGUI\libs\libarm_cortexM4lf_math_r4p5.a(arm_const_structs.o)
 .rodata.arm_cfft_sR_q15_len64
                0x00000000       0x10 C:\Users\gmtii\workspace\disco-noFB-noUGUI\libs\libarm_cortexM4lf_math_r4p5.a(arm_const_structs.o)
 .rodata.arm_cfft_sR_q15_len256
                0x00000000       0x10 C:\Users\gmtii\workspace\disco-noFB-noUGUI\libs\libarm_cortexM4lf_math_r4p5.a(arm_const_structs.o)
 .rodata.arm_cfft_sR_q31_len32
                0x00000000       0x10 C:\Users\gmtii\workspace\disco-noFB-noUGUI\libs\libarm_cortexM4lf_math_r4p5.a(arm_const_structs.o)
 .rodata.arm_cfft_sR_q31_len2048
                0x00000000       0x10 C:\Users\gmtii\workspace\disco-noFB-noUGUI\libs\libarm_cortexM4lf_math_r4p5.a(arm_const_structs.o)
 .rodata.arm_cfft_sR_q15_len128
                0x00000000       0x10 C:\Users\gmtii\workspace\disco-noFB-noUGUI\libs\libarm_cortexM4lf_math_r4p5.a(arm_const_structs.o)
 .rodata.arm_cfft_sR_q31_len256
                0x00000000       0x10 C:\Users\gmtii\workspace\disco-noFB-noUGUI\libs\libarm_cortexM4lf_math_r4p5.a(arm_const_structs.o)
 .rodata.arm_cfft_sR_q15_len2048
                0x00000000       0x10 C:\Users\gmtii\workspace\disco-noFB-noUGUI\libs\libarm_cortexM4lf_math_r4p5.a(arm_const_structs.o)
 .rodata.arm_cfft_sR_f32_len128
                0x00000000       0x10 C:\Users\gmtii\workspace\disco-noFB-noUGUI\libs\libarm_cortexM4lf_math_r4p5.a(arm_const_structs.o)
 .rodata.arm_cfft_sR_f32_len512
                0x00000000       0x10 C:\Users\gmtii\workspace\disco-noFB-noUGUI\libs\libarm_cortexM4lf_math_r4p5.a(arm_const_structs.o)
 .rodata.arm_cfft_sR_q31_len1024
                0x00000000       0x10 C:\Users\gmtii\workspace\disco-noFB-noUGUI\libs\libarm_cortexM4lf_math_r4p5.a(arm_const_structs.o)
 .rodata.arm_cfft_sR_f32_len4096
                0x00000000       0x10 C:\Users\gmtii\workspace\disco-noFB-noUGUI\libs\libarm_cortexM4lf_math_r4p5.a(arm_const_structs.o)
 .rodata.arm_cfft_sR_q31_len128
                0x00000000       0x10 C:\Users\gmtii\workspace\disco-noFB-noUGUI\libs\libarm_cortexM4lf_math_r4p5.a(arm_const_structs.o)
 .rodata.arm_cfft_sR_q31_len64
                0x00000000       0x10 C:\Users\gmtii\workspace\disco-noFB-noUGUI\libs\libarm_cortexM4lf_math_r4p5.a(arm_const_structs.o)
 .text          0x00000000        0x0 C:\Users\gmtii\workspace\disco-noFB-noUGUI\libs\libarm_cortexM4lf_math_r4p5.a(arm_common_tables.o)
 .data          0x00000000        0x0 C:\Users\gmtii\workspace\disco-noFB-noUGUI\libs\libarm_cortexM4lf_math_r4p5.a(arm_common_tables.o)
 .bss           0x00000000        0x0 C:\Users\gmtii\workspace\disco-noFB-noUGUI\libs\libarm_cortexM4lf_math_r4p5.a(arm_common_tables.o)
 .rodata.armBitRevIndexTable_fixed_128
                0x00000000       0xe0 C:\Users\gmtii\workspace\disco-noFB-noUGUI\libs\libarm_cortexM4lf_math_r4p5.a(arm_common_tables.o)
 .rodata.twiddleCoef_2048
                0x00000000     0x4000 C:\Users\gmtii\workspace\disco-noFB-noUGUI\libs\libarm_cortexM4lf_math_r4p5.a(arm_common_tables.o)
 .rodata.armBitRevIndexTable_fixed_2048
                0x00000000      0xf80 C:\Users\gmtii\workspace\disco-noFB-noUGUI\libs\libarm_cortexM4lf_math_r4p5.a(arm_common_tables.o)
 .rodata.twiddleCoef_32_q31
                0x00000000       0xc0 C:\Users\gmtii\workspace\disco-noFB-noUGUI\libs\libarm_cortexM4lf_math_r4p5.a(arm_common_tables.o)
 .rodata.armBitRevIndexTable_fixed_4096
                0x00000000     0x1f80 C:\Users\gmtii\workspace\disco-noFB-noUGUI\libs\libarm_cortexM4lf_math_r4p5.a(arm_common_tables.o)
 .rodata.twiddleCoef_rfft_64
                0x00000000      0x100 C:\Users\gmtii\workspace\disco-noFB-noUGUI\libs\libarm_cortexM4lf_math_r4p5.a(arm_common_tables.o)
 .rodata.armBitRevIndexTable64
                0x00000000       0x70 C:\Users\gmtii\workspace\disco-noFB-noUGUI\libs\libarm_cortexM4lf_math_r4p5.a(arm_common_tables.o)
 .rodata.twiddleCoef_rfft_2048
                0x00000000     0x2000 C:\Users\gmtii\workspace\disco-noFB-noUGUI\libs\libarm_cortexM4lf_math_r4p5.a(arm_common_tables.o)
 .rodata.armBitRevIndexTable_fixed_1024
                0x00000000      0x7c0 C:\Users\gmtii\workspace\disco-noFB-noUGUI\libs\libarm_cortexM4lf_math_r4p5.a(arm_common_tables.o)
 .rodata.twiddleCoef_rfft_4096
                0x00000000     0x4000 C:\Users\gmtii\workspace\disco-noFB-noUGUI\libs\libarm_cortexM4lf_math_r4p5.a(arm_common_tables.o)
 .rodata.twiddleCoef_256
                0x00000000      0x800 C:\Users\gmtii\workspace\disco-noFB-noUGUI\libs\libarm_cortexM4lf_math_r4p5.a(arm_common_tables.o)
 .rodata.twiddleCoef_1024_q15
                0x00000000      0xc00 C:\Users\gmtii\workspace\disco-noFB-noUGUI\libs\libarm_cortexM4lf_math_r4p5.a(arm_common_tables.o)
 .rodata.twiddleCoef_1024_q31
                0x00000000     0x1800 C:\Users\gmtii\workspace\disco-noFB-noUGUI\libs\libarm_cortexM4lf_math_r4p5.a(arm_common_tables.o)
 .rodata.twiddleCoef_32_q15
                0x00000000       0x60 C:\Users\gmtii\workspace\disco-noFB-noUGUI\libs\libarm_cortexM4lf_math_r4p5.a(arm_common_tables.o)
 .rodata.twiddleCoef_16
                0x00000000       0x80 C:\Users\gmtii\workspace\disco-noFB-noUGUI\libs\libarm_cortexM4lf_math_r4p5.a(arm_common_tables.o)
 .rodata.twiddleCoef_4096_q15
                0x00000000     0x3000 C:\Users\gmtii\workspace\disco-noFB-noUGUI\libs\libarm_cortexM4lf_math_r4p5.a(arm_common_tables.o)
 .rodata.twiddleCoef_4096_q31
                0x00000000     0x6000 C:\Users\gmtii\workspace\disco-noFB-noUGUI\libs\libarm_cortexM4lf_math_r4p5.a(arm_common_tables.o)
 .rodata.sinTable_q15
                0x00000000      0x402 C:\Users\gmtii\workspace\disco-noFB-noUGUI\libs\libarm_cortexM4lf_math_r4p5.a(arm_common_tables.o)
 .rodata.sinTable_q31
                0x00000000      0x804 C:\Users\gmtii\workspace\disco-noFB-noUGUI\libs\libarm_cortexM4lf_math_r4p5.a(arm_common_tables.o)
 .rodata.twiddleCoef_32
                0x00000000      0x100 C:\Users\gmtii\workspace\disco-noFB-noUGUI\libs\libarm_cortexM4lf_math_r4p5.a(arm_common_tables.o)
 .rodata.twiddleCoef_16_q15
                0x00000000       0x30 C:\Users\gmtii\workspace\disco-noFB-noUGUI\libs\libarm_cortexM4lf_math_r4p5.a(arm_common_tables.o)
 .rodata.twiddleCoef_16_q31
                0x00000000       0x60 C:\Users\gmtii\workspace\disco-noFB-noUGUI\libs\libarm_cortexM4lf_math_r4p5.a(arm_common_tables.o)
 .rodata.armBitRevIndexTable16
                0x00000000       0x28 C:\Users\gmtii\workspace\disco-noFB-noUGUI\libs\libarm_cortexM4lf_math_r4p5.a(arm_common_tables.o)
 .rodata.twiddleCoef_rfft_32
                0x00000000       0x80 C:\Users\gmtii\workspace\disco-noFB-noUGUI\libs\libarm_cortexM4lf_math_r4p5.a(arm_common_tables.o)
 .rodata.armBitRevIndexTable32
                0x00000000       0x60 C:\Users\gmtii\workspace\disco-noFB-noUGUI\libs\libarm_cortexM4lf_math_r4p5.a(arm_common_tables.o)
 .rodata.armBitRevTable
                0x00000000      0x800 C:\Users\gmtii\workspace\disco-noFB-noUGUI\libs\libarm_cortexM4lf_math_r4p5.a(arm_common_tables.o)
 .rodata.twiddleCoef_128
                0x00000000      0x400 C:\Users\gmtii\workspace\disco-noFB-noUGUI\libs\libarm_cortexM4lf_math_r4p5.a(arm_common_tables.o)
 .rodata.twiddleCoef_64_q15
                0x00000000       0xc0 C:\Users\gmtii\workspace\disco-noFB-noUGUI\libs\libarm_cortexM4lf_math_r4p5.a(arm_common_tables.o)
 .rodata.twiddleCoef_2048_q15
                0x00000000     0x1800 C:\Users\gmtii\workspace\disco-noFB-noUGUI\libs\libarm_cortexM4lf_math_r4p5.a(arm_common_tables.o)
 .rodata.twiddleCoef_64_q31
                0x00000000      0x180 C:\Users\gmtii\workspace\disco-noFB-noUGUI\libs\libarm_cortexM4lf_math_r4p5.a(arm_common_tables.o)
 .rodata.twiddleCoef_2048_q31
                0x00000000     0x3000 C:\Users\gmtii\workspace\disco-noFB-noUGUI\libs\libarm_cortexM4lf_math_r4p5.a(arm_common_tables.o)
 .rodata.twiddleCoef_256_q15
                0x00000000      0x300 C:\Users\gmtii\workspace\disco-noFB-noUGUI\libs\libarm_cortexM4lf_math_r4p5.a(arm_common_tables.o)
 .rodata.twiddleCoef_512_q15
                0x00000000      0x600 C:\Users\gmtii\workspace\disco-noFB-noUGUI\libs\libarm_cortexM4lf_math_r4p5.a(arm_common_tables.o)
 .rodata.twiddleCoef_256_q31
                0x00000000      0x600 C:\Users\gmtii\workspace\disco-noFB-noUGUI\libs\libarm_cortexM4lf_math_r4p5.a(arm_common_tables.o)
 .rodata.twiddleCoef_512
                0x00000000     0x1000 C:\Users\gmtii\workspace\disco-noFB-noUGUI\libs\libarm_cortexM4lf_math_r4p5.a(arm_common_tables.o)
 .rodata.twiddleCoef_512_q31
                0x00000000      0xc00 C:\Users\gmtii\workspace\disco-noFB-noUGUI\libs\libarm_cortexM4lf_math_r4p5.a(arm_common_tables.o)
 .rodata.armBitRevIndexTable2048
                0x00000000     0x1dc0 C:\Users\gmtii\workspace\disco-noFB-noUGUI\libs\libarm_cortexM4lf_math_r4p5.a(arm_common_tables.o)
 .rodata.armRecipTableQ15
                0x00000000       0x80 C:\Users\gmtii\workspace\disco-noFB-noUGUI\libs\libarm_cortexM4lf_math_r4p5.a(arm_common_tables.o)
 .rodata.twiddleCoef_64
                0x00000000      0x200 C:\Users\gmtii\workspace\disco-noFB-noUGUI\libs\libarm_cortexM4lf_math_r4p5.a(arm_common_tables.o)
 .rodata.armBitRevIndexTable4096
                0x00000000     0x1f80 C:\Users\gmtii\workspace\disco-noFB-noUGUI\libs\libarm_cortexM4lf_math_r4p5.a(arm_common_tables.o)
 .rodata.armRecipTableQ31
                0x00000000      0x100 C:\Users\gmtii\workspace\disco-noFB-noUGUI\libs\libarm_cortexM4lf_math_r4p5.a(arm_common_tables.o)
 .rodata.twiddleCoef_rfft_512
                0x00000000      0x800 C:\Users\gmtii\workspace\disco-noFB-noUGUI\libs\libarm_cortexM4lf_math_r4p5.a(arm_common_tables.o)
 .rodata.armBitRevIndexTable512
                0x00000000      0x380 C:\Users\gmtii\workspace\disco-noFB-noUGUI\libs\libarm_cortexM4lf_math_r4p5.a(arm_common_tables.o)
 .rodata.armBitRevIndexTable_fixed_512
                0x00000000      0x3c0 C:\Users\gmtii\workspace\disco-noFB-noUGUI\libs\libarm_cortexM4lf_math_r4p5.a(arm_common_tables.o)
 .rodata.armBitRevIndexTable_fixed_16
                0x00000000       0x18 C:\Users\gmtii\workspace\disco-noFB-noUGUI\libs\libarm_cortexM4lf_math_r4p5.a(arm_common_tables.o)
 .rodata.twiddleCoef_128_q15
                0x00000000      0x180 C:\Users\gmtii\workspace\disco-noFB-noUGUI\libs\libarm_cortexM4lf_math_r4p5.a(arm_common_tables.o)
 .rodata.twiddleCoef_rfft_1024
                0x00000000     0x1000 C:\Users\gmtii\workspace\disco-noFB-noUGUI\libs\libarm_cortexM4lf_math_r4p5.a(arm_common_tables.o)
 .rodata.twiddleCoef_rfft_256
                0x00000000      0x400 C:\Users\gmtii\workspace\disco-noFB-noUGUI\libs\libarm_cortexM4lf_math_r4p5.a(arm_common_tables.o)
 .rodata.armBitRevIndexTable256
                0x00000000      0x370 C:\Users\gmtii\workspace\disco-noFB-noUGUI\libs\libarm_cortexM4lf_math_r4p5.a(arm_common_tables.o)
 .rodata.armBitRevIndexTable_fixed_32
                0x00000000       0x30 C:\Users\gmtii\workspace\disco-noFB-noUGUI\libs\libarm_cortexM4lf_math_r4p5.a(arm_common_tables.o)
 .rodata.armBitRevIndexTable_fixed_256
                0x00000000      0x1e0 C:\Users\gmtii\workspace\disco-noFB-noUGUI\libs\libarm_cortexM4lf_math_r4p5.a(arm_common_tables.o)
 .rodata.armBitRevIndexTable_fixed_64
                0x00000000       0x70 C:\Users\gmtii\workspace\disco-noFB-noUGUI\libs\libarm_cortexM4lf_math_r4p5.a(arm_common_tables.o)
 .rodata.twiddleCoef_rfft_128
                0x00000000      0x200 C:\Users\gmtii\workspace\disco-noFB-noUGUI\libs\libarm_cortexM4lf_math_r4p5.a(arm_common_tables.o)
 .rodata.armBitRevIndexTable128
                0x00000000      0x1a0 C:\Users\gmtii\workspace\disco-noFB-noUGUI\libs\libarm_cortexM4lf_math_r4p5.a(arm_common_tables.o)
 .rodata.twiddleCoef_4096
                0x00000000     0x8000 C:\Users\gmtii\workspace\disco-noFB-noUGUI\libs\libarm_cortexM4lf_math_r4p5.a(arm_common_tables.o)
 .rodata.twiddleCoef_128_q31
                0x00000000      0x300 C:\Users\gmtii\workspace\disco-noFB-noUGUI\libs\libarm_cortexM4lf_math_r4p5.a(arm_common_tables.o)
 .text          0x00000000        0x0 C:\Users\gmtii\workspace\disco-noFB-noUGUI\libs\libarm_cortexM4lf_math_r4p5.a(arm_fill_f32.o)
 .data          0x00000000        0x0 C:\Users\gmtii\workspace\disco-noFB-noUGUI\libs\libarm_cortexM4lf_math_r4p5.a(arm_fill_f32.o)
 .bss           0x00000000        0x0 C:\Users\gmtii\workspace\disco-noFB-noUGUI\libs\libarm_cortexM4lf_math_r4p5.a(arm_fill_f32.o)
 .text          0x00000000        0x0 C:\Users\gmtii\workspace\disco-noFB-noUGUI\libs\libarm_cortexM4lf_math_r4p5.a(arm_copy_q15.o)
 .data          0x00000000        0x0 C:\Users\gmtii\workspace\disco-noFB-noUGUI\libs\libarm_cortexM4lf_math_r4p5.a(arm_copy_q15.o)
 .bss           0x00000000        0x0 C:\Users\gmtii\workspace\disco-noFB-noUGUI\libs\libarm_cortexM4lf_math_r4p5.a(arm_copy_q15.o)
 .text          0x00000000        0x0 C:\Users\gmtii\workspace\disco-noFB-noUGUI\libs\libarm_cortexM4lf_math_r4p5.a(arm_copy_f32.o)
 .data          0x00000000        0x0 C:\Users\gmtii\workspace\disco-noFB-noUGUI\libs\libarm_cortexM4lf_math_r4p5.a(arm_copy_f32.o)
 .bss           0x00000000        0x0 C:\Users\gmtii\workspace\disco-noFB-noUGUI\libs\libarm_cortexM4lf_math_r4p5.a(arm_copy_f32.o)
 .text          0x00000000        0x0 C:\Users\gmtii\workspace\disco-noFB-noUGUI\libs\libarm_cortexM4lf_math_r4p5.a(arm_min_q15.o)
 .data          0x00000000        0x0 C:\Users\gmtii\workspace\disco-noFB-noUGUI\libs\libarm_cortexM4lf_math_r4p5.a(arm_min_q15.o)
 .bss           0x00000000        0x0 C:\Users\gmtii\workspace\disco-noFB-noUGUI\libs\libarm_cortexM4lf_math_r4p5.a(arm_min_q15.o)
 .text          0x00000000        0x0 C:\Users\gmtii\workspace\disco-noFB-noUGUI\libs\libarm_cortexM4lf_math_r4p5.a(arm_min_f32.o)
 .data          0x00000000        0x0 C:\Users\gmtii\workspace\disco-noFB-noUGUI\libs\libarm_cortexM4lf_math_r4p5.a(arm_min_f32.o)
 .bss           0x00000000        0x0 C:\Users\gmtii\workspace\disco-noFB-noUGUI\libs\libarm_cortexM4lf_math_r4p5.a(arm_min_f32.o)
 .text          0x00000000        0x0 C:\Users\gmtii\workspace\disco-noFB-noUGUI\libs\libarm_cortexM4lf_math_r4p5.a(arm_mean_q15.o)
 .data          0x00000000        0x0 C:\Users\gmtii\workspace\disco-noFB-noUGUI\libs\libarm_cortexM4lf_math_r4p5.a(arm_mean_q15.o)
 .bss           0x00000000        0x0 C:\Users\gmtii\workspace\disco-noFB-noUGUI\libs\libarm_cortexM4lf_math_r4p5.a(arm_mean_q15.o)
 .text          0x00000000        0x0 C:\Users\gmtii\workspace\disco-noFB-noUGUI\libs\libarm_cortexM4lf_math_r4p5.a(arm_mean_f32.o)
 .data          0x00000000        0x0 C:\Users\gmtii\workspace\disco-noFB-noUGUI\libs\libarm_cortexM4lf_math_r4p5.a(arm_mean_f32.o)
 .bss           0x00000000        0x0 C:\Users\gmtii\workspace\disco-noFB-noUGUI\libs\libarm_cortexM4lf_math_r4p5.a(arm_mean_f32.o)
 .text          0x00000000        0x0 C:\Users\gmtii\workspace\disco-noFB-noUGUI\libs\libarm_cortexM4lf_math_r4p5.a(arm_max_q15.o)
 .data          0x00000000        0x0 C:\Users\gmtii\workspace\disco-noFB-noUGUI\libs\libarm_cortexM4lf_math_r4p5.a(arm_max_q15.o)
 .bss           0x00000000        0x0 C:\Users\gmtii\workspace\disco-noFB-noUGUI\libs\libarm_cortexM4lf_math_r4p5.a(arm_max_q15.o)
 .text          0x00000000        0x0 C:\Users\gmtii\workspace\disco-noFB-noUGUI\libs\libarm_cortexM4lf_math_r4p5.a(arm_max_f32.o)
 .data          0x00000000        0x0 C:\Users\gmtii\workspace\disco-noFB-noUGUI\libs\libarm_cortexM4lf_math_r4p5.a(arm_max_f32.o)
 .bss           0x00000000        0x0 C:\Users\gmtii\workspace\disco-noFB-noUGUI\libs\libarm_cortexM4lf_math_r4p5.a(arm_max_f32.o)
 .text          0x00000000        0x0 C:\Users\gmtii\workspace\disco-noFB-noUGUI\libs\libarm_cortexM4lf_math_r4p5.a(arm_cfft_f32.o)
 .data          0x00000000        0x0 C:\Users\gmtii\workspace\disco-noFB-noUGUI\libs\libarm_cortexM4lf_math_r4p5.a(arm_cfft_f32.o)
 .bss           0x00000000        0x0 C:\Users\gmtii\workspace\disco-noFB-noUGUI\libs\libarm_cortexM4lf_math_r4p5.a(arm_cfft_f32.o)
 .text          0x00000000        0x0 C:\Users\gmtii\workspace\disco-noFB-noUGUI\libs\libarm_cortexM4lf_math_r4p5.a(arm_lms_norm_init_f32.o)
 .data          0x00000000        0x0 C:\Users\gmtii\workspace\disco-noFB-noUGUI\libs\libarm_cortexM4lf_math_r4p5.a(arm_lms_norm_init_f32.o)
 .bss           0x00000000        0x0 C:\Users\gmtii\workspace\disco-noFB-noUGUI\libs\libarm_cortexM4lf_math_r4p5.a(arm_lms_norm_init_f32.o)
 .text          0x00000000        0x0 C:\Users\gmtii\workspace\disco-noFB-noUGUI\libs\libarm_cortexM4lf_math_r4p5.a(arm_lms_norm_f32.o)
 .data          0x00000000        0x0 C:\Users\gmtii\workspace\disco-noFB-noUGUI\libs\libarm_cortexM4lf_math_r4p5.a(arm_lms_norm_f32.o)
 .bss           0x00000000        0x0 C:\Users\gmtii\workspace\disco-noFB-noUGUI\libs\libarm_cortexM4lf_math_r4p5.a(arm_lms_norm_f32.o)
 .text          0x00000000        0x0 C:\Users\gmtii\workspace\disco-noFB-noUGUI\libs\libarm_cortexM4lf_math_r4p5.a(arm_iir_lattice_f32.o)
 .data          0x00000000        0x0 C:\Users\gmtii\workspace\disco-noFB-noUGUI\libs\libarm_cortexM4lf_math_r4p5.a(arm_iir_lattice_f32.o)
 .bss           0x00000000        0x0 C:\Users\gmtii\workspace\disco-noFB-noUGUI\libs\libarm_cortexM4lf_math_r4p5.a(arm_iir_lattice_f32.o)
 .text          0x00000000        0x0 C:\Users\gmtii\workspace\disco-noFB-noUGUI\libs\libarm_cortexM4lf_math_r4p5.a(arm_fir_interpolate_f32.o)
 .data          0x00000000        0x0 C:\Users\gmtii\workspace\disco-noFB-noUGUI\libs\libarm_cortexM4lf_math_r4p5.a(arm_fir_interpolate_f32.o)
 .bss           0x00000000        0x0 C:\Users\gmtii\workspace\disco-noFB-noUGUI\libs\libarm_cortexM4lf_math_r4p5.a(arm_fir_interpolate_f32.o)
 .text          0x00000000        0x0 C:\Users\gmtii\workspace\disco-noFB-noUGUI\libs\libarm_cortexM4lf_math_r4p5.a(arm_fir_init_f32.o)
 .data          0x00000000        0x0 C:\Users\gmtii\workspace\disco-noFB-noUGUI\libs\libarm_cortexM4lf_math_r4p5.a(arm_fir_init_f32.o)
 .bss           0x00000000        0x0 C:\Users\gmtii\workspace\disco-noFB-noUGUI\libs\libarm_cortexM4lf_math_r4p5.a(arm_fir_init_f32.o)
 .text          0x00000000        0x0 C:\Users\gmtii\workspace\disco-noFB-noUGUI\libs\libarm_cortexM4lf_math_r4p5.a(arm_fir_f32.o)
 .data          0x00000000        0x0 C:\Users\gmtii\workspace\disco-noFB-noUGUI\libs\libarm_cortexM4lf_math_r4p5.a(arm_fir_f32.o)
 .bss           0x00000000        0x0 C:\Users\gmtii\workspace\disco-noFB-noUGUI\libs\libarm_cortexM4lf_math_r4p5.a(arm_fir_f32.o)
 .text          0x00000000        0x0 C:\Users\gmtii\workspace\disco-noFB-noUGUI\libs\libarm_cortexM4lf_math_r4p5.a(arm_fir_decimate_f32.o)
 .data          0x00000000        0x0 C:\Users\gmtii\workspace\disco-noFB-noUGUI\libs\libarm_cortexM4lf_math_r4p5.a(arm_fir_decimate_f32.o)
 .bss           0x00000000        0x0 C:\Users\gmtii\workspace\disco-noFB-noUGUI\libs\libarm_cortexM4lf_math_r4p5.a(arm_fir_decimate_f32.o)
 .text          0x00000000        0x0 C:\Users\gmtii\workspace\disco-noFB-noUGUI\libs\libarm_cortexM4lf_math_r4p5.a(arm_cmplx_mag_f32.o)
 .data          0x00000000        0x0 C:\Users\gmtii\workspace\disco-noFB-noUGUI\libs\libarm_cortexM4lf_math_r4p5.a(arm_cmplx_mag_f32.o)
 .bss           0x00000000        0x0 C:\Users\gmtii\workspace\disco-noFB-noUGUI\libs\libarm_cortexM4lf_math_r4p5.a(arm_cmplx_mag_f32.o)
 .text          0x00000000        0x0 C:\Users\gmtii\workspace\disco-noFB-noUGUI\libs\libarm_cortexM4lf_math_r4p5.a(arm_sin_f32.o)
 .data          0x00000000        0x0 C:\Users\gmtii\workspace\disco-noFB-noUGUI\libs\libarm_cortexM4lf_math_r4p5.a(arm_sin_f32.o)
 .bss           0x00000000        0x0 C:\Users\gmtii\workspace\disco-noFB-noUGUI\libs\libarm_cortexM4lf_math_r4p5.a(arm_sin_f32.o)
 .text          0x00000000        0x0 C:\Users\gmtii\workspace\disco-noFB-noUGUI\libs\libarm_cortexM4lf_math_r4p5.a(arm_cos_f32.o)
 .data          0x00000000        0x0 C:\Users\gmtii\workspace\disco-noFB-noUGUI\libs\libarm_cortexM4lf_math_r4p5.a(arm_cos_f32.o)
 .bss           0x00000000        0x0 C:\Users\gmtii\workspace\disco-noFB-noUGUI\libs\libarm_cortexM4lf_math_r4p5.a(arm_cos_f32.o)
 .text          0x00000000        0x0 C:\Users\gmtii\workspace\disco-noFB-noUGUI\libs\libarm_cortexM4lf_math_r4p5.a(arm_sub_f32.o)
 .data          0x00000000        0x0 C:\Users\gmtii\workspace\disco-noFB-noUGUI\libs\libarm_cortexM4lf_math_r4p5.a(arm_sub_f32.o)
 .bss           0x00000000        0x0 C:\Users\gmtii\workspace\disco-noFB-noUGUI\libs\libarm_cortexM4lf_math_r4p5.a(arm_sub_f32.o)
 .text          0x00000000        0x0 C:\Users\gmtii\workspace\disco-noFB-noUGUI\libs\libarm_cortexM4lf_math_r4p5.a(arm_scale_f32.o)
 .data          0x00000000        0x0 C:\Users\gmtii\workspace\disco-noFB-noUGUI\libs\libarm_cortexM4lf_math_r4p5.a(arm_scale_f32.o)
 .bss           0x00000000        0x0 C:\Users\gmtii\workspace\disco-noFB-noUGUI\libs\libarm_cortexM4lf_math_r4p5.a(arm_scale_f32.o)
 .text          0x00000000        0x0 C:\Users\gmtii\workspace\disco-noFB-noUGUI\libs\libarm_cortexM4lf_math_r4p5.a(arm_mult_f32.o)
 .data          0x00000000        0x0 C:\Users\gmtii\workspace\disco-noFB-noUGUI\libs\libarm_cortexM4lf_math_r4p5.a(arm_mult_f32.o)
 .bss           0x00000000        0x0 C:\Users\gmtii\workspace\disco-noFB-noUGUI\libs\libarm_cortexM4lf_math_r4p5.a(arm_mult_f32.o)
 .text          0x00000000        0x0 C:\Users\gmtii\workspace\disco-noFB-noUGUI\libs\libarm_cortexM4lf_math_r4p5.a(arm_add_f32.o)
 .data          0x00000000        0x0 C:\Users\gmtii\workspace\disco-noFB-noUGUI\libs\libarm_cortexM4lf_math_r4p5.a(arm_add_f32.o)
 .bss           0x00000000        0x0 C:\Users\gmtii\workspace\disco-noFB-noUGUI\libs\libarm_cortexM4lf_math_r4p5.a(arm_add_f32.o)
 .data          0x00000000        0x0 C:\Users\gmtii\workspace\disco-noFB-noUGUI\libs\libarm_cortexM4lf_math_r4p5.a(arm_bitreversal2.o)
 .bss           0x00000000        0x0 C:\Users\gmtii\workspace\disco-noFB-noUGUI\libs\libarm_cortexM4lf_math_r4p5.a(arm_bitreversal2.o)
 .text          0x00000000        0x0 C:\Users\gmtii\workspace\disco-noFB-noUGUI\libs\libarm_cortexM4lf_math_r4p5.a(arm_cfft_radix8_f32.o)
 .data          0x00000000        0x0 C:\Users\gmtii\workspace\disco-noFB-noUGUI\libs\libarm_cortexM4lf_math_r4p5.a(arm_cfft_radix8_f32.o)
 .bss           0x00000000        0x0 C:\Users\gmtii\workspace\disco-noFB-noUGUI\libs\libarm_cortexM4lf_math_r4p5.a(arm_cfft_radix8_f32.o)
 .text          0x00000000        0x0 C:\Users\gmtii\workspace\disco-noFB-noUGUI\libs\libm.a(lib_a-s_cos.o)
 .data          0x00000000        0x0 C:\Users\gmtii\workspace\disco-noFB-noUGUI\libs\libm.a(lib_a-s_cos.o)
 .bss           0x00000000        0x0 C:\Users\gmtii\workspace\disco-noFB-noUGUI\libs\libm.a(lib_a-s_cos.o)
 .text          0x00000000        0x0 C:\Users\gmtii\workspace\disco-noFB-noUGUI\libs\libm.a(lib_a-s_pow10.o)
 .data          0x00000000        0x0 C:\Users\gmtii\workspace\disco-noFB-noUGUI\libs\libm.a(lib_a-s_pow10.o)
 .bss           0x00000000        0x0 C:\Users\gmtii\workspace\disco-noFB-noUGUI\libs\libm.a(lib_a-s_pow10.o)
 .text          0x00000000        0x0 C:\Users\gmtii\workspace\disco-noFB-noUGUI\libs\libm.a(lib_a-s_round.o)
 .data          0x00000000        0x0 C:\Users\gmtii\workspace\disco-noFB-noUGUI\libs\libm.a(lib_a-s_round.o)
 .bss           0x00000000        0x0 C:\Users\gmtii\workspace\disco-noFB-noUGUI\libs\libm.a(lib_a-s_round.o)
 .text          0x00000000        0x0 C:\Users\gmtii\workspace\disco-noFB-noUGUI\libs\libm.a(lib_a-s_sin.o)
 .data          0x00000000        0x0 C:\Users\gmtii\workspace\disco-noFB-noUGUI\libs\libm.a(lib_a-s_sin.o)
 .bss           0x00000000        0x0 C:\Users\gmtii\workspace\disco-noFB-noUGUI\libs\libm.a(lib_a-s_sin.o)
 .text          0x00000000        0x0 C:\Users\gmtii\workspace\disco-noFB-noUGUI\libs\libm.a(lib_a-sf_ceil.o)
 .data          0x00000000        0x0 C:\Users\gmtii\workspace\disco-noFB-noUGUI\libs\libm.a(lib_a-sf_ceil.o)
 .bss           0x00000000        0x0 C:\Users\gmtii\workspace\disco-noFB-noUGUI\libs\libm.a(lib_a-sf_ceil.o)
 .text.ceilf    0x00000000       0x94 C:\Users\gmtii\workspace\disco-noFB-noUGUI\libs\libm.a(lib_a-sf_ceil.o)
 .ARM.attributes
                0x00000000       0x36 C:\Users\gmtii\workspace\disco-noFB-noUGUI\libs\libm.a(lib_a-sf_ceil.o)
 .debug_frame   0x00000000       0x28 C:\Users\gmtii\workspace\disco-noFB-noUGUI\libs\libm.a(lib_a-sf_ceil.o)
 .text          0x00000000        0x0 C:\Users\gmtii\workspace\disco-noFB-noUGUI\libs\libm.a(lib_a-sf_floor.o)
 .data          0x00000000        0x0 C:\Users\gmtii\workspace\disco-noFB-noUGUI\libs\libm.a(lib_a-sf_floor.o)
 .bss           0x00000000        0x0 C:\Users\gmtii\workspace\disco-noFB-noUGUI\libs\libm.a(lib_a-sf_floor.o)
 .text.floorf   0x00000000       0x9c C:\Users\gmtii\workspace\disco-noFB-noUGUI\libs\libm.a(lib_a-sf_floor.o)
 .ARM.attributes
                0x00000000       0x36 C:\Users\gmtii\workspace\disco-noFB-noUGUI\libs\libm.a(lib_a-sf_floor.o)
 .debug_frame   0x00000000       0x28 C:\Users\gmtii\workspace\disco-noFB-noUGUI\libs\libm.a(lib_a-sf_floor.o)
 .text          0x00000000        0x0 C:\Users\gmtii\workspace\disco-noFB-noUGUI\libs\libm.a(lib_a-sf_round.o)
 .data          0x00000000        0x0 C:\Users\gmtii\workspace\disco-noFB-noUGUI\libs\libm.a(lib_a-sf_round.o)
 .bss           0x00000000        0x0 C:\Users\gmtii\workspace\disco-noFB-noUGUI\libs\libm.a(lib_a-sf_round.o)
 .text.roundf   0x00000000       0x5c C:\Users\gmtii\workspace\disco-noFB-noUGUI\libs\libm.a(lib_a-sf_round.o)
 .ARM.attributes
                0x00000000       0x36 C:\Users\gmtii\workspace\disco-noFB-noUGUI\libs\libm.a(lib_a-sf_round.o)
 .debug_frame   0x00000000       0x20 C:\Users\gmtii\workspace\disco-noFB-noUGUI\libs\libm.a(lib_a-sf_round.o)
 .text          0x00000000        0x0 C:\Users\gmtii\workspace\disco-noFB-noUGUI\libs\libm.a(lib_a-w_log10.o)
 .data          0x00000000        0x0 C:\Users\gmtii\workspace\disco-noFB-noUGUI\libs\libm.a(lib_a-w_log10.o)
 .bss           0x00000000        0x0 C:\Users\gmtii\workspace\disco-noFB-noUGUI\libs\libm.a(lib_a-w_log10.o)
 .text          0x00000000        0x0 C:\Users\gmtii\workspace\disco-noFB-noUGUI\libs\libm.a(lib_a-w_pow.o)
 .data          0x00000000        0x0 C:\Users\gmtii\workspace\disco-noFB-noUGUI\libs\libm.a(lib_a-w_pow.o)
 .bss           0x00000000        0x0 C:\Users\gmtii\workspace\disco-noFB-noUGUI\libs\libm.a(lib_a-w_pow.o)
 .text          0x00000000        0x0 C:\Users\gmtii\workspace\disco-noFB-noUGUI\libs\libm.a(lib_a-w_sqrt.o)
 .data          0x00000000        0x0 C:\Users\gmtii\workspace\disco-noFB-noUGUI\libs\libm.a(lib_a-w_sqrt.o)
 .bss           0x00000000        0x0 C:\Users\gmtii\workspace\disco-noFB-noUGUI\libs\libm.a(lib_a-w_sqrt.o)
 .text          0x00000000        0x0 C:\Users\gmtii\workspace\disco-noFB-noUGUI\libs\libm.a(lib_a-wf_log10.o)
 .data          0x00000000        0x0 C:\Users\gmtii\workspace\disco-noFB-noUGUI\libs\libm.a(lib_a-wf_log10.o)
 .bss           0x00000000        0x0 C:\Users\gmtii\workspace\disco-noFB-noUGUI\libs\libm.a(lib_a-wf_log10.o)
 .text          0x00000000        0x0 C:\Users\gmtii\workspace\disco-noFB-noUGUI\libs\libm.a(lib_a-wf_pow.o)
 .data          0x00000000        0x0 C:\Users\gmtii\workspace\disco-noFB-noUGUI\libs\libm.a(lib_a-wf_pow.o)
 .bss           0x00000000        0x0 C:\Users\gmtii\workspace\disco-noFB-noUGUI\libs\libm.a(lib_a-wf_pow.o)
 .text          0x00000000        0x0 C:\Users\gmtii\workspace\disco-noFB-noUGUI\libs\libm.a(lib_a-wf_sqrt.o)
 .data          0x00000000        0x0 C:\Users\gmtii\workspace\disco-noFB-noUGUI\libs\libm.a(lib_a-wf_sqrt.o)
 .bss           0x00000000        0x0 C:\Users\gmtii\workspace\disco-noFB-noUGUI\libs\libm.a(lib_a-wf_sqrt.o)
 .text          0x00000000        0x0 C:\Users\gmtii\workspace\disco-noFB-noUGUI\libs\libm.a(lib_a-e_log10.o)
 .data          0x00000000        0x0 C:\Users\gmtii\workspace\disco-noFB-noUGUI\libs\libm.a(lib_a-e_log10.o)
 .bss           0x00000000        0x0 C:\Users\gmtii\workspace\disco-noFB-noUGUI\libs\libm.a(lib_a-e_log10.o)
 .text          0x00000000        0x0 C:\Users\gmtii\workspace\disco-noFB-noUGUI\libs\libm.a(lib_a-e_pow.o)
 .data          0x00000000        0x0 C:\Users\gmtii\workspace\disco-noFB-noUGUI\libs\libm.a(lib_a-e_pow.o)
 .bss           0x00000000        0x0 C:\Users\gmtii\workspace\disco-noFB-noUGUI\libs\libm.a(lib_a-e_pow.o)
 .text          0x00000000        0x0 C:\Users\gmtii\workspace\disco-noFB-noUGUI\libs\libm.a(lib_a-e_rem_pio2.o)
 .data          0x00000000        0x0 C:\Users\gmtii\workspace\disco-noFB-noUGUI\libs\libm.a(lib_a-e_rem_pio2.o)
 .bss           0x00000000        0x0 C:\Users\gmtii\workspace\disco-noFB-noUGUI\libs\libm.a(lib_a-e_rem_pio2.o)
 .text          0x00000000        0x0 C:\Users\gmtii\workspace\disco-noFB-noUGUI\libs\libm.a(lib_a-e_sqrt.o)
 .data          0x00000000        0x0 C:\Users\gmtii\workspace\disco-noFB-noUGUI\libs\libm.a(lib_a-e_sqrt.o)
 .bss           0x00000000        0x0 C:\Users\gmtii\workspace\disco-noFB-noUGUI\libs\libm.a(lib_a-e_sqrt.o)
 .text          0x00000000        0x0 C:\Users\gmtii\workspace\disco-noFB-noUGUI\libs\libm.a(lib_a-ef_log10.o)
 .data          0x00000000        0x0 C:\Users\gmtii\workspace\disco-noFB-noUGUI\libs\libm.a(lib_a-ef_log10.o)
 .bss           0x00000000        0x0 C:\Users\gmtii\workspace\disco-noFB-noUGUI\libs\libm.a(lib_a-ef_log10.o)
 .text          0x00000000        0x0 C:\Users\gmtii\workspace\disco-noFB-noUGUI\libs\libm.a(lib_a-ef_pow.o)
 .data          0x00000000        0x0 C:\Users\gmtii\workspace\disco-noFB-noUGUI\libs\libm.a(lib_a-ef_pow.o)
 .bss           0x00000000        0x0 C:\Users\gmtii\workspace\disco-noFB-noUGUI\libs\libm.a(lib_a-ef_pow.o)
 .text          0x00000000        0x0 C:\Users\gmtii\workspace\disco-noFB-noUGUI\libs\libm.a(lib_a-ef_sqrt.o)
 .data          0x00000000        0x0 C:\Users\gmtii\workspace\disco-noFB-noUGUI\libs\libm.a(lib_a-ef_sqrt.o)
 .bss           0x00000000        0x0 C:\Users\gmtii\workspace\disco-noFB-noUGUI\libs\libm.a(lib_a-ef_sqrt.o)
 .text          0x00000000        0x0 C:\Users\gmtii\workspace\disco-noFB-noUGUI\libs\libm.a(lib_a-k_cos.o)
 .data          0x00000000        0x0 C:\Users\gmtii\workspace\disco-noFB-noUGUI\libs\libm.a(lib_a-k_cos.o)
 .bss           0x00000000        0x0 C:\Users\gmtii\workspace\disco-noFB-noUGUI\libs\libm.a(lib_a-k_cos.o)
 .text          0x00000000        0x0 C:\Users\gmtii\workspace\disco-noFB-noUGUI\libs\libm.a(lib_a-k_rem_pio2.o)
 .data          0x00000000        0x0 C:\Users\gmtii\workspace\disco-noFB-noUGUI\libs\libm.a(lib_a-k_rem_pio2.o)
 .bss           0x00000000        0x0 C:\Users\gmtii\workspace\disco-noFB-noUGUI\libs\libm.a(lib_a-k_rem_pio2.o)
 .text          0x00000000        0x0 C:\Users\gmtii\workspace\disco-noFB-noUGUI\libs\libm.a(lib_a-k_sin.o)
 .data          0x00000000        0x0 C:\Users\gmtii\workspace\disco-noFB-noUGUI\libs\libm.a(lib_a-k_sin.o)
 .bss           0x00000000        0x0 C:\Users\gmtii\workspace\disco-noFB-noUGUI\libs\libm.a(lib_a-k_sin.o)
 .text          0x00000000        0x0 C:\Users\gmtii\workspace\disco-noFB-noUGUI\libs\libm.a(lib_a-s_fabs.o)
 .data          0x00000000        0x0 C:\Users\gmtii\workspace\disco-noFB-noUGUI\libs\libm.a(lib_a-s_fabs.o)
 .bss           0x00000000        0x0 C:\Users\gmtii\workspace\disco-noFB-noUGUI\libs\libm.a(lib_a-s_fabs.o)
 .text          0x00000000        0x0 C:\Users\gmtii\workspace\disco-noFB-noUGUI\libs\libm.a(lib_a-s_finite.o)
 .data          0x00000000        0x0 C:\Users\gmtii\workspace\disco-noFB-noUGUI\libs\libm.a(lib_a-s_finite.o)
 .bss           0x00000000        0x0 C:\Users\gmtii\workspace\disco-noFB-noUGUI\libs\libm.a(lib_a-s_finite.o)
 .text          0x00000000        0x0 C:\Users\gmtii\workspace\disco-noFB-noUGUI\libs\libm.a(lib_a-s_floor.o)
 .data          0x00000000        0x0 C:\Users\gmtii\workspace\disco-noFB-noUGUI\libs\libm.a(lib_a-s_floor.o)
 .bss           0x00000000        0x0 C:\Users\gmtii\workspace\disco-noFB-noUGUI\libs\libm.a(lib_a-s_floor.o)
 .text          0x00000000        0x0 C:\Users\gmtii\workspace\disco-noFB-noUGUI\libs\libm.a(lib_a-s_fpclassify.o)
 .data          0x00000000        0x0 C:\Users\gmtii\workspace\disco-noFB-noUGUI\libs\libm.a(lib_a-s_fpclassify.o)
 .bss           0x00000000        0x0 C:\Users\gmtii\workspace\disco-noFB-noUGUI\libs\libm.a(lib_a-s_fpclassify.o)
 .text          0x00000000        0x0 C:\Users\gmtii\workspace\disco-noFB-noUGUI\libs\libm.a(lib_a-s_lib_ver.o)
 .data          0x00000000        0x0 C:\Users\gmtii\workspace\disco-noFB-noUGUI\libs\libm.a(lib_a-s_lib_ver.o)
 .bss           0x00000000        0x0 C:\Users\gmtii\workspace\disco-noFB-noUGUI\libs\libm.a(lib_a-s_lib_ver.o)
 .text          0x00000000        0x0 C:\Users\gmtii\workspace\disco-noFB-noUGUI\libs\libm.a(lib_a-s_matherr.o)
 .data          0x00000000        0x0 C:\Users\gmtii\workspace\disco-noFB-noUGUI\libs\libm.a(lib_a-s_matherr.o)
 .bss           0x00000000        0x0 C:\Users\gmtii\workspace\disco-noFB-noUGUI\libs\libm.a(lib_a-s_matherr.o)
 .text          0x00000000        0x0 C:\Users\gmtii\workspace\disco-noFB-noUGUI\libs\libm.a(lib_a-s_nan.o)
 .data          0x00000000        0x0 C:\Users\gmtii\workspace\disco-noFB-noUGUI\libs\libm.a(lib_a-s_nan.o)
 .bss           0x00000000        0x0 C:\Users\gmtii\workspace\disco-noFB-noUGUI\libs\libm.a(lib_a-s_nan.o)
 .text          0x00000000        0x0 C:\Users\gmtii\workspace\disco-noFB-noUGUI\libs\libm.a(lib_a-s_rint.o)
 .data          0x00000000        0x0 C:\Users\gmtii\workspace\disco-noFB-noUGUI\libs\libm.a(lib_a-s_rint.o)
 .bss           0x00000000        0x0 C:\Users\gmtii\workspace\disco-noFB-noUGUI\libs\libm.a(lib_a-s_rint.o)
 .text          0x00000000        0x0 C:\Users\gmtii\workspace\disco-noFB-noUGUI\libs\libm.a(lib_a-s_scalbn.o)
 .data          0x00000000        0x0 C:\Users\gmtii\workspace\disco-noFB-noUGUI\libs\libm.a(lib_a-s_scalbn.o)
 .bss           0x00000000        0x0 C:\Users\gmtii\workspace\disco-noFB-noUGUI\libs\libm.a(lib_a-s_scalbn.o)
 .text          0x00000000        0x0 C:\Users\gmtii\workspace\disco-noFB-noUGUI\libs\libm.a(lib_a-sf_fabs.o)
 .data          0x00000000        0x0 C:\Users\gmtii\workspace\disco-noFB-noUGUI\libs\libm.a(lib_a-sf_fabs.o)
 .bss           0x00000000        0x0 C:\Users\gmtii\workspace\disco-noFB-noUGUI\libs\libm.a(lib_a-sf_fabs.o)
 .text          0x00000000        0x0 C:\Users\gmtii\workspace\disco-noFB-noUGUI\libs\libm.a(lib_a-sf_finite.o)
 .data          0x00000000        0x0 C:\Users\gmtii\workspace\disco-noFB-noUGUI\libs\libm.a(lib_a-sf_finite.o)
 .bss           0x00000000        0x0 C:\Users\gmtii\workspace\disco-noFB-noUGUI\libs\libm.a(lib_a-sf_finite.o)
 .text          0x00000000        0x0 C:\Users\gmtii\workspace\disco-noFB-noUGUI\libs\libm.a(lib_a-sf_fpclassify.o)
 .data          0x00000000        0x0 C:\Users\gmtii\workspace\disco-noFB-noUGUI\libs\libm.a(lib_a-sf_fpclassify.o)
 .bss           0x00000000        0x0 C:\Users\gmtii\workspace\disco-noFB-noUGUI\libs\libm.a(lib_a-sf_fpclassify.o)
 .text          0x00000000        0x0 C:\Users\gmtii\workspace\disco-noFB-noUGUI\libs\libm.a(lib_a-sf_nan.o)
 .data          0x00000000        0x0 C:\Users\gmtii\workspace\disco-noFB-noUGUI\libs\libm.a(lib_a-sf_nan.o)
 .bss           0x00000000        0x0 C:\Users\gmtii\workspace\disco-noFB-noUGUI\libs\libm.a(lib_a-sf_nan.o)
 .text          0x00000000        0x0 C:\Users\gmtii\workspace\disco-noFB-noUGUI\libs\libm.a(lib_a-sf_scalbn.o)
 .data          0x00000000        0x0 C:\Users\gmtii\workspace\disco-noFB-noUGUI\libs\libm.a(lib_a-sf_scalbn.o)
 .bss           0x00000000        0x0 C:\Users\gmtii\workspace\disco-noFB-noUGUI\libs\libm.a(lib_a-sf_scalbn.o)
 .text          0x00000000        0x0 C:\Users\gmtii\workspace\disco-noFB-noUGUI\libs\libm.a(lib_a-e_log.o)
 .data          0x00000000        0x0 C:\Users\gmtii\workspace\disco-noFB-noUGUI\libs\libm.a(lib_a-e_log.o)
 .bss           0x00000000        0x0 C:\Users\gmtii\workspace\disco-noFB-noUGUI\libs\libm.a(lib_a-e_log.o)
 .text          0x00000000        0x0 C:\Users\gmtii\workspace\disco-noFB-noUGUI\libs\libm.a(lib_a-ef_log.o)
 .data          0x00000000        0x0 C:\Users\gmtii\workspace\disco-noFB-noUGUI\libs\libm.a(lib_a-ef_log.o)
 .bss           0x00000000        0x0 C:\Users\gmtii\workspace\disco-noFB-noUGUI\libs\libm.a(lib_a-ef_log.o)
 .text          0x00000000        0x0 C:\Users\gmtii\workspace\disco-noFB-noUGUI\libs\libm.a(lib_a-s_copysign.o)
 .data          0x00000000        0x0 C:\Users\gmtii\workspace\disco-noFB-noUGUI\libs\libm.a(lib_a-s_copysign.o)
 .bss           0x00000000        0x0 C:\Users\gmtii\workspace\disco-noFB-noUGUI\libs\libm.a(lib_a-s_copysign.o)
 .text          0x00000000        0x0 C:\Users\gmtii\workspace\disco-noFB-noUGUI\libs\libm.a(lib_a-sf_copysign.o)
 .data          0x00000000        0x0 C:\Users\gmtii\workspace\disco-noFB-noUGUI\libs\libm.a(lib_a-sf_copysign.o)
 .bss           0x00000000        0x0 C:\Users\gmtii\workspace\disco-noFB-noUGUI\libs\libm.a(lib_a-sf_copysign.o)
 .data          0x00000000        0x0 d:/stm32/gcc/bin/../lib/gcc/arm-none-eabi/4.9.3/armv7e-m/fpu\libgcc.a(_arm_addsubdf3.o)
 .bss           0x00000000        0x0 d:/stm32/gcc/bin/../lib/gcc/arm-none-eabi/4.9.3/armv7e-m/fpu\libgcc.a(_arm_addsubdf3.o)
 .data          0x00000000        0x0 d:/stm32/gcc/bin/../lib/gcc/arm-none-eabi/4.9.3/armv7e-m/fpu\libgcc.a(_arm_muldivdf3.o)
 .bss           0x00000000        0x0 d:/stm32/gcc/bin/../lib/gcc/arm-none-eabi/4.9.3/armv7e-m/fpu\libgcc.a(_arm_muldivdf3.o)
 .data          0x00000000        0x0 d:/stm32/gcc/bin/../lib/gcc/arm-none-eabi/4.9.3/armv7e-m/fpu\libgcc.a(_arm_cmpdf2.o)
 .bss           0x00000000        0x0 d:/stm32/gcc/bin/../lib/gcc/arm-none-eabi/4.9.3/armv7e-m/fpu\libgcc.a(_arm_cmpdf2.o)
 .data          0x00000000        0x0 d:/stm32/gcc/bin/../lib/gcc/arm-none-eabi/4.9.3/armv7e-m/fpu\libgcc.a(_arm_fixdfsi.o)
 .bss           0x00000000        0x0 d:/stm32/gcc/bin/../lib/gcc/arm-none-eabi/4.9.3/armv7e-m/fpu\libgcc.a(_arm_fixdfsi.o)
 .data          0x00000000        0x0 d:/stm32/gcc/bin/../lib/gcc/arm-none-eabi/4.9.3/armv7e-m/fpu\libgcc.a(_arm_fixunsdfsi.o)
 .bss           0x00000000        0x0 d:/stm32/gcc/bin/../lib/gcc/arm-none-eabi/4.9.3/armv7e-m/fpu\libgcc.a(_arm_fixunsdfsi.o)
 .data          0x00000000        0x0 d:/stm32/gcc/bin/../lib/gcc/arm-none-eabi/4.9.3/armv7e-m/fpu\libgcc.a(_arm_truncdfsf2.o)
 .bss           0x00000000        0x0 d:/stm32/gcc/bin/../lib/gcc/arm-none-eabi/4.9.3/armv7e-m/fpu\libgcc.a(_arm_truncdfsf2.o)
 .data          0x00000000        0x0 d:/stm32/gcc/bin/../lib/gcc/arm-none-eabi/4.9.3/armv7e-m/fpu\libgcc.a(_aeabi_uldivmod.o)
 .bss           0x00000000        0x0 d:/stm32/gcc/bin/../lib/gcc/arm-none-eabi/4.9.3/armv7e-m/fpu\libgcc.a(_aeabi_uldivmod.o)
 .data          0x00000000        0x0 d:/stm32/gcc/bin/../lib/gcc/arm-none-eabi/4.9.3/armv7e-m/fpu\libgcc.a(bpabi.o)
 .bss           0x00000000        0x0 d:/stm32/gcc/bin/../lib/gcc/arm-none-eabi/4.9.3/armv7e-m/fpu\libgcc.a(bpabi.o)
 .data          0x00000000        0x0 d:/stm32/gcc/bin/../lib/gcc/arm-none-eabi/4.9.3/armv7e-m/fpu\libgcc.a(_dvmd_tls.o)
 .bss           0x00000000        0x0 d:/stm32/gcc/bin/../lib/gcc/arm-none-eabi/4.9.3/armv7e-m/fpu\libgcc.a(_dvmd_tls.o)
 .data          0x00000000        0x0 d:/stm32/gcc/bin/../lib/gcc/arm-none-eabi/4.9.3/armv7e-m/fpu\libgcc.a(_divdi3.o)
 .bss           0x00000000        0x0 d:/stm32/gcc/bin/../lib/gcc/arm-none-eabi/4.9.3/armv7e-m/fpu\libgcc.a(_divdi3.o)
 .ARM.extab     0x00000000        0x0 d:/stm32/gcc/bin/../lib/gcc/arm-none-eabi/4.9.3/armv7e-m/fpu\libgcc.a(_divdi3.o)
 .data          0x00000000        0x0 d:/stm32/gcc/bin/../lib/gcc/arm-none-eabi/4.9.3/armv7e-m/fpu\libgcc.a(_udivdi3.o)
 .bss           0x00000000        0x0 d:/stm32/gcc/bin/../lib/gcc/arm-none-eabi/4.9.3/armv7e-m/fpu\libgcc.a(_udivdi3.o)
 .ARM.extab     0x00000000        0x0 d:/stm32/gcc/bin/../lib/gcc/arm-none-eabi/4.9.3/armv7e-m/fpu\libgcc.a(_udivdi3.o)
 .text          0x00000000        0x0 d:/stm32/gcc/bin/../lib/gcc/arm-none-eabi/4.9.3/../../../../arm-none-eabi/lib/armv7e-m/fpu\libg_nano.a(lib_a-errno.o)
 .data          0x00000000        0x0 d:/stm32/gcc/bin/../lib/gcc/arm-none-eabi/4.9.3/../../../../arm-none-eabi/lib/armv7e-m/fpu\libg_nano.a(lib_a-errno.o)
 .bss           0x00000000        0x0 d:/stm32/gcc/bin/../lib/gcc/arm-none-eabi/4.9.3/../../../../arm-none-eabi/lib/armv7e-m/fpu\libg_nano.a(lib_a-errno.o)
 .text          0x00000000        0x0 d:/stm32/gcc/bin/../lib/gcc/arm-none-eabi/4.9.3/../../../../arm-none-eabi/lib/armv7e-m/fpu\libg_nano.a(lib_a-malloc.o)
 .data          0x00000000        0x0 d:/stm32/gcc/bin/../lib/gcc/arm-none-eabi/4.9.3/../../../../arm-none-eabi/lib/armv7e-m/fpu\libg_nano.a(lib_a-malloc.o)
 .bss           0x00000000        0x0 d:/stm32/gcc/bin/../lib/gcc/arm-none-eabi/4.9.3/../../../../arm-none-eabi/lib/armv7e-m/fpu\libg_nano.a(lib_a-malloc.o)
 .text.free     0x00000000       0x10 d:/stm32/gcc/bin/../lib/gcc/arm-none-eabi/4.9.3/../../../../arm-none-eabi/lib/armv7e-m/fpu\libg_nano.a(lib_a-malloc.o)
 .text          0x00000000        0x0 d:/stm32/gcc/bin/../lib/gcc/arm-none-eabi/4.9.3/../../../../arm-none-eabi/lib/armv7e-m/fpu\libg_nano.a(lib_a-memcmp.o)
 .data          0x00000000        0x0 d:/stm32/gcc/bin/../lib/gcc/arm-none-eabi/4.9.3/../../../../arm-none-eabi/lib/armv7e-m/fpu\libg_nano.a(lib_a-memcmp.o)
 .bss           0x00000000        0x0 d:/stm32/gcc/bin/../lib/gcc/arm-none-eabi/4.9.3/../../../../arm-none-eabi/lib/armv7e-m/fpu\libg_nano.a(lib_a-memcmp.o)
 .text.memcmp   0x00000000       0x20 d:/stm32/gcc/bin/../lib/gcc/arm-none-eabi/4.9.3/../../../../arm-none-eabi/lib/armv7e-m/fpu\libg_nano.a(lib_a-memcmp.o)
 .debug_frame   0x00000000       0x28 d:/stm32/gcc/bin/../lib/gcc/arm-none-eabi/4.9.3/../../../../arm-none-eabi/lib/armv7e-m/fpu\libg_nano.a(lib_a-memcmp.o)
 .ARM.attributes
                0x00000000       0x34 d:/stm32/gcc/bin/../lib/gcc/arm-none-eabi/4.9.3/../../../../arm-none-eabi/lib/armv7e-m/fpu\libg_nano.a(lib_a-memcmp.o)
 .text          0x00000000        0x0 d:/stm32/gcc/bin/../lib/gcc/arm-none-eabi/4.9.3/../../../../arm-none-eabi/lib/armv7e-m/fpu\libg_nano.a(lib_a-memset.o)
 .data          0x00000000        0x0 d:/stm32/gcc/bin/../lib/gcc/arm-none-eabi/4.9.3/../../../../arm-none-eabi/lib/armv7e-m/fpu\libg_nano.a(lib_a-memset.o)
 .bss           0x00000000        0x0 d:/stm32/gcc/bin/../lib/gcc/arm-none-eabi/4.9.3/../../../../arm-none-eabi/lib/armv7e-m/fpu\libg_nano.a(lib_a-memset.o)
 .text          0x00000000        0x0 d:/stm32/gcc/bin/../lib/gcc/arm-none-eabi/4.9.3/../../../../arm-none-eabi/lib/armv7e-m/fpu\libg_nano.a(lib_a-nano-freer.o)
 .data          0x00000000        0x0 d:/stm32/gcc/bin/../lib/gcc/arm-none-eabi/4.9.3/../../../../arm-none-eabi/lib/armv7e-m/fpu\libg_nano.a(lib_a-nano-freer.o)
 .bss           0x00000000        0x0 d:/stm32/gcc/bin/../lib/gcc/arm-none-eabi/4.9.3/../../../../arm-none-eabi/lib/armv7e-m/fpu\libg_nano.a(lib_a-nano-freer.o)
 .text._free_r  0x00000000       0x88 d:/stm32/gcc/bin/../lib/gcc/arm-none-eabi/4.9.3/../../../../arm-none-eabi/lib/armv7e-m/fpu\libg_nano.a(lib_a-nano-freer.o)
 .debug_frame   0x00000000       0x2c d:/stm32/gcc/bin/../lib/gcc/arm-none-eabi/4.9.3/../../../../arm-none-eabi/lib/armv7e-m/fpu\libg_nano.a(lib_a-nano-freer.o)
 .ARM.attributes
                0x00000000       0x34 d:/stm32/gcc/bin/../lib/gcc/arm-none-eabi/4.9.3/../../../../arm-none-eabi/lib/armv7e-m/fpu\libg_nano.a(lib_a-nano-freer.o)
 .text          0x00000000        0x0 d:/stm32/gcc/bin/../lib/gcc/arm-none-eabi/4.9.3/../../../../arm-none-eabi/lib/armv7e-m/fpu\libg_nano.a(lib_a-nano-mallocr.o)
 .data          0x00000000        0x0 d:/stm32/gcc/bin/../lib/gcc/arm-none-eabi/4.9.3/../../../../arm-none-eabi/lib/armv7e-m/fpu\libg_nano.a(lib_a-nano-mallocr.o)
 .bss           0x00000000        0x0 d:/stm32/gcc/bin/../lib/gcc/arm-none-eabi/4.9.3/../../../../arm-none-eabi/lib/armv7e-m/fpu\libg_nano.a(lib_a-nano-mallocr.o)
 .text          0x00000000        0x0 d:/stm32/gcc/bin/../lib/gcc/arm-none-eabi/4.9.3/../../../../arm-none-eabi/lib/armv7e-m/fpu\libg_nano.a(lib_a-sbrkr.o)
 .data          0x00000000        0x0 d:/stm32/gcc/bin/../lib/gcc/arm-none-eabi/4.9.3/../../../../arm-none-eabi/lib/armv7e-m/fpu\libg_nano.a(lib_a-sbrkr.o)
 .bss           0x00000000        0x0 d:/stm32/gcc/bin/../lib/gcc/arm-none-eabi/4.9.3/../../../../arm-none-eabi/lib/armv7e-m/fpu\libg_nano.a(lib_a-sbrkr.o)
 .text          0x00000000        0x0 d:/stm32/gcc/bin/../lib/gcc/arm-none-eabi/4.9.3/../../../../arm-none-eabi/lib/armv7e-m/fpu\libg_nano.a(lib_a-strlen.o)
 .data          0x00000000        0x0 d:/stm32/gcc/bin/../lib/gcc/arm-none-eabi/4.9.3/../../../../arm-none-eabi/lib/armv7e-m/fpu\libg_nano.a(lib_a-strlen.o)
 .bss           0x00000000        0x0 d:/stm32/gcc/bin/../lib/gcc/arm-none-eabi/4.9.3/../../../../arm-none-eabi/lib/armv7e-m/fpu\libg_nano.a(lib_a-strlen.o)
 .text.strlen   0x00000000       0x10 d:/stm32/gcc/bin/../lib/gcc/arm-none-eabi/4.9.3/../../../../arm-none-eabi/lib/armv7e-m/fpu\libg_nano.a(lib_a-strlen.o)
 .debug_frame   0x00000000       0x20 d:/stm32/gcc/bin/../lib/gcc/arm-none-eabi/4.9.3/../../../../arm-none-eabi/lib/armv7e-m/fpu\libg_nano.a(lib_a-strlen.o)
 .ARM.attributes
                0x00000000       0x34 d:/stm32/gcc/bin/../lib/gcc/arm-none-eabi/4.9.3/../../../../arm-none-eabi/lib/armv7e-m/fpu\libg_nano.a(lib_a-strlen.o)

Memory Configuration

Name             Origin             Length             Attributes
RAM              0x20000000         0x00030000         xrw
CCMRAM           0x10000000         0x00010000         xrw
FLASH            0x08000000         0x00200000         xr
FLASHB1          0x00000000         0x00000000         xr
EXTMEMB0         0x00000000         0x00000000         xr
EXTMEMB1         0x00000000         0x00000000         xr
EXTMEMB2         0x00000000         0x00000000         xr
EXTMEMB3         0x00000000         0x00000000         xr
MEMORY_ARRAY     0x20002000         0x00000020         xrw
*default*        0x00000000         0xffffffff

Linker script and memory map

LOAD ./system/src/stm32f4/misc.o
LOAD ./system/src/stm32f4/stm32f4xx_adc.o
LOAD ./system/src/stm32f4/stm32f4xx_dma.o
LOAD ./system/src/stm32f4/stm32f4xx_dma2d.o
LOAD ./system/src/stm32f4/stm32f4xx_fmc.o
LOAD ./system/src/stm32f4/stm32f4xx_gpio.o
LOAD ./system/src/stm32f4/stm32f4xx_i2c.o
LOAD ./system/src/stm32f4/stm32f4xx_ltdc.o
LOAD ./system/src/stm32f4/stm32f4xx_rcc.o
LOAD ./system/src/stm32f4/stm32f4xx_spi.o
LOAD ./system/src/stm32f4/stm32f4xx_tim.o
LOAD ./system/src/stm32f4/stm32f4xx_usart.o
LOAD ./system/src/newlib/_cxx.o
LOAD ./system/src/newlib/_exit.o
LOAD ./system/src/newlib/_sbrk.o
LOAD ./system/src/newlib/_startup.o
LOAD ./system/src/newlib/_syscalls.o
LOAD ./system/src/newlib/assert.o
LOAD ./system/src/diag/Trace.o
LOAD ./system/src/diag/trace_impl.o
LOAD ./system/src/cortexm/_initialize_hardware.o
LOAD ./system/src/cortexm/_reset_hardware.o
LOAD ./system/src/cortexm/exception_handlers.o
LOAD ./system/src/cmsis/system_stm32f4xx.o
LOAD ./system/src/cmsis/vectors_stm32f429xx.o
LOAD ./src/ui/ui.o
LOAD ./src/tm/tm_stm32f4_disco.o
LOAD ./src/tm/tm_stm32f4_dma.o
LOAD ./src/tm/tm_stm32f4_dma2d_graphic.o
LOAD ./src/tm/tm_stm32f4_fonts.o
LOAD ./src/tm/tm_stm32f4_gpio.o
LOAD ./src/tm/tm_stm32f4_i2c.o
LOAD ./src/tm/tm_stm32f4_ili9341_button.o
LOAD ./src/tm/tm_stm32f4_ili9341_ltdc.o
LOAD ./src/tm/tm_stm32f4_sdram.o
LOAD ./src/tm/tm_stm32f4_spi.o
LOAD ./src/stdio/printf.o
LOAD ./src/si570/ui_si570.o
LOAD ./src/si5351/si5351.o
LOAD ./src/ra8875/gsl1680.o
LOAD ./src/ra8875/ui_ra8875.o
LOAD ./src/ra8875/ui_ra8875_fonts.o
LOAD ./src/i2c/mchf_hw_i2c.o
LOAD ./src/encoder/ui_rotary.o
LOAD ./src/codec/audio.o
LOAD ./src/codec/codec.o
LOAD ./src/codec/cyclesleep.o
LOAD ./src/codec/i2s.o
LOAD ./src/button/tm_stm32f4_button.o
LOAD ./src/button/tm_stm32f4_delay.o
LOAD ./src/button/tm_stm32f4_timer_properties.o
LOAD ./src/main.o
LOAD C:\Users\gmtii\workspace\disco-noFB-noUGUI\libs\libarm_cortexM4lf_math_r4p5.a
LOAD d:/stm32/gcc/bin/../lib/gcc/arm-none-eabi/4.9.3/../../../../arm-none-eabi/lib/armv7e-m/fpu\libstdc++_nano.a
LOAD C:\Users\gmtii\workspace\disco-noFB-noUGUI\libs\libm.a
START GROUP
LOAD d:/stm32/gcc/bin/../lib/gcc/arm-none-eabi/4.9.3/armv7e-m/fpu\libgcc.a
LOAD d:/stm32/gcc/bin/../lib/gcc/arm-none-eabi/4.9.3/../../../../arm-none-eabi/lib/armv7e-m/fpu\libg_nano.a
LOAD d:/stm32/gcc/bin/../lib/gcc/arm-none-eabi/4.9.3/../../../../arm-none-eabi/lib/armv7e-m/fpu\libc_nano.a
END GROUP
START GROUP
LOAD d:/stm32/gcc/bin/../lib/gcc/arm-none-eabi/4.9.3/armv7e-m/fpu\libgcc.a
LOAD d:/stm32/gcc/bin/../lib/gcc/arm-none-eabi/4.9.3/../../../../arm-none-eabi/lib/armv7e-m/fpu\libc_nano.a
END GROUP
                0x20030000                __stack = (ORIGIN (RAM) + 0x30000)
                0x20030000                _estack = __stack
                0x00000400                __Main_Stack_Size = 0x400
                0x00000400                PROVIDE (_Main_Stack_Size, __Main_Stack_Size)
                0x2002fc00                __Main_Stack_Limit = (__stack - __Main_Stack_Size)
                0x2002fc00                PROVIDE (_Main_Stack_Limit, __Main_Stack_Limit)
                0x00000100                _Minimum_Stack_Size = 0x100
                0x2002e338                PROVIDE (_Heap_Begin, _end_noinit)
                0x2002fc00                PROVIDE (_Heap_Limit, (__stack - __Main_Stack_Size))

.isr_vector     0x08000000      0x35c
 FILL mask 0xff
                0x08000000                __vectors_start = ABSOLUTE (.)
                0x08000000                __vectors_start__ = ABSOLUTE (.)
 *(.isr_vector)
 .isr_vector    0x08000000      0x1ac ./system/src/cmsis/vectors_stm32f429xx.o
                0x08000000                __isr_vectors
 *(.cfmconfig)
 *(.after_vectors .after_vectors.*)
 .after_vectors
                0x080001ac      0x138 ./system/src/newlib/_startup.o
                0x080001ac                _start
 .after_vectors
                0x080002e4       0x74 ./system/src/cortexm/exception_handlers.o
                0x080002e4                Reset_Handler
                0x080002e8                NMI_Handler
                0x080002ec                HardFault_Handler
                0x08000300                HardFault_Handler_C
                0x08000304                MemManage_Handler
                0x08000308                BusFault_Handler
                0x0800031c                BusFault_Handler_C
                0x08000320                UsageFault_Handler
                0x08000334                UsageFault_Handler_C
                0x08000338                SVC_Handler
                0x0800033c                DebugMon_Handler
                0x08000340                PendSV_Handler
 .after_vectors
                0x08000358        0x4 ./system/src/cmsis/vectors_stm32f429xx.o
                0x08000358                RTC_Alarm_IRQHandler
                0x08000358                HASH_RNG_IRQHandler
                0x08000358                EXTI2_IRQHandler
                0x08000358                TIM8_CC_IRQHandler
                0x08000358                UART8_IRQHandler
                0x08000358                SPI4_IRQHandler
                0x08000358                TIM1_CC_IRQHandler
                0x08000358                PVD_IRQHandler
                0x08000358                SDIO_IRQHandler
                0x08000358                TAMP_STAMP_IRQHandler
                0x08000358                CAN2_RX1_IRQHandler
                0x08000358                EXTI3_IRQHandler
                0x08000358                TIM8_TRG_COM_TIM14_IRQHandler
                0x08000358                TIM1_UP_TIM10_IRQHandler
                0x08000358                TIM8_UP_TIM13_IRQHandler
                0x08000358                I2C3_ER_IRQHandler
                0x08000358                EXTI0_IRQHandler
                0x08000358                I2C2_EV_IRQHandler
                0x08000358                CAN1_RX0_IRQHandler
                0x08000358                FPU_IRQHandler
                0x08000358                OTG_HS_WKUP_IRQHandler
                0x08000358                LTDC_ER_IRQHandler
                0x08000358                CAN2_SCE_IRQHandler
                0x08000358                SPI1_IRQHandler
                0x08000358                TIM6_DAC_IRQHandler
                0x08000358                TIM1_BRK_TIM9_IRQHandler
                0x08000358                DCMI_IRQHandler
                0x08000358                CAN2_RX0_IRQHandler
                0x08000358                USART6_IRQHandler
                0x08000358                USART3_IRQHandler
                0x08000358                CAN1_RX1_IRQHandler
                0x08000358                UART5_IRQHandler
                0x08000358                TIM4_IRQHandler
                0x08000358                I2C1_EV_IRQHandler
                0x08000358                UART4_IRQHandler
                0x08000358                TIM3_IRQHandler
                0x08000358                RCC_IRQHandler
                0x08000358                TIM8_BRK_TIM12_IRQHandler
                0x08000358                Default_Handler
                0x08000358                EXTI15_10_IRQHandler
                0x08000358                ADC_IRQHandler
                0x08000358                SPI5_IRQHandler
                0x08000358                TIM7_IRQHandler
                0x08000358                CAN2_TX_IRQHandler
                0x08000358                TIM5_IRQHandler
                0x08000358                I2C3_EV_IRQHandler
                0x08000358                EXTI9_5_IRQHandler
                0x08000358                RTC_WKUP_IRQHandler
                0x08000358                LTDC_IRQHandler
                0x08000358                ETH_WKUP_IRQHandler
                0x08000358                SPI2_IRQHandler
                0x08000358                OTG_HS_EP1_IN_IRQHandler
                0x08000358                CAN1_TX_IRQHandler
                0x08000358                EXTI4_IRQHandler
                0x08000358                ETH_IRQHandler
                0x08000358                OTG_HS_EP1_OUT_IRQHandler
                0x08000358                WWDG_IRQHandler
                0x08000358                SPI6_IRQHandler
                0x08000358                TIM2_IRQHandler
                0x08000358                OTG_FS_WKUP_IRQHandler
                0x08000358                TIM1_TRG_COM_TIM11_IRQHandler
                0x08000358                OTG_HS_IRQHandler
                0x08000358                DMA2D_IRQHandler
                0x08000358                EXTI1_IRQHandler
                0x08000358                UART7_IRQHandler
                0x08000358                USART2_IRQHandler
                0x08000358                I2C2_ER_IRQHandler
                0x08000358                CAN1_SCE_IRQHandler
                0x08000358                FLASH_IRQHandler
                0x08000358                USART1_IRQHandler
                0x08000358                OTG_FS_IRQHandler
                0x08000358                SPI3_IRQHandler
                0x08000358                I2C1_ER_IRQHandler
                0x08000358                FMC_IRQHandler
                0x08000358                SAI1_IRQHandler

.inits          0x0800035c       0x28
                0x0800035c                __data_regions_array_start = .
                0x0800035c        0x4 LONG 0x80405a0 LOADADDR (.data)
                0x08000360        0x4 LONG 0x20000000 ADDR (.data)
                0x08000364        0x4 LONG 0x20000494 (ADDR (.data) + SIZEOF (.data))
                0x08000368        0x4 LONG 0x80405a0 LOADADDR (.data_CCMRAM)
                0x0800036c        0x4 LONG 0x10000000 ADDR (.data_CCMRAM)
                0x08000370        0x4 LONG 0x10000000 (ADDR (.data_CCMRAM) + SIZEOF (.data_CCMRAM))
                0x08000374                __data_regions_array_end = .
                0x08000374                __bss_regions_array_start = .
                0x08000374        0x4 LONG 0x200285e0 ADDR (.bss)
                0x08000378        0x4 LONG 0x2002e338 (ADDR (.bss) + SIZEOF (.bss))
                0x0800037c        0x4 LONG 0x10000000 ADDR (.bss_CCMRAM)
                0x08000380        0x4 LONG 0x10000000 (ADDR (.bss_CCMRAM) + SIZEOF (.bss_CCMRAM))
                0x08000384                __bss_regions_array_end = .
 *(.init)
 *(.fini)
                0x08000384                . = ALIGN (0x4)
                0x08000384                PROVIDE (__preinit_array_start, .)
 *(.preinit_array_sysinit .preinit_array_sysinit.*)
 *(.preinit_array_platform .preinit_array_platform.*)
 *(.preinit_array .preinit_array.*)
                0x08000384                PROVIDE (__preinit_array_end, .)
                0x08000384                . = ALIGN (0x4)
                0x08000384                PROVIDE (__init_array_start, .)
 *(SORT(.init_array.*))
 *(.init_array)
                0x08000384                PROVIDE (__init_array_end, .)
                0x08000384                . = ALIGN (0x4)
                0x08000384                PROVIDE (__fini_array_start, .)
 *(SORT(.fini_array.*))
 *(.fini_array)
                0x08000384                PROVIDE (__fini_array_end, .)

.flashtext
 *(.flashtext .flashtext.*)

.text           0x08000388    0x40210
 *(.text .text.*)
 .text.NVIC_Init
                0x08000388       0x70 ./system/src/stm32f4/misc.o
                0x08000388                NVIC_Init
 .text.DMA_DeInit
                0x080003f8      0x130 ./system/src/stm32f4/stm32f4xx_dma.o
                0x080003f8                DMA_DeInit
 .text.DMA_Init
                0x08000528       0x70 ./system/src/stm32f4/stm32f4xx_dma.o
                0x08000528                DMA_Init
 .text.DMA_StructInit
                0x08000598       0x24 ./system/src/stm32f4/stm32f4xx_dma.o
                0x08000598                DMA_StructInit
 .text.DMA_Cmd  0x080005bc       0x14 ./system/src/stm32f4/stm32f4xx_dma.o
                0x080005bc                DMA_Cmd
 .text.DMA_SetCurrDataCounter
                0x080005d0        0x4 ./system/src/stm32f4/stm32f4xx_dma.o
                0x080005d0                DMA_SetCurrDataCounter
 .text.DMA_GetFlagStatus
                0x080005d4       0x3c ./system/src/stm32f4/stm32f4xx_dma.o
                0x080005d4                DMA_GetFlagStatus
 .text.DMA_ClearFlag
                0x08000610       0x34 ./system/src/stm32f4/stm32f4xx_dma.o
                0x08000610                DMA_ClearFlag
 .text.DMA_ITConfig
                0x08000644       0x40 ./system/src/stm32f4/stm32f4xx_dma.o
                0x08000644                DMA_ITConfig
 .text.DMA_GetITStatus
                0x08000684       0x50 ./system/src/stm32f4/stm32f4xx_dma.o
                0x08000684                DMA_GetITStatus
 .text.DMA_ClearITPendingBit
                0x080006d4       0x34 ./system/src/stm32f4/stm32f4xx_dma.o
                0x080006d4                DMA_ClearITPendingBit
 .text.FMC_NORSRAMInit
                0x08000708      0x114 ./system/src/stm32f4/stm32f4xx_fmc.o
                0x08000708                FMC_NORSRAMInit
 .text.FMC_NORSRAMCmd
                0x0800081c       0x20 ./system/src/stm32f4/stm32f4xx_fmc.o
                0x0800081c                FMC_NORSRAMCmd
 .text.FMC_SDRAMInit
                0x0800083c      0x114 ./system/src/stm32f4/stm32f4xx_fmc.o
                0x0800083c                FMC_SDRAMInit
 .text.FMC_SDRAMCmdConfig
                0x08000950       0x20 ./system/src/stm32f4/stm32f4xx_fmc.o
                0x08000950                FMC_SDRAMCmdConfig
 .text.FMC_SetRefreshCount
                0x08000970       0x10 ./system/src/stm32f4/stm32f4xx_fmc.o
                0x08000970                FMC_SetRefreshCount
 .text.FMC_GetFlagStatus
                0x08000980       0x44 ./system/src/stm32f4/stm32f4xx_fmc.o
                0x08000980                FMC_GetFlagStatus
 .text.GPIO_Init
                0x080009c4       0xb4 ./system/src/stm32f4/stm32f4xx_gpio.o
                0x080009c4                GPIO_Init
 .text.GPIO_ReadInputDataBit
                0x08000a78        0xc ./system/src/stm32f4/stm32f4xx_gpio.o
                0x08000a78                GPIO_ReadInputDataBit
 .text.GPIO_SetBits
                0x08000a84        0x4 ./system/src/stm32f4/stm32f4xx_gpio.o
                0x08000a84                GPIO_SetBits
 .text.GPIO_ResetBits
                0x08000a88        0x4 ./system/src/stm32f4/stm32f4xx_gpio.o
                0x08000a88                GPIO_ResetBits
 .text.GPIO_ToggleBits
                0x08000a8c        0x8 ./system/src/stm32f4/stm32f4xx_gpio.o
                0x08000a8c                GPIO_ToggleBits
 .text.GPIO_PinAFConfig
                0x08000a94       0x28 ./system/src/stm32f4/stm32f4xx_gpio.o
                0x08000a94                GPIO_PinAFConfig
 .text.I2C_Init
                0x08000abc       0xe8 ./system/src/stm32f4/stm32f4xx_i2c.o
                0x08000abc                I2C_Init
 .text.I2C_GenerateSTART
                0x08000ba4       0x1c ./system/src/stm32f4/stm32f4xx_i2c.o
                0x08000ba4                I2C_GenerateSTART
 .text.I2C_GenerateSTOP
                0x08000bc0       0x1c ./system/src/stm32f4/stm32f4xx_i2c.o
                0x08000bc0                I2C_GenerateSTOP
 .text.I2C_Send7bitAddress
                0x08000bdc       0x18 ./system/src/stm32f4/stm32f4xx_i2c.o
                0x08000bdc                I2C_Send7bitAddress
 .text.I2C_AcknowledgeConfig
                0x08000bf4       0x1c ./system/src/stm32f4/stm32f4xx_i2c.o
                0x08000bf4                I2C_AcknowledgeConfig
 .text.I2C_SendData
                0x08000c10        0x4 ./system/src/stm32f4/stm32f4xx_i2c.o
                0x08000c10                I2C_SendData
 .text.I2C_ReceiveData
                0x08000c14        0x8 ./system/src/stm32f4/stm32f4xx_i2c.o
                0x08000c14                I2C_ReceiveData
 .text.I2C_CheckEvent
                0x08000c1c       0x1c ./system/src/stm32f4/stm32f4xx_i2c.o
                0x08000c1c                I2C_CheckEvent
 .text.I2C_GetFlagStatus
                0x08000c38       0x38 ./system/src/stm32f4/stm32f4xx_i2c.o
                0x08000c38                I2C_GetFlagStatus
 .text.I2C_ClearFlag
                0x08000c70        0x8 ./system/src/stm32f4/stm32f4xx_i2c.o
                0x08000c70                I2C_ClearFlag
 .text.RCC_MCO2Config
                0x08000c78       0x14 ./system/src/stm32f4/stm32f4xx_rcc.o
                0x08000c78                RCC_MCO2Config
 .text.RCC_GetClocksFreq
                0x08000c8c       0x98 ./system/src/stm32f4/stm32f4xx_rcc.o
                0x08000c8c                RCC_GetClocksFreq
 .text.RCC_AHB1PeriphClockCmd
                0x08000d24       0x18 ./system/src/stm32f4/stm32f4xx_rcc.o
                0x08000d24                RCC_AHB1PeriphClockCmd
 .text.RCC_AHB3PeriphClockCmd
                0x08000d3c       0x18 ./system/src/stm32f4/stm32f4xx_rcc.o
                0x08000d3c                RCC_AHB3PeriphClockCmd
 .text.RCC_APB1PeriphClockCmd
                0x08000d54       0x18 ./system/src/stm32f4/stm32f4xx_rcc.o
                0x08000d54                RCC_APB1PeriphClockCmd
 .text.RCC_APB2PeriphClockCmd
                0x08000d6c       0x18 ./system/src/stm32f4/stm32f4xx_rcc.o
                0x08000d6c                RCC_APB2PeriphClockCmd
 .text.RCC_APB1PeriphResetCmd
                0x08000d84       0x18 ./system/src/stm32f4/stm32f4xx_rcc.o
                0x08000d84                RCC_APB1PeriphResetCmd
 .text.RCC_APB2PeriphResetCmd
                0x08000d9c       0x18 ./system/src/stm32f4/stm32f4xx_rcc.o
                0x08000d9c                RCC_APB2PeriphResetCmd
 .text.SPI_I2S_DeInit
                0x08000db4       0xd0 ./system/src/stm32f4/stm32f4xx_spi.o
                0x08000db4                SPI_I2S_DeInit
 .text.I2S_Init
                0x08000e84      0x100 ./system/src/stm32f4/stm32f4xx_spi.o
                0x08000e84                I2S_Init
 .text.I2S_Cmd  0x08000f84       0x1c ./system/src/stm32f4/stm32f4xx_spi.o
                0x08000f84                I2S_Cmd
 .text.I2S_FullDuplexConfig
                0x08000fa0       0x48 ./system/src/stm32f4/stm32f4xx_spi.o
                0x08000fa0                I2S_FullDuplexConfig
 .text.SPI_I2S_DMACmd
                0x08000fe8       0x14 ./system/src/stm32f4/stm32f4xx_spi.o
                0x08000fe8                SPI_I2S_DMACmd
 .text.TIM_TimeBaseInit
                0x08000ffc       0x98 ./system/src/stm32f4/stm32f4xx_tim.o
                0x08000ffc                TIM_TimeBaseInit
 .text.TIM_GetCounter
                0x08001094        0x4 ./system/src/stm32f4/stm32f4xx_tim.o
                0x08001094                TIM_GetCounter
 .text.TIM_Cmd  0x08001098       0x1c ./system/src/stm32f4/stm32f4xx_tim.o
                0x08001098                TIM_Cmd
 .text.TIM_EncoderInterfaceConfig
                0x080010b4       0x40 ./system/src/stm32f4/stm32f4xx_tim.o
                0x080010b4                TIM_EncoderInterfaceConfig
 .text._exit    0x080010f4        0x8 ./system/src/newlib/_exit.o
                0x080010f4                _exit
 .text._sbrk    0x080010fc       0x40 ./system/src/newlib/_sbrk.o
                0x080010fc                _sbrk
 .text.__initialize_args
                0x0800113c       0x10 ./system/src/newlib/_syscalls.o
                0x0800113c                __initialize_args
 .text.__initialize_hardware_early
                0x0800114c       0x24 ./system/src/cortexm/_initialize_hardware.o
                0x0800114c                __initialize_hardware_early
 .text.__initialize_hardware
                0x08001170        0x4 ./system/src/cortexm/_initialize_hardware.o
                0x08001170                __initialize_hardware
 .text.__reset_hardware
                0x08001174       0x20 ./system/src/cortexm/_reset_hardware.o
                0x08001174                __reset_hardware
 .text.SystemInit
                0x08001194      0x374 ./system/src/cmsis/system_stm32f4xx.o
                0x08001194                SystemInit
 .text.SystemCoreClockUpdate
                0x08001508       0x74 ./system/src/cmsis/system_stm32f4xx.o
                0x08001508                SystemCoreClockUpdate
 *fill*         0x0800157c        0x4 
 .text.UiCalcRFGain
                0x08001580       0x58 ./src/ui/ui.o
                0x08001580                UiCalcRFGain
 .text.UiCalcRxPhaseAdj
                0x080015d8      0x4e8 ./src/ui/ui.o
                0x080015d8                UiCalcRxPhaseAdj
 .text.UiCalcRxIqGainAdj
                0x08001ac0       0x70 ./src/ui/ui.o
                0x08001ac0                UiCalcRxIqGainAdj
 .text.UiCalcNB_AGC
                0x08001b30       0x90 ./src/ui/ui.o
                0x08001b30                UiCalcNB_AGC
 .text.UiDriverChangeBandFilter
                0x08001bc0       0xa0 ./src/ui/ui.o
                0x08001bc0                UiDriverChangeBandFilter
 .text.UiDriverChangeAfGain
                0x08001c60       0x90 ./src/ui/ui.o
                0x08001c60                UiDriverChangeAfGain
 .text.UiDriverChangeCodecGain
                0x08001cf0       0xb4 ./src/ui/ui.o
                0x08001cf0                UiDriverChangeCodecGain
 .text.UiDriverChangeRfGain
                0x08001da4       0xb4 ./src/ui/ui.o
                0x08001da4                UiDriverChangeRfGain
 .text.UiDriverCheckFrequencyEncoder
                0x08001e58       0x64 ./src/ui/ui.o
                0x08001e58                UiDriverCheckFrequencyEncoder
 .text.UiDriverChangeSigProc
                0x08001ebc      0x148 ./src/ui/ui.o
                0x08001ebc                UiDriverChangeSigProc
 .text.UiDriverChangeDSPMode
                0x08002004      0x12c ./src/ui/ui.o
                0x08002004                UiDriverChangeDSPMode
 .text.UiDriverHandleSmeter
                0x08002130      0x244 ./src/ui/ui.o
                0x08002130                UiDriverHandleSmeter
 *fill*         0x08002374        0x4 
 .text.UiDriverFFTWindowFunction
                0x08002378      0x464 ./src/ui/ui.o
                0x08002378                UiDriverFFTWindowFunction
 .text.UiDriverInitSpectrumDisplay
                0x080027dc      0x138 ./src/ui/ui.o
                0x080027dc                UiDriverInitSpectrumDisplay
 .text.UiDriverInitFrequency
                0x08002914       0xb0 ./src/ui/ui.o
                0x08002914                UiDriverInitFrequency
 .text.UiDriverDisplayFilterBW
                0x080029c4      0x3b8 ./src/ui/ui.o
                0x080029c4                UiDriverDisplayFilterBW
 .text.UiDriverChangeFilter
                0x08002d7c       0xfc ./src/ui/ui.o
                0x08002d7c                UiDriverChangeFilter
 .text.UiDriverUpdateLcdFreq
                0x08002e78      0x28c ./src/ui/ui.o
                0x08002e78                UiDriverUpdateLcdFreq
 .text.UiDriverShowStep
                0x08003104      0x1a8 ./src/ui/ui.o
                0x08003104                UiDriverShowStep
 .text.UiDriverChangeTunningStep
                0x080032ac       0x34 ./src/ui/ui.o
                0x080032ac                UiDriverChangeTunningStep
 .text.UiDriverShowBand
                0x080032e0      0x148 ./src/ui/ui.o
                0x080032e0                UiDriverShowBand
 .text.UiDriverShowMode
                0x08003428       0xc8 ./src/ui/ui.o
                0x08003428                UiDriverShowMode
 .text.UiDriverChangeBand
                0x080034f0       0xa4 ./src/ui/ui.o
                0x080034f0                UiDriverChangeBand
 .text.UiDrawSpectrumScopeFrequencyBarText
                0x08003594      0x220 ./src/ui/ui.o
                0x08003594                UiDrawSpectrumScopeFrequencyBarText
 .text.UiDriverCreateSpectrumScope
                0x080037b4      0x344 ./src/ui/ui.o
                0x080037b4                UiDriverCreateSpectrumScope
 .text.UiDriverReDrawWaterfallDisplay
                0x08003af8      0x728 ./src/ui/ui.o
                0x08003af8                UiDriverReDrawWaterfallDisplay
 .text.UiInitSpectrumScopeWaterfall
                0x08004220       0x2c ./src/ui/ui.o
                0x08004220                UiInitSpectrumScopeWaterfall
 .text.UiDriverUpdateSecondLcdFreq
                0x0800424c      0x358 ./src/ui/ui.o
                0x0800424c                UiDriverUpdateSecondLcdFreq
 .text.UiDriverCheckBand
                0x080045a4       0x88 ./src/ui/ui.o
                0x080045a4                UiDriverCheckBand
 *fill*         0x0800462c        0x4 
 .text.UiDriverUpdateFrequency
                0x08004630      0x170 ./src/ui/ui.o
                0x08004630                UiDriverUpdateFrequency
 .text.UiDriverChangeVariable_1
                0x080047a0       0x9c ./src/ui/ui.o
                0x080047a0                UiDriverChangeVariable_1
 .text.UiDriverChangeVariable_2
                0x0800483c       0x90 ./src/ui/ui.o
                0x0800483c                UiDriverChangeVariable_2
 .text.UiDriverCreateDesktop
                0x080048cc       0x9c ./src/ui/ui.o
                0x080048cc                UiDriverCreateDesktop
 .text.ui_driver_init
                0x08004968       0x48 ./src/ui/ui.o
                0x08004968                ui_driver_init
 .text.UiDriverIndicadorFiltro
                0x080049b0       0x38 ./src/ui/ui.o
                0x080049b0                UiDriverIndicadorFiltro
 .text.UiCalcAGCDecay
                0x080049e8       0x6c ./src/ui/ui.o
                0x080049e8                UiCalcAGCDecay
 .text.UiDriverCheckEncoderTwo
                0x08004a54      0x63c ./src/ui/ui.o
                0x08004a54                UiDriverCheckEncoderTwo
 .text.TM_DMA_TransferCompleteHandler
                0x08005090        0x4 ./src/tm/tm_stm32f4_dma.o
                0x08005090                TM_DMA_TransferCompleteHandler
 .text.TM_DMA_HalfTransferCompleteHandler
                0x08005094        0x4 ./src/tm/tm_stm32f4_dma.o
                0x08005094                TM_DMA_HalfTransferCompleteHandler
 .text.TM_DMA_TransferErrorHandler
                0x08005098        0x4 ./src/tm/tm_stm32f4_dma.o
                0x08005098                TM_DMA_TransferErrorHandler
 .text.TM_DMA_DirectModeErrorHandler
                0x0800509c        0x4 ./src/tm/tm_stm32f4_dma.o
                0x0800509c                TM_DMA_DirectModeErrorHandler
 .text.TM_DMA_FIFOErrorHandler
                0x080050a0        0x4 ./src/tm/tm_stm32f4_dma.o
                0x080050a0                TM_DMA_FIFOErrorHandler
 .text.TM_DMA_INT_ProcessInterrupt
                0x080050a4      0x10c ./src/tm/tm_stm32f4_dma.o
 .text.DMA1_Stream0_IRQHandler
                0x080051b0        0xc ./src/tm/tm_stm32f4_dma.o
                0x080051b0                DMA1_Stream0_IRQHandler
 .text.DMA1_Stream1_IRQHandler
                0x080051bc        0xc ./src/tm/tm_stm32f4_dma.o
                0x080051bc                DMA1_Stream1_IRQHandler
 .text.DMA1_Stream3_IRQHandler
                0x080051c8        0xc ./src/tm/tm_stm32f4_dma.o
                0x080051c8                DMA1_Stream3_IRQHandler
 .text.DMA1_Stream4_IRQHandler
                0x080051d4        0xc ./src/tm/tm_stm32f4_dma.o
                0x080051d4                DMA1_Stream4_IRQHandler
 .text.DMA1_Stream5_IRQHandler
                0x080051e0        0xc ./src/tm/tm_stm32f4_dma.o
                0x080051e0                DMA1_Stream5_IRQHandler
 .text.DMA1_Stream6_IRQHandler
                0x080051ec        0xc ./src/tm/tm_stm32f4_dma.o
                0x080051ec                DMA1_Stream6_IRQHandler
 .text.DMA1_Stream7_IRQHandler
                0x080051f8        0xc ./src/tm/tm_stm32f4_dma.o
                0x080051f8                DMA1_Stream7_IRQHandler
 .text.DMA2_Stream0_IRQHandler
                0x08005204        0xc ./src/tm/tm_stm32f4_dma.o
                0x08005204                DMA2_Stream0_IRQHandler
 .text.DMA2_Stream1_IRQHandler
                0x08005210        0xc ./src/tm/tm_stm32f4_dma.o
                0x08005210                DMA2_Stream1_IRQHandler
 .text.DMA2_Stream2_IRQHandler
                0x0800521c        0xc ./src/tm/tm_stm32f4_dma.o
                0x0800521c                DMA2_Stream2_IRQHandler
 .text.DMA2_Stream3_IRQHandler
                0x08005228        0xc ./src/tm/tm_stm32f4_dma.o
                0x08005228                DMA2_Stream3_IRQHandler
 .text.DMA2_Stream4_IRQHandler
                0x08005234        0xc ./src/tm/tm_stm32f4_dma.o
                0x08005234                DMA2_Stream4_IRQHandler
 .text.DMA2_Stream5_IRQHandler
                0x08005240        0xc ./src/tm/tm_stm32f4_dma.o
                0x08005240                DMA2_Stream5_IRQHandler
 .text.DMA2_Stream6_IRQHandler
                0x0800524c        0xc ./src/tm/tm_stm32f4_dma.o
                0x0800524c                DMA2_Stream6_IRQHandler
 .text.TM_GPIO_INT_Init
                0x08005258       0xbc ./src/tm/tm_stm32f4_gpio.o
                0x08005258                TM_GPIO_INT_Init
 .text.TM_GPIO_Init
                0x08005314       0x40 ./src/tm/tm_stm32f4_gpio.o
                0x08005314                TM_GPIO_Init
 .text.TM_GPIO_InitAlternate
                0x08005354       0x7c ./src/tm/tm_stm32f4_gpio.o
                0x08005354                TM_GPIO_InitAlternate
 .text.TM_I2C_InitCustomPinsCallback
                0x080053d0        0x4 ./src/tm/tm_stm32f4_i2c.o
                0x080053d0                TM_I2C_InitCustomPinsCallback
 .text.TM_I2C_Init
                0x080053d4      0x1c8 ./src/tm/tm_stm32f4_i2c.o
                0x080053d4                TM_I2C_Init
 .text.TM_I2C_Start
                0x0800559c       0x90 ./src/tm/tm_stm32f4_i2c.o
                0x0800559c                TM_I2C_Start
 .text.TM_I2C_ReadAck
                0x0800562c       0x40 ./src/tm/tm_stm32f4_i2c.o
                0x0800562c                TM_I2C_ReadAck
 .text.TM_I2C_ReadNack
                0x0800566c       0x4c ./src/tm/tm_stm32f4_i2c.o
                0x0800566c                TM_I2C_ReadNack
 .text.TM_I2C_ReadMulti
                0x080056b8       0x7c ./src/tm/tm_stm32f4_i2c.o
                0x080056b8                TM_I2C_ReadMulti
 .text.TM_I2C_Stop
                0x08005734       0x34 ./src/tm/tm_stm32f4_i2c.o
                0x08005734                TM_I2C_Stop
 .text.TM_I2C_Write
                0x08005768       0x74 ./src/tm/tm_stm32f4_i2c.o
                0x08005768                TM_I2C_Write
 .text.TM_I2C_WriteMulti
                0x080057dc       0x90 ./src/tm/tm_stm32f4_i2c.o
                0x080057dc                TM_I2C_WriteMulti
 .text.TM_I2C_IsDeviceConnected
                0x0800586c       0x1c ./src/tm/tm_stm32f4_i2c.o
                0x0800586c                TM_I2C_IsDeviceConnected
 .text.LCD_Button_Add
                0x08005888       0x98 ./src/tm/tm_stm32f4_ili9341_button.o
                0x08005888                LCD_Button_Add
 .text.LCD_Button_Draw
                0x08005920      0x14c ./src/tm/tm_stm32f4_ili9341_button.o
                0x08005920                LCD_Button_Draw
 .text.LCD_Button_DrawAll
                0x08005a6c       0x2c ./src/tm/tm_stm32f4_ili9341_button.o
                0x08005a6c                LCD_Button_DrawAll
 .text.LCD_Button_Touch
                0x08005a98       0x50 ./src/tm/tm_stm32f4_ili9341_button.o
                0x08005a98                LCD_Button_Touch
 .text.TM_SDRAM_InitCustomPinsCallback
                0x08005ae8        0x4 ./src/tm/tm_stm32f4_sdram.o
                0x08005ae8                TM_SDRAM_InitCustomPinsCallback
 .text.TM_SDRAM_Init
                0x08005aec      0x23c ./src/tm/tm_stm32f4_sdram.o
                0x08005aec                TM_SDRAM_Init
 .text.PutUnsignedInt
                0x08005d28       0x54 ./src/stdio/printf.o
                0x08005d28                PutUnsignedInt
 .text.PutSignedInt
                0x08005d7c       0x9c ./src/stdio/printf.o
                0x08005d7c                PutSignedInt
 .text.PutHexa  0x08005e18       0x68 ./src/stdio/printf.o
                0x08005e18                PutHexa
 .text.vsnprintf
                0x08005e80      0x174 ./src/stdio/printf.o
                0x08005e80                vsnprintf
 .text.sprintf  0x08005ff4       0x20 ./src/stdio/printf.o
                0x08005ff4                sprintf
 *fill*         0x08006014        0x4 
 .text.Si5351_multisynth_calc
                0x08006018      0x160 ./src/si5351/si5351.o
 .text.Si5351_set_pll
                0x08006178      0x1b0 ./src/si5351/si5351.o
                0x08006178                Si5351_set_pll
 .text.Si5351_set_ms_source
                0x08006328       0x38 ./src/si5351/si5351.o
                0x08006328                Si5351_set_ms_source
 .text.Si5351_set_int
                0x08006360       0x60 ./src/si5351/si5351.o
                0x08006360                Si5351_set_int
 .text.Si5351_set_ms
                0x080063c0      0x1a4 ./src/si5351/si5351.o
                0x080063c0                Si5351_set_ms
 .text.Si5351_select_r_div
                0x08006564       0xf8 ./src/si5351/si5351.o
                0x08006564                Si5351_select_r_div
 *fill*         0x0800665c        0x4 
 .text.Si5351_set_freq
                0x08006660      0x3cc ./src/si5351/si5351.o
                0x08006660                Si5351_set_freq
 .text.gsl1680_pin_init
                0x08006a2c       0x5c ./src/ra8875/gsl1680.o
                0x08006a2c                gsl1680_pin_init
 .text.gsl1680_load_fw
                0x08006a88       0x54 ./src/ra8875/gsl1680.o
                0x08006a88                gsl1680_load_fw
 .text.gsl1680_read_data
                0x08006adc       0x74 ./src/ra8875/gsl1680.o
                0x08006adc                gsl1680_read_data
 .text.delay    0x08006b50       0x38 ./src/ra8875/gsl1680.o
 .text.gsl1680_clr_reg
                0x08006b88       0x5c ./src/ra8875/gsl1680.o
                0x08006b88                gsl1680_clr_reg
 .text.gsl1680_reset_chip
                0x08006be4       0x60 ./src/ra8875/gsl1680.o
                0x08006be4                gsl1680_reset_chip
 .text.gsl1680_init_chip
                0x08006c44       0x78 ./src/ra8875/gsl1680.o
                0x08006c44                gsl1680_init_chip
 .text.LCD_ParallelInit
                0x08006cbc      0x174 ./src/ra8875/ui_ra8875.o
                0x08006cbc                LCD_ParallelInit
 .text.LCD_FMCConfig
                0x08006e30       0x74 ./src/ra8875/ui_ra8875.o
                0x08006e30                LCD_FMCConfig
 .text.LCD_FMCConfig_Slow
                0x08006ea4       0x5c ./src/ra8875/ui_ra8875.o
                0x08006ea4                LCD_FMCConfig_Slow
 .text.LCD_PrepareDMA
                0x08006f00       0xa8 ./src/ra8875/ui_ra8875.o
                0x08006f00                LCD_PrepareDMA
 .text.DMA2_Stream7_IRQHandler
                0x08006fa8       0x24 ./src/ra8875/ui_ra8875.o
                0x08006fa8                DMA2_Stream7_IRQHandler
 .text.LCD_TransferDataDMA
                0x08006fcc       0x38 ./src/ra8875/ui_ra8875.o
                0x08006fcc                LCD_TransferDataDMA
 .text.LCD_SetCursorA
                0x08007004       0x64 ./src/ra8875/ui_ra8875.o
                0x08007004                LCD_SetCursorA
 .text.LCD_SetForegroundColor
                0x08007068       0x4c ./src/ra8875/ui_ra8875.o
                0x08007068                LCD_SetForegroundColor
 .text.LCD_DrawStraightLine
                0x080070b4      0x188 ./src/ra8875/ui_ra8875.o
                0x080070b4                LCD_DrawStraightLine
 .text.LCD_fillRect
                0x0800723c       0xec ./src/ra8875/ui_ra8875.o
                0x0800723c                LCD_fillRect
 .text.LCD_DrawFullRect
                0x08007328       0xe0 ./src/ra8875/ui_ra8875.o
                0x08007328                LCD_DrawFullRect
 .text.LCD_SetActiveWindow
                0x08007408       0xac ./src/ra8875/ui_ra8875.o
                0x08007408                LCD_SetActiveWindow
 .text.LCD_OpenBulkWrite
                0x080074b4       0x2c ./src/ra8875/ui_ra8875.o
                0x080074b4                LCD_OpenBulkWrite
 .text.LCD_BulkWrite
                0x080074e0        0x4 ./src/ra8875/ui_ra8875.o
                0x080074e0                LCD_BulkWrite
 .text.LCD_CloseBulkWrite
                0x080074e4       0x44 ./src/ra8875/ui_ra8875.o
                0x080074e4                LCD_CloseBulkWrite
 .text.LCD_DrawChar
                0x08007528      0x18c ./src/ra8875/ui_ra8875.o
                0x08007528                LCD_DrawChar
 .text.LCD_DrawCharSegment
                0x080076b4      0x13c ./src/ra8875/ui_ra8875.o
                0x080076b4                LCD_DrawCharSegment
 .text.LCD_ClearScreen
                0x080077f0       0x4c ./src/ra8875/ui_ra8875.o
                0x080077f0                LCD_ClearScreen
 .text.LCD_DrawEmptyRect
                0x0800783c       0xe0 ./src/ra8875/ui_ra8875.o
                0x0800783c                LCD_DrawEmptyRect
 .text.LCD_DrawHorizLineWithGrad
                0x0800791c       0x8c ./src/ra8875/ui_ra8875.o
                0x0800791c                LCD_DrawHorizLineWithGrad
 .text.LCD_PrintText
                0x080079a8       0xe8 ./src/ra8875/ui_ra8875.o
                0x080079a8                LCD_PrintText
 .text.LCD_TextHeight
                0x08007a90       0x18 ./src/ra8875/ui_ra8875.o
                0x08007a90                LCD_TextHeight
 .text.LCD_TextWidth
                0x08007aa8       0x58 ./src/ra8875/ui_ra8875.o
                0x08007aa8                LCD_TextWidth
 .text.LCD_PrintTextRight
                0x08007b00       0x3c ./src/ra8875/ui_ra8875.o
                0x08007b00                LCD_PrintTextRight
 *fill*         0x08007b3c        0x4 
 .text.UiSpectrumDrawSpectrum
                0x08007b40      0x348 ./src/ra8875/ui_ra8875.o
                0x08007b40                UiSpectrumDrawSpectrum
 .text.LCD_drawVU
                0x08007e88       0x70 ./src/ra8875/ui_ra8875.o
                0x08007e88                LCD_drawVU
 .text.LCD_drawLine
                0x08007ef8       0xe4 ./src/ra8875/ui_ra8875.o
                0x08007ef8                LCD_drawLine
 .text.LCD_drawLineAngle
                0x08007fdc      0x114 ./src/ra8875/ui_ra8875.o
                0x08007fdc                LCD_drawLineAngle
 .text.LCD_AnalogMeter
                0x080080f0      0x39c ./src/ra8875/ui_ra8875.o
                0x080080f0                LCD_AnalogMeter
 .text.LCD_Delay
                0x0800848c       0x38 ./src/ra8875/ui_ra8875.o
 .text.LCD_InitLCD
                0x080084c4      0x1b8 ./src/ra8875/ui_ra8875.o
                0x080084c4                LCD_InitLCD
 .text.mchf_hw_i2c_WriteRegister
                0x0800867c      0x114 ./src/i2c/mchf_hw_i2c.o
                0x0800867c                mchf_hw_i2c_WriteRegister
 .text.mchf_hw_i2c_WriteBlock
                0x08008790      0x134 ./src/i2c/mchf_hw_i2c.o
                0x08008790                mchf_hw_i2c_WriteBlock
 .text.mchf_hw_i2c_ReadRegister
                0x080088c4      0x198 ./src/i2c/mchf_hw_i2c.o
                0x080088c4                mchf_hw_i2c_ReadRegister
 .text.UiRotaryFreqEncoderInit
                0x08008a5c       0x94 ./src/encoder/ui_rotary.o
                0x08008a5c                UiRotaryFreqEncoderInit
 .text.UiRotaryEncoderTwoInit
                0x08008af0       0x98 ./src/encoder/ui_rotary.o
                0x08008af0                UiRotaryEncoderTwoInit
 .text.audio_rx_freq_conv
                0x08008b88      0x1a0 ./src/codec/audio.o
 .text.audio_lms_noise_reduction
                0x08008d28       0xb4 ./src/codec/audio.o
 .text.audio_driver_set_rx_audio_filter
                0x08008ddc      0x50c ./src/codec/audio.o
                0x08008ddc                audio_driver_set_rx_audio_filter
 .text.Audio_Init
                0x080092e8      0x1c0 ./src/codec/audio.o
                0x080092e8                Audio_Init
 .text.I2S_RX_CallBack
                0x080094a8      0xb9c ./src/codec/audio.o
                0x080094a8                I2S_RX_CallBack
 .text.Codec_WriteRegister
                0x0800a044       0x18 ./src/codec/codec.o
                0x0800a044                Codec_WriteRegister
 .text.Codec_Volume
                0x0800a05c       0x24 ./src/codec/codec.o
                0x0800a05c                Codec_Volume
 .text.Codec_Reset
                0x0800a080       0xc8 ./src/codec/codec.o
                0x0800a080                Codec_Reset
 .text.Codec_Line_Gain_Adj
                0x0800a148        0xc ./src/codec/codec.o
                0x0800a148                Codec_Line_Gain_Adj
 .text.Codec_RestartI2S
                0x0800a154       0x24 ./src/codec/codec.o
                0x0800a154                Codec_RestartI2S
 .text.Codec_AudioInterface_Init
                0x0800a178       0x50 ./src/codec/codec.o
                0x0800a178                Codec_AudioInterface_Init
 .text.Codec_GPIO_Init
                0x0800a1c8       0xb0 ./src/codec/codec.o
                0x0800a1c8                Codec_GPIO_Init
 .text.Codec_Init
                0x0800a278       0x2c ./src/codec/codec.o
                0x0800a278                Codec_Init
 .text.I2S_Block_Init
                0x0800a2a4      0x120 ./src/codec/i2s.o
                0x0800a2a4                I2S_Block_Init
 .text.I2S_Block_Process
                0x0800a3c4       0x74 ./src/codec/i2s.o
                0x0800a3c4                I2S_Block_Process
 .text.DMA1_Stream2_IRQHandler
                0x0800a438       0x9c ./src/codec/i2s.o
                0x0800a438                DMA1_Stream2_IRQHandler
 .text.TM_BUTTON_Init
                0x0800a4d4       0x80 ./src/button/tm_stm32f4_button.o
                0x0800a4d4                TM_BUTTON_Init
 .text.TM_BUTTON_INT_CheckButton
                0x0800a554       0x84 ./src/button/tm_stm32f4_button.o
                0x0800a554                TM_BUTTON_INT_CheckButton
 .text.TM_BUTTON_Update
                0x0800a5d8       0x24 ./src/button/tm_stm32f4_button.o
                0x0800a5d8                TM_BUTTON_Update
 .text.SysTick_Handler
                0x0800a5fc       0x5c ./src/button/tm_stm32f4_delay.o
                0x0800a5fc                SysTick_Handler
 .text.TM_DELAY_Init
                0x0800a658       0x64 ./src/button/tm_stm32f4_delay.o
                0x0800a658                TM_DELAY_Init
 .text.BUTTON7_EventHandler
                0x0800a6bc       0x68 ./src/main.o
                0x0800a6bc                BUTTON7_EventHandler
 .text.radio_init
                0x0800a724      0x13c ./src/main.o
                0x0800a724                radio_init
 .text.InitBoard
                0x0800a860      0x3d0 ./src/main.o
                0x0800a860                InitBoard
 .text.ui_touch
                0x0800ac30      0x6e0 ./src/main.o
                0x0800ac30                ui_touch
 .text.startup.main
                0x0800b310       0x34 ./src/main.o
                0x0800b310                main
 .text.arm_fill_f32
                0x0800b344       0x3c C:\Users\gmtii\workspace\disco-noFB-noUGUI\libs\libarm_cortexM4lf_math_r4p5.a(arm_fill_f32.o)
                0x0800b344                arm_fill_f32
 .text.arm_copy_q15
                0x0800b380       0x4c C:\Users\gmtii\workspace\disco-noFB-noUGUI\libs\libarm_cortexM4lf_math_r4p5.a(arm_copy_q15.o)
                0x0800b380                arm_copy_q15
 .text.arm_copy_f32
                0x0800b3cc       0x60 C:\Users\gmtii\workspace\disco-noFB-noUGUI\libs\libarm_cortexM4lf_math_r4p5.a(arm_copy_f32.o)
                0x0800b3cc                arm_copy_f32
 .text.arm_min_q15
                0x0800b42c       0xcc C:\Users\gmtii\workspace\disco-noFB-noUGUI\libs\libarm_cortexM4lf_math_r4p5.a(arm_min_q15.o)
                0x0800b42c                arm_min_q15
 .text.arm_min_f32
                0x0800b4f8       0xd0 C:\Users\gmtii\workspace\disco-noFB-noUGUI\libs\libarm_cortexM4lf_math_r4p5.a(arm_min_f32.o)
                0x0800b4f8                arm_min_f32
 .text.arm_mean_q15
                0x0800b5c8       0x50 C:\Users\gmtii\workspace\disco-noFB-noUGUI\libs\libarm_cortexM4lf_math_r4p5.a(arm_mean_q15.o)
                0x0800b5c8                arm_mean_q15
 .text.arm_mean_f32
                0x0800b618       0x68 C:\Users\gmtii\workspace\disco-noFB-noUGUI\libs\libarm_cortexM4lf_math_r4p5.a(arm_mean_f32.o)
                0x0800b618                arm_mean_f32
 .text.arm_max_q15
                0x0800b680       0xcc C:\Users\gmtii\workspace\disco-noFB-noUGUI\libs\libarm_cortexM4lf_math_r4p5.a(arm_max_q15.o)
                0x0800b680                arm_max_q15
 .text.arm_max_f32
                0x0800b74c       0xd0 C:\Users\gmtii\workspace\disco-noFB-noUGUI\libs\libarm_cortexM4lf_math_r4p5.a(arm_max_f32.o)
                0x0800b74c                arm_max_f32
 .text.arm_cfft_radix8by2_f32
                0x0800b81c      0x1a4 C:\Users\gmtii\workspace\disco-noFB-noUGUI\libs\libarm_cortexM4lf_math_r4p5.a(arm_cfft_f32.o)
                0x0800b81c                arm_cfft_radix8by2_f32
 .text.arm_cfft_radix8by4_f32
                0x0800b9c0      0x4bc C:\Users\gmtii\workspace\disco-noFB-noUGUI\libs\libarm_cortexM4lf_math_r4p5.a(arm_cfft_f32.o)
                0x0800b9c0                arm_cfft_radix8by4_f32
 .text.arm_cfft_f32
                0x0800be7c       0xf4 C:\Users\gmtii\workspace\disco-noFB-noUGUI\libs\libarm_cortexM4lf_math_r4p5.a(arm_cfft_f32.o)
                0x0800be7c                arm_cfft_f32
 .text.arm_lms_norm_init_f32
                0x0800bf70       0x38 C:\Users\gmtii\workspace\disco-noFB-noUGUI\libs\libarm_cortexM4lf_math_r4p5.a(arm_lms_norm_init_f32.o)
                0x0800bf70                arm_lms_norm_init_f32
 .text.arm_lms_norm_f32
                0x0800bfa8      0x248 C:\Users\gmtii\workspace\disco-noFB-noUGUI\libs\libarm_cortexM4lf_math_r4p5.a(arm_lms_norm_f32.o)
                0x0800bfa8                arm_lms_norm_f32
 .text.arm_iir_lattice_f32
                0x0800c1f0      0x1f0 C:\Users\gmtii\workspace\disco-noFB-noUGUI\libs\libarm_cortexM4lf_math_r4p5.a(arm_iir_lattice_f32.o)
                0x0800c1f0                arm_iir_lattice_f32
 .text.arm_fir_interpolate_f32
                0x0800c3e0      0x438 C:\Users\gmtii\workspace\disco-noFB-noUGUI\libs\libarm_cortexM4lf_math_r4p5.a(arm_fir_interpolate_f32.o)
                0x0800c3e0                arm_fir_interpolate_f32
 .text.arm_fir_init_f32
                0x0800c818       0x24 C:\Users\gmtii\workspace\disco-noFB-noUGUI\libs\libarm_cortexM4lf_math_r4p5.a(arm_fir_init_f32.o)
                0x0800c818                arm_fir_init_f32
 .text.arm_fir_f32
                0x0800c83c      0x4c8 C:\Users\gmtii\workspace\disco-noFB-noUGUI\libs\libarm_cortexM4lf_math_r4p5.a(arm_fir_f32.o)
                0x0800c83c                arm_fir_f32
 .text.arm_fir_decimate_f32
                0x0800cd04      0x378 C:\Users\gmtii\workspace\disco-noFB-noUGUI\libs\libarm_cortexM4lf_math_r4p5.a(arm_fir_decimate_f32.o)
                0x0800cd04                arm_fir_decimate_f32
 .text.arm_cmplx_mag_f32
                0x0800d07c      0x1d0 C:\Users\gmtii\workspace\disco-noFB-noUGUI\libs\libarm_cortexM4lf_math_r4p5.a(arm_cmplx_mag_f32.o)
                0x0800d07c                arm_cmplx_mag_f32
 .text.arm_sin_f32
                0x0800d24c       0x88 C:\Users\gmtii\workspace\disco-noFB-noUGUI\libs\libarm_cortexM4lf_math_r4p5.a(arm_sin_f32.o)
                0x0800d24c                arm_sin_f32
 .text.arm_cos_f32
                0x0800d2d4       0x80 C:\Users\gmtii\workspace\disco-noFB-noUGUI\libs\libarm_cortexM4lf_math_r4p5.a(arm_cos_f32.o)
                0x0800d2d4                arm_cos_f32
 .text.arm_sub_f32
                0x0800d354       0x8c C:\Users\gmtii\workspace\disco-noFB-noUGUI\libs\libarm_cortexM4lf_math_r4p5.a(arm_sub_f32.o)
                0x0800d354                arm_sub_f32
 .text.arm_scale_f32
                0x0800d3e0       0x6c C:\Users\gmtii\workspace\disco-noFB-noUGUI\libs\libarm_cortexM4lf_math_r4p5.a(arm_scale_f32.o)
                0x0800d3e0                arm_scale_f32
 .text.arm_mult_f32
                0x0800d44c       0x8c C:\Users\gmtii\workspace\disco-noFB-noUGUI\libs\libarm_cortexM4lf_math_r4p5.a(arm_mult_f32.o)
                0x0800d44c                arm_mult_f32
 .text.arm_add_f32
                0x0800d4d8       0x8c C:\Users\gmtii\workspace\disco-noFB-noUGUI\libs\libarm_cortexM4lf_math_r4p5.a(arm_add_f32.o)
                0x0800d4d8                arm_add_f32
 .text          0x0800d564       0xc0 C:\Users\gmtii\workspace\disco-noFB-noUGUI\libs\libarm_cortexM4lf_math_r4p5.a(arm_bitreversal2.o)
                0x0800d564                arm_bitreversal_32
                0x0800d5ce                arm_bitreversal_16
 .text.arm_radix8_butterfly_f32
                0x0800d624      0x5c4 C:\Users\gmtii\workspace\disco-noFB-noUGUI\libs\libarm_cortexM4lf_math_r4p5.a(arm_cfft_radix8_f32.o)
                0x0800d624                arm_radix8_butterfly_f32
 .text.cos      0x0800dbe8       0xb0 C:\Users\gmtii\workspace\disco-noFB-noUGUI\libs\libm.a(lib_a-s_cos.o)
                0x0800dbe8                cos
 .text.pow10    0x0800dc98       0x18 C:\Users\gmtii\workspace\disco-noFB-noUGUI\libs\libm.a(lib_a-s_pow10.o)
                0x0800dc98                pow10
 .text.round    0x0800dcb0       0xa8 C:\Users\gmtii\workspace\disco-noFB-noUGUI\libs\libm.a(lib_a-s_round.o)
                0x0800dcb0                round
 .text.sin      0x0800dd58       0xb8 C:\Users\gmtii\workspace\disco-noFB-noUGUI\libs\libm.a(lib_a-s_sin.o)
                0x0800dd58                sin
 .text.log10    0x0800de10      0x10c C:\Users\gmtii\workspace\disco-noFB-noUGUI\libs\libm.a(lib_a-w_log10.o)
                0x0800de10                log10
 .text.pow      0x0800df1c      0x370 C:\Users\gmtii\workspace\disco-noFB-noUGUI\libs\libm.a(lib_a-w_pow.o)
                0x0800df1c                pow
 .text.sqrt     0x0800e28c       0xbc C:\Users\gmtii\workspace\disco-noFB-noUGUI\libs\libm.a(lib_a-w_sqrt.o)
                0x0800e28c                sqrt
 .text.log10f   0x0800e348       0xf8 C:\Users\gmtii\workspace\disco-noFB-noUGUI\libs\libm.a(lib_a-wf_log10.o)
                0x0800e348                log10f
 .text.powf     0x0800e440      0x39c C:\Users\gmtii\workspace\disco-noFB-noUGUI\libs\libm.a(lib_a-wf_pow.o)
                0x0800e440                powf
 .text.sqrtf    0x0800e7dc       0xb4 C:\Users\gmtii\workspace\disco-noFB-noUGUI\libs\libm.a(lib_a-wf_sqrt.o)
                0x0800e7dc                sqrtf
 .text.__ieee754_log10
                0x0800e890      0x138 C:\Users\gmtii\workspace\disco-noFB-noUGUI\libs\libm.a(lib_a-e_log10.o)
                0x0800e890                __ieee754_log10
 .text.__ieee754_pow
                0x0800e9c8      0xb90 C:\Users\gmtii\workspace\disco-noFB-noUGUI\libs\libm.a(lib_a-e_pow.o)
                0x0800e9c8                __ieee754_pow
 .text.__ieee754_rem_pio2
                0x0800f558      0x478 C:\Users\gmtii\workspace\disco-noFB-noUGUI\libs\libm.a(lib_a-e_rem_pio2.o)
                0x0800f558                __ieee754_rem_pio2
 .text.__ieee754_sqrt
                0x0800f9d0      0x1c4 C:\Users\gmtii\workspace\disco-noFB-noUGUI\libs\libm.a(lib_a-e_sqrt.o)
                0x0800f9d0                __ieee754_sqrt
 .text.__ieee754_log10f
                0x0800fb94       0xbc C:\Users\gmtii\workspace\disco-noFB-noUGUI\libs\libm.a(lib_a-ef_log10.o)
                0x0800fb94                __ieee754_log10f
 .text.__ieee754_powf
                0x0800fc50      0x600 C:\Users\gmtii\workspace\disco-noFB-noUGUI\libs\libm.a(lib_a-ef_pow.o)
                0x0800fc50                __ieee754_powf
 .text.__ieee754_sqrtf
                0x08010250       0x9c C:\Users\gmtii\workspace\disco-noFB-noUGUI\libs\libm.a(lib_a-ef_sqrt.o)
                0x08010250                __ieee754_sqrtf
 *fill*         0x080102ec        0x4 
 .text.__kernel_cos
                0x080102f0      0x270 C:\Users\gmtii\workspace\disco-noFB-noUGUI\libs\libm.a(lib_a-k_cos.o)
                0x080102f0                __kernel_cos
 .text.__kernel_rem_pio2
                0x08010560      0x808 C:\Users\gmtii\workspace\disco-noFB-noUGUI\libs\libm.a(lib_a-k_rem_pio2.o)
                0x08010560                __kernel_rem_pio2
 .text.__kernel_sin
                0x08010d68      0x178 C:\Users\gmtii\workspace\disco-noFB-noUGUI\libs\libm.a(lib_a-k_sin.o)
                0x08010d68                __kernel_sin
 .text.fabs     0x08010ee0       0x14 C:\Users\gmtii\workspace\disco-noFB-noUGUI\libs\libm.a(lib_a-s_fabs.o)
                0x08010ee0                fabs
 .text.finite   0x08010ef4       0x14 C:\Users\gmtii\workspace\disco-noFB-noUGUI\libs\libm.a(lib_a-s_finite.o)
                0x08010ef4                finite
 .text.floor    0x08010f08      0x150 C:\Users\gmtii\workspace\disco-noFB-noUGUI\libs\libm.a(lib_a-s_floor.o)
                0x08010f08                floor
 .text.__fpclassifyd
                0x08011058       0x70 C:\Users\gmtii\workspace\disco-noFB-noUGUI\libs\libm.a(lib_a-s_fpclassify.o)
                0x08011058                __fpclassifyd
 .text.matherr  0x080110c8        0x4 C:\Users\gmtii\workspace\disco-noFB-noUGUI\libs\libm.a(lib_a-s_matherr.o)
                0x080110c8                matherr
 *fill*         0x080110cc        0x4 
 .text.nan      0x080110d0       0x10 C:\Users\gmtii\workspace\disco-noFB-noUGUI\libs\libm.a(lib_a-s_nan.o)
                0x080110d0                nan
 .text.rint     0x080110e0      0x124 C:\Users\gmtii\workspace\disco-noFB-noUGUI\libs\libm.a(lib_a-s_rint.o)
                0x080110e0                rint
 *fill*         0x08011204        0x4 
 .text.scalbn   0x08011208      0x120 C:\Users\gmtii\workspace\disco-noFB-noUGUI\libs\libm.a(lib_a-s_scalbn.o)
                0x08011208                scalbn
 .text.fabsf    0x08011328       0x10 C:\Users\gmtii\workspace\disco-noFB-noUGUI\libs\libm.a(lib_a-sf_fabs.o)
                0x08011328                fabsf
 .text.finitef  0x08011338       0x14 C:\Users\gmtii\workspace\disco-noFB-noUGUI\libs\libm.a(lib_a-sf_finite.o)
                0x08011338                finitef
 .text.__fpclassifyf
                0x0801134c       0x5c C:\Users\gmtii\workspace\disco-noFB-noUGUI\libs\libm.a(lib_a-sf_fpclassify.o)
                0x0801134c                __fpclassifyf
 .text.nanf     0x080113a8        0xc C:\Users\gmtii\workspace\disco-noFB-noUGUI\libs\libm.a(lib_a-sf_nan.o)
                0x080113a8                nanf
 .text.scalbnf  0x080113b4       0xcc C:\Users\gmtii\workspace\disco-noFB-noUGUI\libs\libm.a(lib_a-sf_scalbn.o)
                0x080113b4                scalbnf
 .text.__ieee754_log
                0x08011480      0x428 C:\Users\gmtii\workspace\disco-noFB-noUGUI\libs\libm.a(lib_a-e_log.o)
                0x08011480                __ieee754_log
 .text.__ieee754_logf
                0x080118a8      0x204 C:\Users\gmtii\workspace\disco-noFB-noUGUI\libs\libm.a(lib_a-ef_log.o)
                0x080118a8                __ieee754_logf
 .text.copysign
                0x08011aac       0x24 C:\Users\gmtii\workspace\disco-noFB-noUGUI\libs\libm.a(lib_a-s_copysign.o)
                0x08011aac                copysign
 .text.copysignf
                0x08011ad0       0x18 C:\Users\gmtii\workspace\disco-noFB-noUGUI\libs\libm.a(lib_a-sf_copysign.o)
                0x08011ad0                copysignf
 .text          0x08011ae8      0x370 d:/stm32/gcc/bin/../lib/gcc/arm-none-eabi/4.9.3/armv7e-m/fpu\libgcc.a(_arm_addsubdf3.o)
                0x08011ae8                __aeabi_drsub
                0x08011af0                __aeabi_dsub
                0x08011af0                __subdf3
                0x08011af4                __aeabi_dadd
                0x08011af4                __adddf3
                0x08011d6c                __floatunsidf
                0x08011d6c                __aeabi_ui2d
                0x08011d8c                __floatsidf
                0x08011d8c                __aeabi_i2d
                0x08011db0                __aeabi_f2d
                0x08011db0                __extendsfdf2
                0x08011dec                __floatundidf
                0x08011dec                __aeabi_ul2d
                0x08011dfc                __floatdidf
                0x08011dfc                __aeabi_l2d
 .text          0x08011e58      0x424 d:/stm32/gcc/bin/../lib/gcc/arm-none-eabi/4.9.3/armv7e-m/fpu\libgcc.a(_arm_muldivdf3.o)
                0x08011e58                __aeabi_dmul
                0x08011e58                __muldf3
                0x080120ac                __divdf3
                0x080120ac                __aeabi_ddiv
 .text          0x0801227c      0x110 d:/stm32/gcc/bin/../lib/gcc/arm-none-eabi/4.9.3/armv7e-m/fpu\libgcc.a(_arm_cmpdf2.o)
                0x0801227c                __gtdf2
                0x0801227c                __gedf2
                0x08012284                __ltdf2
                0x08012284                __ledf2
                0x0801228c                __nedf2
                0x0801228c                __eqdf2
                0x0801228c                __cmpdf2
                0x08012308                __aeabi_cdrcmple
                0x08012318                __aeabi_cdcmpeq
                0x08012318                __aeabi_cdcmple
                0x08012328                __aeabi_dcmpeq
                0x0801233c                __aeabi_dcmplt
                0x08012350                __aeabi_dcmple
                0x08012364                __aeabi_dcmpge
                0x08012378                __aeabi_dcmpgt
 .text          0x0801238c       0x50 d:/stm32/gcc/bin/../lib/gcc/arm-none-eabi/4.9.3/armv7e-m/fpu\libgcc.a(_arm_fixdfsi.o)
                0x0801238c                __aeabi_d2iz
                0x0801238c                __fixdfsi
 .text          0x080123dc       0x40 d:/stm32/gcc/bin/../lib/gcc/arm-none-eabi/4.9.3/armv7e-m/fpu\libgcc.a(_arm_fixunsdfsi.o)
                0x080123dc                __aeabi_d2uiz
                0x080123dc                __fixunsdfsi
 .text          0x0801241c       0xa0 d:/stm32/gcc/bin/../lib/gcc/arm-none-eabi/4.9.3/armv7e-m/fpu\libgcc.a(_arm_truncdfsf2.o)
                0x0801241c                __truncdfsf2
                0x0801241c                __aeabi_d2f
 .text          0x080124bc       0x30 d:/stm32/gcc/bin/../lib/gcc/arm-none-eabi/4.9.3/armv7e-m/fpu\libgcc.a(_aeabi_uldivmod.o)
                0x080124bc                __aeabi_uldivmod
 .text          0x080124ec       0x60 d:/stm32/gcc/bin/../lib/gcc/arm-none-eabi/4.9.3/armv7e-m/fpu\libgcc.a(bpabi.o)
                0x080124ec                __gnu_ldivmod_helper
                0x0801251c                __gnu_uldivmod_helper
 .text          0x0801254c        0x4 d:/stm32/gcc/bin/../lib/gcc/arm-none-eabi/4.9.3/armv7e-m/fpu\libgcc.a(_dvmd_tls.o)
                0x0801254c                __aeabi_idiv0
                0x0801254c                __aeabi_ldiv0
 .text          0x08012550      0x29c d:/stm32/gcc/bin/../lib/gcc/arm-none-eabi/4.9.3/armv7e-m/fpu\libgcc.a(_divdi3.o)
                0x08012550                __divdi3
 .text          0x080127ec      0x26c d:/stm32/gcc/bin/../lib/gcc/arm-none-eabi/4.9.3/armv7e-m/fpu\libgcc.a(_udivdi3.o)
                0x080127ec                __udivdi3
 .text.__errno  0x08012a58        0xc d:/stm32/gcc/bin/../lib/gcc/arm-none-eabi/4.9.3/../../../../arm-none-eabi/lib/armv7e-m/fpu\libg_nano.a(lib_a-errno.o)
                0x08012a58                __errno
 .text.malloc   0x08012a64       0x10 d:/stm32/gcc/bin/../lib/gcc/arm-none-eabi/4.9.3/../../../../arm-none-eabi/lib/armv7e-m/fpu\libg_nano.a(lib_a-malloc.o)
                0x08012a64                malloc
 .text.memset   0x08012a74       0x10 d:/stm32/gcc/bin/../lib/gcc/arm-none-eabi/4.9.3/../../../../arm-none-eabi/lib/armv7e-m/fpu\libg_nano.a(lib_a-memset.o)
                0x08012a74                memset
 .text._malloc_r
                0x08012a84       0xac d:/stm32/gcc/bin/../lib/gcc/arm-none-eabi/4.9.3/../../../../arm-none-eabi/lib/armv7e-m/fpu\libg_nano.a(lib_a-nano-mallocr.o)
                0x08012a84                _malloc_r
 .text._sbrk_r  0x08012b30       0x20 d:/stm32/gcc/bin/../lib/gcc/arm-none-eabi/4.9.3/../../../../arm-none-eabi/lib/armv7e-m/fpu\libg_nano.a(lib_a-sbrkr.o)
                0x08012b30                _sbrk_r
 *(.rodata .rodata.* .constdata .constdata.*)
 .rodata        0x08012b50     0x2e9e ./src/ui/ui.o
                0x08012b50                iq_rx_am_5k_coeffs
                0x08012cb4                iq_rx_am_6k_coeffs
                0x08012e18                iq_rx_am_7k5_coeffs
                0x08012f7c                iq_rx_am_10k_coeffs
                0x080130e0                iq_rx_am_3k6_coeffs
                0x08013244                iq_rx_am_2k3_coeffs
                0x080133a8                q_rx_5k_coeffs
                0x0801350c                i_rx_5k_coeffs
                0x08013670                q_rx_6k_coeffs
                0x080137d4                i_rx_6k_coeffs
                0x08013938                q_rx_7k5_coeffs
                0x08013a9c                i_rx_7k5_coeffs
                0x08013c00                q_rx_10k_coeffs
                0x08013d64                i_rx_10k_coeffs
                0x08013ec8                q_rx_3k6_coeffs
                0x0801402c                i_rx_3k6_coeffs
                0x08014190                q_rx_5k_coeffs_minus
                0x080142f4                q_rx_6k_coeffs_minus
                0x08014458                q_rx_7k5_coeffs_minus
                0x080145bc                q_rx_10k_coeffs_minus
                0x08014720                q_rx_3k6_coeffs_minus
                0x08014884                q_rx_5k_coeffs_plus
                0x080149e8                q_rx_6k_coeffs_plus
                0x08014b4c                q_rx_7k5_coeffs_plus
                0x08014cb0                q_rx_10k_coeffs_plus
                0x08014e14                q_rx_3k6_coeffs_plus
                0x08014f78                S_Meter_Cal
                0x08014ffc                waterfall_rainbow
                0x08015080                tune_bands
                0x08015108                tune_steps
                0x08015124                size_bands
                0x08015148                i_tx_coeffs
                0x080152ac                q_tx_coeffs_plus
                0x08015410                q_tx_coeffs_minus
                0x08015574                q_tx_coeffs
                0x080156d8                old_waterfall_rainbow
                0x0801575c                old_waterfall_cold_hot
                0x080157e0                waterfall_blue
                0x08015864                waterfall_cold_hot
                0x080158e8                waterfall_grey_inverse
                0x0801596c                waterfall_grey
 *fill*         0x080159ee        0x2 
 .rodata.str1.4
                0x080159f0      0x250 ./src/ui/ui.o
                                0x264 (size before relaxing)
 .rodata        0x08015c40       0x14 ./src/tm/tm_stm32f4_dma.o
 .rodata        0x08015c54     0xab30 ./src/ra8875/gsl1680.o
                0x08015c54                GSLX680_FW
 .rodata        0x08020784     0xf528 ./src/ra8875/ui_ra8875.o
 .rodata.str1.4
                0x0802fcac       0x1c ./src/ra8875/ui_ra8875.o
                                 0x20 (size before relaxing)
 .rodata        0x0802fcc8     0x99a0 ./src/ra8875/ui_ra8875_fonts.o
                0x0802fcc8                GL_Big
                0x0802fcd0                GL_SevenSegNum
                0x0802fcd8                GL_Font8x8
                0x0802fce0                GL_Font8x12_bold
                0x0802fce8                GL_Font8x12
                0x0802fcf0                GL_Font12x12
                0x0802fcf8                GL_Font16x24
                0x0802fd00                GL_Big_Table
                0x08034f00                GL_SevenSegNum_Table
                0x08035798                GL_ASCII8x8_Table
                0x08035d98                GL_ASCII8x12_bold_Table
                0x08037298                GL_ASCII8x12_Table
                0x08037b98                GL_ASCII12x12_Table
                0x08038498                GL_ASCII16x24_Table
 .rodata        0x08039668      0xb74 ./src/codec/audio.o
                0x08039668                IIR_300hz_500_pkCoeffs
                0x08039690                IIR_300hz_500_pvCoeffs
                0x080396bc                IIR_300hz_550_pkCoeffs
                0x080396e4                IIR_300hz_550_pvCoeffs
                0x08039710                IIR_300hz_600_pkCoeffs
                0x08039738                IIR_300hz_600_pvCoeffs
                0x08039764                IIR_300hz_650_pkCoeffs
                0x0803978c                IIR_300hz_650_pvCoeffs
                0x080397b8                IIR_300hz_700_pkCoeffs
                0x080397e0                IIR_300hz_700_pvCoeffs
                0x0803980c                IIR_300hz_800_pkCoeffs
                0x08039834                IIR_300hz_800_pvCoeffs
                0x08039860                IIR_300hz_850_pkCoeffs
                0x08039888                IIR_300hz_850_pvCoeffs
                0x080398b4                IIR_300hz_900_pkCoeffs
                0x080398dc                IIR_300hz_900_pvCoeffs
                0x08039908                IIR_300hz_950_pkCoeffs
                0x08039930                IIR_300hz_950_pvCoeffs
                0x0803995c                IIR_300hz_750_pkCoeffs
                0x08039984                IIR_300hz_750_pvCoeffs
                0x080399b0                IIR_500hz_550_pkCoeffs
                0x080399d8                IIR_500hz_550_pvCoeffs
                0x08039a04                IIR_500hz_650_pkCoeffs
                0x08039a2c                IIR_500hz_650_pvCoeffs
                0x08039a58                IIR_500hz_850_pkCoeffs
                0x08039a80                IIR_500hz_850_pvCoeffs
                0x08039aac                IIR_500hz_950_pkCoeffs
                0x08039ad4                IIR_500hz_950_pvCoeffs
                0x08039b00                IIR_500hz_750_pkCoeffs
                0x08039b28                IIR_500hz_750_pvCoeffs
                0x08039b54                IIR_1k8_LPF_pkCoeffs
                0x08039b7c                IIR_1k8_LPF_pvCoeffs
                0x08039ba8                IIR_1k8_1k125_pkCoeffs
                0x08039bd0                IIR_1k8_1k125_pvCoeffs
                0x08039bfc                IIR_1k8_1k275_pkCoeffs
                0x08039c24                IIR_1k8_1k275_pvCoeffs
                0x08039c50                IIR_1k8_1k575_pkCoeffs
                0x08039c78                IIR_1k8_1k575_pvCoeffs
                0x08039ca4                IIR_1k8_1k725_pkCoeffs
                0x08039ccc                IIR_1k8_1k725_pvCoeffs
                0x08039cf8                IIR_1k8_1k425_pkCoeffs
                0x08039d20                IIR_1k8_1k425_pvCoeffs
                0x08039d4c                IIR_2k3_LPF_pkCoeffs
                0x08039d74                IIR_2k3_LPF_pvCoeffs
                0x08039da0                IIR_2k3_1k275_pkCoeffs
                0x08039dc8                IIR_2k3_1k275_pvCoeffs
                0x08039df4                IIR_2k3_1k562_pkCoeffs
                0x08039e1c                IIR_2k3_1k562_pvCoeffs
                0x08039e48                IIR_2k3_1k712_pkCoeffs
                0x08039e70                IIR_2k3_1k712_pvCoeffs
                0x08039e9c                IIR_2k3_1k412_pkCoeffs
                0x08039ec4                IIR_2k3_1k412_pvCoeffs
                0x08039ef0                IIR_2k7_LPF_pkCoeffs
                0x08039f18                IIR_2k7_LPF_pvCoeffs
                0x08039f44                IIR_2k7_BPF_pkCoeffs
                0x08039f6c                IIR_2k7_BPF_pvCoeffs
                0x08039f98                IIR_2k9_LPF_pkCoeffs
                0x08039fc0                IIR_2k9_LPF_pvCoeffs
                0x08039fec                IIR_2k9_BPF_pkCoeffs
                0x0803a014                IIR_2k9_BPF_pvCoeffs
                0x0803a040                IIR_3k6_LPF_pkCoeffs
                0x0803a068                IIR_3k6_LPF_pvCoeffs
                0x0803a094                IIR_3k6_BPF_pkCoeffs
                0x0803a0bc                IIR_3k6_BPF_pvCoeffs
                0x0803a0e8                IIR_10k_pkCoeffs
                0x0803a108                IIR_10k_pvCoeffs
                0x0803a12c                FirRxDecimate
                0x0803a13c                FirRxInterpolate
                0x0803a17c                FirRxDecimateMinLPF
                0x0803a18c                FirRxInterpolate10KHZ
                0x0803a1cc                IIR_10k_numStages
                0x0803a1ce                IIR_3k6_numStages
                0x0803a1d0                IIR_2k9_numStages
                0x0803a1d2                IIR_2k7_numStages
                0x0803a1d4                IIR_2k3_numStages
                0x0803a1d6                IIR_1k8_numStages
                0x0803a1d8                IIR_500hz_numStages
                0x0803a1da                IIR_300hz_numStages
 .rodata        0x0803a1dc     0x2970 ./src/main.o
 .rodata.str1.4
                0x0803cb4c      0x1cc ./src/main.o
                                0x214 (size before relaxing)
 .rodata.arm_cfft_sR_f32_len1024
                0x0803cd18       0x10 C:\Users\gmtii\workspace\disco-noFB-noUGUI\libs\libarm_cortexM4lf_math_r4p5.a(arm_const_structs.o)
                0x0803cd18                arm_cfft_sR_f32_len1024
 .rodata.twiddleCoef_1024
                0x0803cd28     0x2000 C:\Users\gmtii\workspace\disco-noFB-noUGUI\libs\libarm_cortexM4lf_math_r4p5.a(arm_common_tables.o)
                0x0803cd28                twiddleCoef_1024
 .rodata.armBitRevIndexTable1024
                0x0803ed28      0xe10 C:\Users\gmtii\workspace\disco-noFB-noUGUI\libs\libarm_cortexM4lf_math_r4p5.a(arm_common_tables.o)
                0x0803ed28                armBitRevIndexTable1024
 .rodata.sinTable_f32
                0x0803fb38      0x804 C:\Users\gmtii\workspace\disco-noFB-noUGUI\libs\libarm_cortexM4lf_math_r4p5.a(arm_common_tables.o)
                0x0803fb38                sinTable_f32
 .rodata.str1.4
                0x0804033c        0x6 C:\Users\gmtii\workspace\disco-noFB-noUGUI\libs\libm.a(lib_a-w_log10.o)
                                  0xc (size before relaxing)
 *fill*         0x08040342        0x2 
 .rodata.str1.4
                0x08040344        0x4 C:\Users\gmtii\workspace\disco-noFB-noUGUI\libs\libm.a(lib_a-w_pow.o)
 .rodata.str1.4
                0x08040348        0x5 C:\Users\gmtii\workspace\disco-noFB-noUGUI\libs\libm.a(lib_a-w_sqrt.o)
                                  0x8 (size before relaxing)
 *fill*         0x0804034d        0x3 
 .rodata.str1.4
                0x08040350        0x7 C:\Users\gmtii\workspace\disco-noFB-noUGUI\libs\libm.a(lib_a-wf_log10.o)
                                  0xc (size before relaxing)
 *fill*         0x08040357        0x1 
 .rodata.str1.4
                0x08040358        0x5 C:\Users\gmtii\workspace\disco-noFB-noUGUI\libs\libm.a(lib_a-wf_pow.o)
                                  0x8 (size before relaxing)
 *fill*         0x0804035d        0x3 
 .rodata.str1.4
                0x08040360        0x8 C:\Users\gmtii\workspace\disco-noFB-noUGUI\libs\libm.a(lib_a-wf_sqrt.o)
 .rodata.dp_h   0x08040368       0x10 C:\Users\gmtii\workspace\disco-noFB-noUGUI\libs\libm.a(lib_a-e_pow.o)
 .rodata.dp_l   0x08040378       0x10 C:\Users\gmtii\workspace\disco-noFB-noUGUI\libs\libm.a(lib_a-e_pow.o)
 .rodata.bp     0x08040388       0x10 C:\Users\gmtii\workspace\disco-noFB-noUGUI\libs\libm.a(lib_a-e_pow.o)
 .rodata.str1.4
                0x00000000        0x4 C:\Users\gmtii\workspace\disco-noFB-noUGUI\libs\libm.a(lib_a-e_pow.o)
 .rodata.npio2_hw
                0x08040398       0x80 C:\Users\gmtii\workspace\disco-noFB-noUGUI\libs\libm.a(lib_a-e_rem_pio2.o)
 .rodata.two_over_pi
                0x08040418      0x108 C:\Users\gmtii\workspace\disco-noFB-noUGUI\libs\libm.a(lib_a-e_rem_pio2.o)
 .rodata.dp_h   0x08040520        0x8 C:\Users\gmtii\workspace\disco-noFB-noUGUI\libs\libm.a(lib_a-ef_pow.o)
 .rodata.dp_l   0x08040528        0x8 C:\Users\gmtii\workspace\disco-noFB-noUGUI\libs\libm.a(lib_a-ef_pow.o)
 .rodata.bp     0x08040530        0x8 C:\Users\gmtii\workspace\disco-noFB-noUGUI\libs\libm.a(lib_a-ef_pow.o)
 .rodata.str1.4
                0x00000000        0x4 C:\Users\gmtii\workspace\disco-noFB-noUGUI\libs\libm.a(lib_a-ef_pow.o)
 .rodata.init_jk
                0x08040538       0x10 C:\Users\gmtii\workspace\disco-noFB-noUGUI\libs\libm.a(lib_a-k_rem_pio2.o)
 .rodata.PIo2   0x08040548       0x40 C:\Users\gmtii\workspace\disco-noFB-noUGUI\libs\libm.a(lib_a-k_rem_pio2.o)
 .rodata.TWO52  0x08040588       0x10 C:\Users\gmtii\workspace\disco-noFB-noUGUI\libs\libm.a(lib_a-s_rint.o)
 *(vtable)
 *(.eh_frame*)
 *(.glue_7)
 .glue_7        0x00000000        0x0 linker stubs
 *(.glue_7t)
 .glue_7t       0x00000000        0x0 linker stubs

.vfp11_veneer   0x08040598        0x0
 .vfp11_veneer  0x00000000        0x0 linker stubs

.v4_bx          0x08040598        0x0
 .v4_bx         0x00000000        0x0 linker stubs

.iplt           0x08040598        0x0
 .iplt          0x00000000        0x0 ./system/src/stm32f4/misc.o

.ARM.extab
 *(.ARM.extab* .gnu.linkonce.armextab.*)
                0x08040598                . = ALIGN (0x4)
                0x08040598                __exidx_start = .

.ARM.exidx      0x08040598        0x8
 *(.ARM.exidx* .gnu.linkonce.armexidx.*)
 .ARM.exidx     0x08040598        0x8 d:/stm32/gcc/bin/../lib/gcc/arm-none-eabi/4.9.3/armv7e-m/fpu\libgcc.a(_divdi3.o)
 .ARM.exidx     0x080405a0        0x0 d:/stm32/gcc/bin/../lib/gcc/arm-none-eabi/4.9.3/armv7e-m/fpu\libgcc.a(_udivdi3.o)
                                  0x8 (size before relaxing)
                0x080405a0                __exidx_end = .

.rel.dyn        0x080405a0        0x0
 .rel.iplt      0x00000000        0x0 ./system/src/stm32f4/misc.o
                0x080405a0                . = ALIGN (0x4)
                0x080405a0                _etext = .
                0x080405a0                __etext = .

.data_CCMRAM    0x10000000        0x0 load address 0x080405a0
 FILL mask 0xff
 *(.data.CCMRAM .data.CCMRAM.*)
                0x10000000                . = ALIGN (0x4)
                0x080405a0                _sidata = LOADADDR (.data)

.data           0x20000000      0x494 load address 0x080405a0
 FILL mask 0xff
                0x20000000                _sdata = .
                0x20000000                __data_start__ = .
 *(.data_begin .data_begin.*)
 .data_begin    0x20000000        0x4 ./system/src/newlib/_startup.o
 *(.data .data.*)
 .data          0x20000004       0x10 ./system/src/stm32f4/stm32f4xx_rcc.o
 .data          0x20000014        0xc ./system/src/newlib/_syscalls.o
                0x2000001c                environ
 .data          0x20000020       0x14 ./system/src/cmsis/system_stm32f4xx.o
                0x20000020                AHBPrescTable
                0x20000030                SystemCoreClock
 .data          0x20000034        0xd ./src/ui/ui.o
 *fill*         0x20000041        0x3 
 .data          0x20000044        0xc ./src/tm/tm_stm32f4_i2c.o
 .data          0x20000050      0x430 ./src/stdio/printf.o
                0x20000050                _impure_ptr
                0x20000058                r
 .data          0x20000480        0x8 ./src/ra8875/ui_ra8875.o
 .data          0x20000488        0x4 ./src/i2c/mchf_hw_i2c.o
                0x20000488                I2C1_Timeout
 .data          0x2000048c        0x1 ./src/codec/audio.o
 .data.__fdlib_version
                0x2000048d        0x1 C:\Users\gmtii\workspace\disco-noFB-noUGUI\libs\libm.a(lib_a-s_lib_ver.o)
                0x2000048d                __fdlib_version
 *(.data_end .data_end.*)
 *fill*         0x2000048e        0x2 
 .data_end      0x20000490        0x4 ./system/src/newlib/_startup.o
                0x20000494                . = ALIGN (0x4)
                0x20000494                _edata = .
                0x20000494                __data_end__ = .

.igot.plt       0x20000494        0x0 load address 0x08040a34
 .igot.plt      0x00000000        0x0 ./system/src/stm32f4/misc.o

.ccm            0x20000494    0x28148 load address 0x08040a34
 .ccm           0x20000494    0x28148 ./src/codec/audio.o
                0x20000494                sd

.bss_CCMRAM     0x10000000        0x0
 *(.bss.CCMRAM .bss.CCMRAM.*)

.bss            0x200285e0     0x5d58
                0x200285e0                __bss_start__ = .
                0x200285e0                _sbss = .
 *(.bss_begin .bss_begin.*)
 .bss_begin     0x200285e0        0x4 ./system/src/newlib/_startup.o
 *(.bss .bss.*)
 .bss           0x200285e4        0x4 ./system/src/newlib/_sbrk.o
 .bss           0x200285e8        0xc ./system/src/newlib/_syscalls.o
                0x200285ec                __env
                0x200285f0                __dso_handle
 .bss           0x200285f4      0x40c ./src/ui/ui.o
 .bss           0x20028a00       0x16 ./src/tm/tm_stm32f4_gpio.o
 *fill*         0x20028a16        0x2 
 .bss           0x20028a18        0x4 ./src/tm/tm_stm32f4_i2c.o
 .bss           0x20028a1c        0x1 ./src/tm/tm_stm32f4_sdram.o
 *fill*         0x20028a1d        0x3 
 .bss           0x20028a20     0x1049 ./src/ra8875/ui_ra8875.o
 *fill*         0x20029a69        0x3 
 .bss           0x20029a6c      0x160 ./src/codec/audio.o
 .bss           0x20029bcc       0x90 ./src/codec/i2s.o
 .bss           0x20029c5c       0x2c ./src/button/tm_stm32f4_button.o
 .bss           0x20029c88       0x28 ./src/button/tm_stm32f4_delay.o
                0x20029c88                TM_Time
                0x20029c8c                TM_Time2
                0x20029ca8                TM_DELAY_Initialized
                0x20029cac                TM_TimingDelay
 .bss           0x20029cb0        0x3 ./src/main.o
                0x20029cb0                touch_skip
                0x20029cb2                modesw_state
 *fill*         0x20029cb3        0x1 
 .bss.__malloc_sbrk_start
                0x20029cb4        0x4 d:/stm32/gcc/bin/../lib/gcc/arm-none-eabi/4.9.3/../../../../arm-none-eabi/lib/armv7e-m/fpu\libg_nano.a(lib_a-nano-mallocr.o)
                0x20029cb4                __malloc_sbrk_start
 .bss.__malloc_free_list
                0x20029cb8        0x4 d:/stm32/gcc/bin/../lib/gcc/arm-none-eabi/4.9.3/../../../../arm-none-eabi/lib/armv7e-m/fpu\libg_nano.a(lib_a-nano-mallocr.o)
                0x20029cb8                __malloc_free_list
 *(COMMON)
 COMMON         0x20029cbc        0x4 ./system/src/newlib/_syscalls.o
                0x20029cbc                errno
 COMMON         0x20029cc0       0x94 ./src/ui/ui.o
                0x20029cc0                band_decod_mode
                0x20029ce8                pwmt
                0x20029cf8                band_filter_mode
                0x20029d20                band_dial_value
                0x20029d48                ews
 COMMON         0x20029d54      0x168 ./src/tm/tm_stm32f4_ili9341_button.o
                0x20029d54                LCD_Buttons
 *fill*         0x20029ebc        0x4 
 COMMON         0x20029ec0       0x48 ./src/si5351/si5351.o
                0x20029ec0                dev_status
                0x20029ec8                dev_int_status
                0x20029ed0                vfo
 COMMON         0x20029f08       0x40 ./src/ra8875/gsl1680.o
                0x20029f08                ts_event
 COMMON         0x20029f48       0xbc ./src/ra8875/ui_ra8875.o
                0x20029f48                ts
 COMMON         0x2002a004     0x3cb4 ./src/codec/audio.o
                0x2002a004                FIR_A
                0x2002a010                right_buffer
                0x2002a050                left_buffer
                0x2002a090                osc_i
                0x2002a190                lms1StateF32
                0x2002a490                lms2StateF32
                0x2002a790                lms1_instance
                0x2002a7a0                errsig2
                0x2002a8a4                lms2_nr_delay
                0x2002b8e4                interpState
                0x2002b9a4                errsig1
                0x2002baa8                FIR_Q
                0x2002bab4                lms1NormCoeff_f32
                0x2002bdb4                lms2NormCoeff_f32
                0x2002c0b4                osc_q
                0x2002c1b4                result
                0x2002c2b8                agc_delay
                0x2002c7f8                lms1Norm_instance
                0x2002c810                FIR_I
                0x2002c81c                decimState
                0x2002c8dc                sm
                0x2002c8f0                lms1_nr_delay
                0x2002d130                firState_A
                0x2002d1f0                lms2Norm_instance
                0x2002d208                ads
                0x2002dca8                lms2_instance
 COMMON         0x2002dcb8        0x4 ./src/button/tm_stm32f4_delay.o
                0x2002dcb8                mult
 COMMON         0x2002dcbc      0x678 ./src/main.o
                0x2002dcbc                temp
                0x2002dcda                fingers
                0x2002dcdc                rx_buffer
                0x2002dddc                tx_buffer
                0x2002dedc                df
                0x2002df20                buttonPressed
                0x2002df24                fc
 *(.bss_end .bss_end.*)
 .bss_end       0x2002e334        0x4 ./system/src/newlib/_startup.o
                0x2002e338                . = ALIGN (0x4)
                0x2002e338                __bss_end__ = .
                0x2002e338                _ebss = .

.noinit_CCMRAM
 *(.noinit.CCMRAM .noinit.CCMRAM.*)

.noinit         0x2002e338        0x0
                0x2002e338                _noinit = .
 *(.noinit .noinit.*)
                0x2002e338                . = ALIGN (0x4)
                0x2002e338                _end_noinit = .
                0x2002e338                PROVIDE (end, _end_noinit)
                0x2002e338                PROVIDE (_end, _end_noinit)
                0x2002e338                PROVIDE (__end, _end_noinit)
                0x2002e338                PROVIDE (__end__, _end_noinit)

._check_stack   0x2002e338      0x100
                0x2002e438                . = (. + _Minimum_Stack_Size)
 *fill*         0x2002e338      0x100 

.b1text
 *(.b1text)
 *(.b1rodata)
 *(.b1rodata.*)

.eb0text
 *(.eb0text)
 *(.eb0rodata)
 *(.eb0rodata.*)

.eb1text
 *(.eb1text)
 *(.eb1rodata)
 *(.eb1rodata.*)

.eb2text
 *(.eb2text)
 *(.eb2rodata)
 *(.eb2rodata.*)

.eb3text
 *(.eb3text)
 *(.eb3rodata)
 *(.eb3rodata.*)

.stab
 *(.stab)

.stabstr
 *(.stabstr)

.stab.excl
 *(.stab.excl)

.stab.exclstr
 *(.stab.exclstr)

.stab.index
 *(.stab.index)

.stab.indexstr
 *(.stab.indexstr)

.comment        0x00000000       0xe0
 *(.comment)
 .comment       0x00000000       0x70 ./system/src/stm32f4/misc.o
                                 0x71 (size before relaxing)
 .comment       0x00000000       0x71 ./system/src/stm32f4/stm32f4xx_dma.o
 .comment       0x00000000       0x71 ./system/src/stm32f4/stm32f4xx_fmc.o
 .comment       0x00000000       0x71 ./system/src/stm32f4/stm32f4xx_gpio.o
 .comment       0x00000000       0x71 ./system/src/stm32f4/stm32f4xx_i2c.o
 .comment       0x00000000       0x71 ./system/src/stm32f4/stm32f4xx_rcc.o
 .comment       0x00000000       0x71 ./system/src/stm32f4/stm32f4xx_spi.o
 .comment       0x00000000       0x71 ./system/src/stm32f4/stm32f4xx_tim.o
 .comment       0x00000000       0x71 ./system/src/newlib/_exit.o
 .comment       0x00000000       0x71 ./system/src/newlib/_sbrk.o
 .comment       0x00000000       0x71 ./system/src/newlib/_startup.o
 .comment       0x00000000       0x71 ./system/src/newlib/_syscalls.o
 .comment       0x00000000       0x71 ./system/src/cortexm/_initialize_hardware.o
 .comment       0x00000000       0x71 ./system/src/cortexm/_reset_hardware.o
 .comment       0x00000000       0x71 ./system/src/cortexm/exception_handlers.o
 .comment       0x00000000       0x71 ./system/src/cmsis/system_stm32f4xx.o
 .comment       0x00000000       0x71 ./system/src/cmsis/vectors_stm32f429xx.o
 .comment       0x00000000       0x71 ./src/ui/ui.o
 .comment       0x00000000       0x71 ./src/tm/tm_stm32f4_dma.o
 .comment       0x00000000       0x71 ./src/tm/tm_stm32f4_gpio.o
 .comment       0x00000000       0x71 ./src/tm/tm_stm32f4_i2c.o
 .comment       0x00000000       0x71 ./src/tm/tm_stm32f4_ili9341_button.o
 .comment       0x00000000       0x71 ./src/tm/tm_stm32f4_sdram.o
 .comment       0x00000000       0x71 ./src/stdio/printf.o
 .comment       0x00000000       0x71 ./src/si5351/si5351.o
 .comment       0x00000000       0x71 ./src/ra8875/gsl1680.o
 .comment       0x00000000       0x71 ./src/ra8875/ui_ra8875.o
 .comment       0x00000000       0x71 ./src/ra8875/ui_ra8875_fonts.o
 .comment       0x00000000       0x71 ./src/i2c/mchf_hw_i2c.o
 .comment       0x00000000       0x71 ./src/encoder/ui_rotary.o
 .comment       0x00000000       0x71 ./src/codec/audio.o
 .comment       0x00000000       0x71 ./src/codec/codec.o
 .comment       0x00000000       0x71 ./src/codec/i2s.o
 .comment       0x00000000       0x71 ./src/button/tm_stm32f4_button.o
 .comment       0x00000000       0x71 ./src/button/tm_stm32f4_delay.o
 .comment       0x00000000       0x71 ./src/main.o
 .comment       0x00000070       0x70 C:\Users\gmtii\workspace\disco-noFB-noUGUI\libs\libarm_cortexM4lf_math_r4p5.a(arm_const_structs.o)
                                 0x71 (size before relaxing)
 .comment       0x00000000       0x71 C:\Users\gmtii\workspace\disco-noFB-noUGUI\libs\libarm_cortexM4lf_math_r4p5.a(arm_common_tables.o)
 .comment       0x00000000       0x71 C:\Users\gmtii\workspace\disco-noFB-noUGUI\libs\libarm_cortexM4lf_math_r4p5.a(arm_fill_f32.o)
 .comment       0x00000000       0x71 C:\Users\gmtii\workspace\disco-noFB-noUGUI\libs\libarm_cortexM4lf_math_r4p5.a(arm_copy_q15.o)
 .comment       0x00000000       0x71 C:\Users\gmtii\workspace\disco-noFB-noUGUI\libs\libarm_cortexM4lf_math_r4p5.a(arm_copy_f32.o)
 .comment       0x00000000       0x71 C:\Users\gmtii\workspace\disco-noFB-noUGUI\libs\libarm_cortexM4lf_math_r4p5.a(arm_min_q15.o)
 .comment       0x00000000       0x71 C:\Users\gmtii\workspace\disco-noFB-noUGUI\libs\libarm_cortexM4lf_math_r4p5.a(arm_min_f32.o)
 .comment       0x00000000       0x71 C:\Users\gmtii\workspace\disco-noFB-noUGUI\libs\libarm_cortexM4lf_math_r4p5.a(arm_mean_q15.o)
 .comment       0x00000000       0x71 C:\Users\gmtii\workspace\disco-noFB-noUGUI\libs\libarm_cortexM4lf_math_r4p5.a(arm_mean_f32.o)
 .comment       0x00000000       0x71 C:\Users\gmtii\workspace\disco-noFB-noUGUI\libs\libarm_cortexM4lf_math_r4p5.a(arm_max_q15.o)
 .comment       0x00000000       0x71 C:\Users\gmtii\workspace\disco-noFB-noUGUI\libs\libarm_cortexM4lf_math_r4p5.a(arm_max_f32.o)
 .comment       0x00000000       0x71 C:\Users\gmtii\workspace\disco-noFB-noUGUI\libs\libarm_cortexM4lf_math_r4p5.a(arm_cfft_f32.o)
 .comment       0x00000000       0x71 C:\Users\gmtii\workspace\disco-noFB-noUGUI\libs\libarm_cortexM4lf_math_r4p5.a(arm_lms_norm_init_f32.o)
 .comment       0x00000000       0x71 C:\Users\gmtii\workspace\disco-noFB-noUGUI\libs\libarm_cortexM4lf_math_r4p5.a(arm_lms_norm_f32.o)
 .comment       0x00000000       0x71 C:\Users\gmtii\workspace\disco-noFB-noUGUI\libs\libarm_cortexM4lf_math_r4p5.a(arm_iir_lattice_f32.o)
 .comment       0x00000000       0x71 C:\Users\gmtii\workspace\disco-noFB-noUGUI\libs\libarm_cortexM4lf_math_r4p5.a(arm_fir_interpolate_f32.o)
 .comment       0x00000000       0x71 C:\Users\gmtii\workspace\disco-noFB-noUGUI\libs\libarm_cortexM4lf_math_r4p5.a(arm_fir_init_f32.o)
 .comment       0x00000000       0x71 C:\Users\gmtii\workspace\disco-noFB-noUGUI\libs\libarm_cortexM4lf_math_r4p5.a(arm_fir_f32.o)
 .comment       0x00000000       0x71 C:\Users\gmtii\workspace\disco-noFB-noUGUI\libs\libarm_cortexM4lf_math_r4p5.a(arm_fir_decimate_f32.o)
 .comment       0x00000000       0x71 C:\Users\gmtii\workspace\disco-noFB-noUGUI\libs\libarm_cortexM4lf_math_r4p5.a(arm_cmplx_mag_f32.o)
 .comment       0x00000000       0x71 C:\Users\gmtii\workspace\disco-noFB-noUGUI\libs\libarm_cortexM4lf_math_r4p5.a(arm_sin_f32.o)
 .comment       0x00000000       0x71 C:\Users\gmtii\workspace\disco-noFB-noUGUI\libs\libarm_cortexM4lf_math_r4p5.a(arm_cos_f32.o)
 .comment       0x00000000       0x71 C:\Users\gmtii\workspace\disco-noFB-noUGUI\libs\libarm_cortexM4lf_math_r4p5.a(arm_sub_f32.o)
 .comment       0x00000000       0x71 C:\Users\gmtii\workspace\disco-noFB-noUGUI\libs\libarm_cortexM4lf_math_r4p5.a(arm_scale_f32.o)
 .comment       0x00000000       0x71 C:\Users\gmtii\workspace\disco-noFB-noUGUI\libs\libarm_cortexM4lf_math_r4p5.a(arm_mult_f32.o)
 .comment       0x00000000       0x71 C:\Users\gmtii\workspace\disco-noFB-noUGUI\libs\libarm_cortexM4lf_math_r4p5.a(arm_add_f32.o)
 .comment       0x00000000       0x71 C:\Users\gmtii\workspace\disco-noFB-noUGUI\libs\libarm_cortexM4lf_math_r4p5.a(arm_cfft_radix8_f32.o)

.ARM.attributes
                0x00000000       0x39
 .ARM.attributes
                0x00000000       0x39 ./system/src/stm32f4/misc.o
 .ARM.attributes
                0x00000039       0x39 ./system/src/stm32f4/stm32f4xx_dma.o
 .ARM.attributes
                0x00000072       0x39 ./system/src/stm32f4/stm32f4xx_fmc.o
 .ARM.attributes
                0x000000ab       0x39 ./system/src/stm32f4/stm32f4xx_gpio.o
 .ARM.attributes
                0x000000e4       0x39 ./system/src/stm32f4/stm32f4xx_i2c.o
 .ARM.attributes
                0x0000011d       0x39 ./system/src/stm32f4/stm32f4xx_rcc.o
 .ARM.attributes
                0x00000156       0x39 ./system/src/stm32f4/stm32f4xx_spi.o
 .ARM.attributes
                0x0000018f       0x39 ./system/src/stm32f4/stm32f4xx_tim.o
 .ARM.attributes
                0x000001c8       0x39 ./system/src/newlib/_exit.o
 .ARM.attributes
                0x00000201       0x39 ./system/src/newlib/_sbrk.o
 .ARM.attributes
                0x0000023a       0x39 ./system/src/newlib/_startup.o
 .ARM.attributes
                0x00000273       0x39 ./system/src/newlib/_syscalls.o
 .ARM.attributes
                0x000002ac       0x39 ./system/src/cortexm/_initialize_hardware.o
 .ARM.attributes
                0x000002e5       0x39 ./system/src/cortexm/_reset_hardware.o
 .ARM.attributes
                0x0000031e       0x39 ./system/src/cortexm/exception_handlers.o
 .ARM.attributes
                0x00000357       0x39 ./system/src/cmsis/system_stm32f4xx.o
 .ARM.attributes
                0x00000390       0x39 ./system/src/cmsis/vectors_stm32f429xx.o
 .ARM.attributes
                0x000003c9       0x39 ./src/ui/ui.o
 .ARM.attributes
                0x00000402       0x39 ./src/tm/tm_stm32f4_dma.o
 .ARM.attributes
                0x0000043b       0x39 ./src/tm/tm_stm32f4_gpio.o
 .ARM.attributes
                0x00000474       0x39 ./src/tm/tm_stm32f4_i2c.o
 .ARM.attributes
                0x000004ad       0x39 ./src/tm/tm_stm32f4_ili9341_button.o
 .ARM.attributes
                0x000004e6       0x39 ./src/tm/tm_stm32f4_sdram.o
 .ARM.attributes
                0x0000051f       0x39 ./src/stdio/printf.o
 .ARM.attributes
                0x00000558       0x39 ./src/si5351/si5351.o
 .ARM.attributes
                0x00000591       0x39 ./src/ra8875/gsl1680.o
 .ARM.attributes
                0x000005ca       0x39 ./src/ra8875/ui_ra8875.o
 .ARM.attributes
                0x00000603       0x39 ./src/ra8875/ui_ra8875_fonts.o
 .ARM.attributes
                0x0000063c       0x39 ./src/i2c/mchf_hw_i2c.o
 .ARM.attributes
                0x00000675       0x39 ./src/encoder/ui_rotary.o
 .ARM.attributes
                0x000006ae       0x39 ./src/codec/audio.o
 .ARM.attributes
                0x000006e7       0x39 ./src/codec/codec.o
 .ARM.attributes
                0x00000720       0x39 ./src/codec/i2s.o
 .ARM.attributes
                0x00000759       0x39 ./src/button/tm_stm32f4_button.o
 .ARM.attributes
                0x00000792       0x39 ./src/button/tm_stm32f4_delay.o
 .ARM.attributes
                0x000007cb       0x39 ./src/main.o
 .ARM.attributes
                0x00000804       0x39 C:\Users\gmtii\workspace\disco-noFB-noUGUI\libs\libarm_cortexM4lf_math_r4p5.a(arm_const_structs.o)
 .ARM.attributes
                0x0000083d       0x39 C:\Users\gmtii\workspace\disco-noFB-noUGUI\libs\libarm_cortexM4lf_math_r4p5.a(arm_common_tables.o)
 .ARM.attributes
                0x00000876       0x39 C:\Users\gmtii\workspace\disco-noFB-noUGUI\libs\libarm_cortexM4lf_math_r4p5.a(arm_fill_f32.o)
 .ARM.attributes
                0x000008af       0x39 C:\Users\gmtii\workspace\disco-noFB-noUGUI\libs\libarm_cortexM4lf_math_r4p5.a(arm_copy_q15.o)
 .ARM.attributes
                0x000008e8       0x39 C:\Users\gmtii\workspace\disco-noFB-noUGUI\libs\libarm_cortexM4lf_math_r4p5.a(arm_copy_f32.o)
 .ARM.attributes
                0x00000921       0x39 C:\Users\gmtii\workspace\disco-noFB-noUGUI\libs\libarm_cortexM4lf_math_r4p5.a(arm_min_q15.o)
 .ARM.attributes
                0x0000095a       0x39 C:\Users\gmtii\workspace\disco-noFB-noUGUI\libs\libarm_cortexM4lf_math_r4p5.a(arm_min_f32.o)
 .ARM.attributes
                0x00000993       0x39 C:\Users\gmtii\workspace\disco-noFB-noUGUI\libs\libarm_cortexM4lf_math_r4p5.a(arm_mean_q15.o)
 .ARM.attributes
                0x000009cc       0x39 C:\Users\gmtii\workspace\disco-noFB-noUGUI\libs\libarm_cortexM4lf_math_r4p5.a(arm_mean_f32.o)
 .ARM.attributes
                0x00000a05       0x39 C:\Users\gmtii\workspace\disco-noFB-noUGUI\libs\libarm_cortexM4lf_math_r4p5.a(arm_max_q15.o)
 .ARM.attributes
                0x00000a3e       0x39 C:\Users\gmtii\workspace\disco-noFB-noUGUI\libs\libarm_cortexM4lf_math_r4p5.a(arm_max_f32.o)
 .ARM.attributes
                0x00000a77       0x39 C:\Users\gmtii\workspace\disco-noFB-noUGUI\libs\libarm_cortexM4lf_math_r4p5.a(arm_cfft_f32.o)
 .ARM.attributes
                0x00000ab0       0x39 C:\Users\gmtii\workspace\disco-noFB-noUGUI\libs\libarm_cortexM4lf_math_r4p5.a(arm_lms_norm_init_f32.o)
 .ARM.attributes
                0x00000ae9       0x39 C:\Users\gmtii\workspace\disco-noFB-noUGUI\libs\libarm_cortexM4lf_math_r4p5.a(arm_lms_norm_f32.o)
 .ARM.attributes
                0x00000b22       0x39 C:\Users\gmtii\workspace\disco-noFB-noUGUI\libs\libarm_cortexM4lf_math_r4p5.a(arm_iir_lattice_f32.o)
 .ARM.attributes
                0x00000b5b       0x39 C:\Users\gmtii\workspace\disco-noFB-noUGUI\libs\libarm_cortexM4lf_math_r4p5.a(arm_fir_interpolate_f32.o)
 .ARM.attributes
                0x00000b94       0x39 C:\Users\gmtii\workspace\disco-noFB-noUGUI\libs\libarm_cortexM4lf_math_r4p5.a(arm_fir_init_f32.o)
 .ARM.attributes
                0x00000bcd       0x39 C:\Users\gmtii\workspace\disco-noFB-noUGUI\libs\libarm_cortexM4lf_math_r4p5.a(arm_fir_f32.o)
 .ARM.attributes
                0x00000c06       0x39 C:\Users\gmtii\workspace\disco-noFB-noUGUI\libs\libarm_cortexM4lf_math_r4p5.a(arm_fir_decimate_f32.o)
 .ARM.attributes
                0x00000c3f       0x39 C:\Users\gmtii\workspace\disco-noFB-noUGUI\libs\libarm_cortexM4lf_math_r4p5.a(arm_cmplx_mag_f32.o)
 .ARM.attributes
                0x00000c78       0x39 C:\Users\gmtii\workspace\disco-noFB-noUGUI\libs\libarm_cortexM4lf_math_r4p5.a(arm_sin_f32.o)
 .ARM.attributes
                0x00000cb1       0x39 C:\Users\gmtii\workspace\disco-noFB-noUGUI\libs\libarm_cortexM4lf_math_r4p5.a(arm_cos_f32.o)
 .ARM.attributes
                0x00000cea       0x39 C:\Users\gmtii\workspace\disco-noFB-noUGUI\libs\libarm_cortexM4lf_math_r4p5.a(arm_sub_f32.o)
 .ARM.attributes
                0x00000d23       0x39 C:\Users\gmtii\workspace\disco-noFB-noUGUI\libs\libarm_cortexM4lf_math_r4p5.a(arm_scale_f32.o)
 .ARM.attributes
                0x00000d5c       0x39 C:\Users\gmtii\workspace\disco-noFB-noUGUI\libs\libarm_cortexM4lf_math_r4p5.a(arm_mult_f32.o)
 .ARM.attributes
                0x00000d95       0x39 C:\Users\gmtii\workspace\disco-noFB-noUGUI\libs\libarm_cortexM4lf_math_r4p5.a(arm_add_f32.o)
 .ARM.attributes
                0x00000dce       0x25 C:\Users\gmtii\workspace\disco-noFB-noUGUI\libs\libarm_cortexM4lf_math_r4p5.a(arm_bitreversal2.o)
 .ARM.attributes
                0x00000df3       0x39 C:\Users\gmtii\workspace\disco-noFB-noUGUI\libs\libarm_cortexM4lf_math_r4p5.a(arm_cfft_radix8_f32.o)
 .ARM.attributes
                0x00000e2c       0x36 C:\Users\gmtii\workspace\disco-noFB-noUGUI\libs\libm.a(lib_a-s_cos.o)
 .ARM.attributes
                0x00000e62       0x36 C:\Users\gmtii\workspace\disco-noFB-noUGUI\libs\libm.a(lib_a-s_pow10.o)
 .ARM.attributes
                0x00000e98       0x36 C:\Users\gmtii\workspace\disco-noFB-noUGUI\libs\libm.a(lib_a-s_round.o)
 .ARM.attributes
                0x00000ece       0x36 C:\Users\gmtii\workspace\disco-noFB-noUGUI\libs\libm.a(lib_a-s_sin.o)
 .ARM.attributes
                0x00000f04       0x36 C:\Users\gmtii\workspace\disco-noFB-noUGUI\libs\libm.a(lib_a-w_log10.o)
 .ARM.attributes
                0x00000f3a       0x36 C:\Users\gmtii\workspace\disco-noFB-noUGUI\libs\libm.a(lib_a-w_pow.o)
 .ARM.attributes
                0x00000f70       0x36 C:\Users\gmtii\workspace\disco-noFB-noUGUI\libs\libm.a(lib_a-w_sqrt.o)
 .ARM.attributes
                0x00000fa6       0x36 C:\Users\gmtii\workspace\disco-noFB-noUGUI\libs\libm.a(lib_a-wf_log10.o)
 .ARM.attributes
                0x00000fdc       0x36 C:\Users\gmtii\workspace\disco-noFB-noUGUI\libs\libm.a(lib_a-wf_pow.o)
 .ARM.attributes
                0x00001012       0x36 C:\Users\gmtii\workspace\disco-noFB-noUGUI\libs\libm.a(lib_a-wf_sqrt.o)
 .ARM.attributes
                0x00001048       0x36 C:\Users\gmtii\workspace\disco-noFB-noUGUI\libs\libm.a(lib_a-e_log10.o)
 .ARM.attributes
                0x0000107e       0x36 C:\Users\gmtii\workspace\disco-noFB-noUGUI\libs\libm.a(lib_a-e_pow.o)
 .ARM.attributes
                0x000010b4       0x36 C:\Users\gmtii\workspace\disco-noFB-noUGUI\libs\libm.a(lib_a-e_rem_pio2.o)
 .ARM.attributes
                0x000010ea       0x36 C:\Users\gmtii\workspace\disco-noFB-noUGUI\libs\libm.a(lib_a-e_sqrt.o)
 .ARM.attributes
                0x00001120       0x36 C:\Users\gmtii\workspace\disco-noFB-noUGUI\libs\libm.a(lib_a-ef_log10.o)
 .ARM.attributes
                0x00001156       0x36 C:\Users\gmtii\workspace\disco-noFB-noUGUI\libs\libm.a(lib_a-ef_pow.o)
 .ARM.attributes
                0x0000118c       0x36 C:\Users\gmtii\workspace\disco-noFB-noUGUI\libs\libm.a(lib_a-ef_sqrt.o)
 .ARM.attributes
                0x000011c2       0x36 C:\Users\gmtii\workspace\disco-noFB-noUGUI\libs\libm.a(lib_a-k_cos.o)
 .ARM.attributes
                0x000011f8       0x36 C:\Users\gmtii\workspace\disco-noFB-noUGUI\libs\libm.a(lib_a-k_rem_pio2.o)
 .ARM.attributes
                0x0000122e       0x36 C:\Users\gmtii\workspace\disco-noFB-noUGUI\libs\libm.a(lib_a-k_sin.o)
 .ARM.attributes
                0x00001264       0x36 C:\Users\gmtii\workspace\disco-noFB-noUGUI\libs\libm.a(lib_a-s_fabs.o)
 .ARM.attributes
                0x0000129a       0x36 C:\Users\gmtii\workspace\disco-noFB-noUGUI\libs\libm.a(lib_a-s_finite.o)
 .ARM.attributes
                0x000012d0       0x36 C:\Users\gmtii\workspace\disco-noFB-noUGUI\libs\libm.a(lib_a-s_floor.o)
 .ARM.attributes
                0x00001306       0x36 C:\Users\gmtii\workspace\disco-noFB-noUGUI\libs\libm.a(lib_a-s_fpclassify.o)
 .ARM.attributes
                0x0000133c       0x36 C:\Users\gmtii\workspace\disco-noFB-noUGUI\libs\libm.a(lib_a-s_lib_ver.o)
 .ARM.attributes
                0x00001372       0x36 C:\Users\gmtii\workspace\disco-noFB-noUGUI\libs\libm.a(lib_a-s_matherr.o)
 .ARM.attributes
                0x000013a8       0x36 C:\Users\gmtii\workspace\disco-noFB-noUGUI\libs\libm.a(lib_a-s_nan.o)
 .ARM.attributes
                0x000013de       0x36 C:\Users\gmtii\workspace\disco-noFB-noUGUI\libs\libm.a(lib_a-s_rint.o)
 .ARM.attributes
                0x00001414       0x36 C:\Users\gmtii\workspace\disco-noFB-noUGUI\libs\libm.a(lib_a-s_scalbn.o)
 .ARM.attributes
                0x0000144a       0x36 C:\Users\gmtii\workspace\disco-noFB-noUGUI\libs\libm.a(lib_a-sf_fabs.o)
 .ARM.attributes
                0x00001480       0x36 C:\Users\gmtii\workspace\disco-noFB-noUGUI\libs\libm.a(lib_a-sf_finite.o)
 .ARM.attributes
                0x000014b6       0x36 C:\Users\gmtii\workspace\disco-noFB-noUGUI\libs\libm.a(lib_a-sf_fpclassify.o)
 .ARM.attributes
                0x000014ec       0x36 C:\Users\gmtii\workspace\disco-noFB-noUGUI\libs\libm.a(lib_a-sf_nan.o)
 .ARM.attributes
                0x00001522       0x36 C:\Users\gmtii\workspace\disco-noFB-noUGUI\libs\libm.a(lib_a-sf_scalbn.o)
 .ARM.attributes
                0x00001558       0x36 C:\Users\gmtii\workspace\disco-noFB-noUGUI\libs\libm.a(lib_a-e_log.o)
 .ARM.attributes
                0x0000158e       0x36 C:\Users\gmtii\workspace\disco-noFB-noUGUI\libs\libm.a(lib_a-ef_log.o)
 .ARM.attributes
                0x000015c4       0x36 C:\Users\gmtii\workspace\disco-noFB-noUGUI\libs\libm.a(lib_a-s_copysign.o)
 .ARM.attributes
                0x000015fa       0x36 C:\Users\gmtii\workspace\disco-noFB-noUGUI\libs\libm.a(lib_a-sf_copysign.o)
 .ARM.attributes
                0x00001630       0x22 d:/stm32/gcc/bin/../lib/gcc/arm-none-eabi/4.9.3/armv7e-m/fpu\libgcc.a(_arm_addsubdf3.o)
 .ARM.attributes
                0x00001652       0x22 d:/stm32/gcc/bin/../lib/gcc/arm-none-eabi/4.9.3/armv7e-m/fpu\libgcc.a(_arm_muldivdf3.o)
 .ARM.attributes
                0x00001674       0x22 d:/stm32/gcc/bin/../lib/gcc/arm-none-eabi/4.9.3/armv7e-m/fpu\libgcc.a(_arm_cmpdf2.o)
 .ARM.attributes
                0x00001696       0x22 d:/stm32/gcc/bin/../lib/gcc/arm-none-eabi/4.9.3/armv7e-m/fpu\libgcc.a(_arm_fixdfsi.o)
 .ARM.attributes
                0x000016b8       0x22 d:/stm32/gcc/bin/../lib/gcc/arm-none-eabi/4.9.3/armv7e-m/fpu\libgcc.a(_arm_fixunsdfsi.o)
 .ARM.attributes
                0x000016da       0x22 d:/stm32/gcc/bin/../lib/gcc/arm-none-eabi/4.9.3/armv7e-m/fpu\libgcc.a(_arm_truncdfsf2.o)
 .ARM.attributes
                0x000016fc       0x22 d:/stm32/gcc/bin/../lib/gcc/arm-none-eabi/4.9.3/armv7e-m/fpu\libgcc.a(_aeabi_uldivmod.o)
 .ARM.attributes
                0x0000171e       0x34 d:/stm32/gcc/bin/../lib/gcc/arm-none-eabi/4.9.3/armv7e-m/fpu\libgcc.a(bpabi.o)
 .ARM.attributes
                0x00001752       0x22 d:/stm32/gcc/bin/../lib/gcc/arm-none-eabi/4.9.3/armv7e-m/fpu\libgcc.a(_dvmd_tls.o)
 .ARM.attributes
                0x00001774       0x34 d:/stm32/gcc/bin/../lib/gcc/arm-none-eabi/4.9.3/armv7e-m/fpu\libgcc.a(_divdi3.o)
 .ARM.attributes
                0x000017a8       0x34 d:/stm32/gcc/bin/../lib/gcc/arm-none-eabi/4.9.3/armv7e-m/fpu\libgcc.a(_udivdi3.o)
 .ARM.attributes
                0x000017dc       0x34 d:/stm32/gcc/bin/../lib/gcc/arm-none-eabi/4.9.3/../../../../arm-none-eabi/lib/armv7e-m/fpu\libg_nano.a(lib_a-errno.o)
 .ARM.attributes
                0x00001810       0x34 d:/stm32/gcc/bin/../lib/gcc/arm-none-eabi/4.9.3/../../../../arm-none-eabi/lib/armv7e-m/fpu\libg_nano.a(lib_a-malloc.o)
 .ARM.attributes
                0x00001844       0x34 d:/stm32/gcc/bin/../lib/gcc/arm-none-eabi/4.9.3/../../../../arm-none-eabi/lib/armv7e-m/fpu\libg_nano.a(lib_a-memset.o)
 .ARM.attributes
                0x00001878       0x34 d:/stm32/gcc/bin/../lib/gcc/arm-none-eabi/4.9.3/../../../../arm-none-eabi/lib/armv7e-m/fpu\libg_nano.a(lib_a-nano-mallocr.o)
 .ARM.attributes
                0x000018ac       0x34 d:/stm32/gcc/bin/../lib/gcc/arm-none-eabi/4.9.3/../../../../arm-none-eabi/lib/armv7e-m/fpu\libg_nano.a(lib_a-sbrkr.o)

.debug
 *(.debug)

.line
 *(.line)

.debug_srcinfo
 *(.debug_srcinfo)

.debug_sfnames
 *(.debug_sfnames)

.debug_aranges  0x00000000     0x18b8
 *(.debug_aranges)
 .debug_aranges
                0x00000000       0x40 ./system/src/stm32f4/misc.o
 .debug_aranges
                0x00000040       0xb0 ./system/src/stm32f4/stm32f4xx_dma.o
 .debug_aranges
                0x000000f0       0xf0 ./system/src/stm32f4/stm32f4xx_fmc.o
 .debug_aranges
                0x000001e0       0x88 ./system/src/stm32f4/stm32f4xx_gpio.o
 .debug_aranges
                0x00000268      0x130 ./system/src/stm32f4/stm32f4xx_i2c.o
 .debug_aranges
                0x00000398      0x1c0 ./system/src/stm32f4/stm32f4xx_rcc.o
 .debug_aranges
                0x00000558       0xe0 ./system/src/stm32f4/stm32f4xx_spi.o
 .debug_aranges
                0x00000638      0x2d8 ./system/src/stm32f4/stm32f4xx_tim.o
 .debug_aranges
                0x00000910       0x28 ./system/src/newlib/_exit.o
 .debug_aranges
                0x00000938       0x20 ./system/src/newlib/_sbrk.o
 .debug_aranges
                0x00000958       0x40 ./system/src/newlib/_startup.o
 .debug_aranges
                0x00000998       0xd0 ./system/src/newlib/_syscalls.o
 .debug_aranges
                0x00000a68       0x28 ./system/src/cortexm/_initialize_hardware.o
 .debug_aranges
                0x00000a90       0x20 ./system/src/cortexm/_reset_hardware.o
 .debug_aranges
                0x00000ab0       0x80 ./system/src/cortexm/exception_handlers.o
 .debug_aranges
                0x00000b30       0x28 ./system/src/cmsis/system_stm32f4xx.o
 .debug_aranges
                0x00000b58       0x20 ./system/src/cmsis/vectors_stm32f429xx.o
 .debug_aranges
                0x00000b78      0x168 ./src/ui/ui.o
 .debug_aranges
                0x00000ce0       0xe0 ./src/tm/tm_stm32f4_dma.o
 .debug_aranges
                0x00000dc0       0x98 ./src/tm/tm_stm32f4_gpio.o
 .debug_aranges
                0x00000e58       0x98 ./src/tm/tm_stm32f4_i2c.o
 .debug_aranges
                0x00000ef0       0x58 ./src/tm/tm_stm32f4_ili9341_button.o
 .debug_aranges
                0x00000f48       0x28 ./src/tm/tm_stm32f4_sdram.o
 .debug_aranges
                0x00000f70       0xa0 ./src/stdio/printf.o
 .debug_aranges
                0x00001010       0xd0 ./src/si5351/si5351.o
 .debug_aranges
                0x000010e0       0x58 ./src/ra8875/gsl1680.o
 .debug_aranges
                0x00001138      0x178 ./src/ra8875/ui_ra8875.o
 .debug_aranges
                0x000012b0       0x18 ./src/ra8875/ui_ra8875_fonts.o
 .debug_aranges
                0x000012c8       0x48 ./src/i2c/mchf_hw_i2c.o
 .debug_aranges
                0x00001310       0x38 ./src/encoder/ui_rotary.o
 .debug_aranges
                0x00001348       0x40 ./src/codec/audio.o
 .debug_aranges
                0x00001388       0x58 ./src/codec/codec.o
 .debug_aranges
                0x000013e0       0x38 ./src/codec/i2s.o
 .debug_aranges
                0x00001418       0x38 ./src/button/tm_stm32f4_button.o
 .debug_aranges
                0x00001450       0x70 ./src/button/tm_stm32f4_delay.o
 .debug_aranges
                0x000014c0       0x78 ./src/main.o
 .debug_aranges
                0x00001538       0x18 C:\Users\gmtii\workspace\disco-noFB-noUGUI\libs\libarm_cortexM4lf_math_r4p5.a(arm_const_structs.o)
 .debug_aranges
                0x00001550       0x18 C:\Users\gmtii\workspace\disco-noFB-noUGUI\libs\libarm_cortexM4lf_math_r4p5.a(arm_common_tables.o)
 .debug_aranges
                0x00001568       0x20 C:\Users\gmtii\workspace\disco-noFB-noUGUI\libs\libarm_cortexM4lf_math_r4p5.a(arm_fill_f32.o)
 .debug_aranges
                0x00001588       0x20 C:\Users\gmtii\workspace\disco-noFB-noUGUI\libs\libarm_cortexM4lf_math_r4p5.a(arm_copy_q15.o)
 .debug_aranges
                0x000015a8       0x20 C:\Users\gmtii\workspace\disco-noFB-noUGUI\libs\libarm_cortexM4lf_math_r4p5.a(arm_copy_f32.o)
 .debug_aranges
                0x000015c8       0x20 C:\Users\gmtii\workspace\disco-noFB-noUGUI\libs\libarm_cortexM4lf_math_r4p5.a(arm_min_q15.o)
 .debug_aranges
                0x000015e8       0x20 C:\Users\gmtii\workspace\disco-noFB-noUGUI\libs\libarm_cortexM4lf_math_r4p5.a(arm_min_f32.o)
 .debug_aranges
                0x00001608       0x20 C:\Users\gmtii\workspace\disco-noFB-noUGUI\libs\libarm_cortexM4lf_math_r4p5.a(arm_mean_q15.o)
 .debug_aranges
                0x00001628       0x20 C:\Users\gmtii\workspace\disco-noFB-noUGUI\libs\libarm_cortexM4lf_math_r4p5.a(arm_mean_f32.o)
 .debug_aranges
                0x00001648       0x20 C:\Users\gmtii\workspace\disco-noFB-noUGUI\libs\libarm_cortexM4lf_math_r4p5.a(arm_max_q15.o)
 .debug_aranges
                0x00001668       0x20 C:\Users\gmtii\workspace\disco-noFB-noUGUI\libs\libarm_cortexM4lf_math_r4p5.a(arm_max_f32.o)
 .debug_aranges
                0x00001688       0x30 C:\Users\gmtii\workspace\disco-noFB-noUGUI\libs\libarm_cortexM4lf_math_r4p5.a(arm_cfft_f32.o)
 .debug_aranges
                0x000016b8       0x20 C:\Users\gmtii\workspace\disco-noFB-noUGUI\libs\libarm_cortexM4lf_math_r4p5.a(arm_lms_norm_init_f32.o)
 .debug_aranges
                0x000016d8       0x20 C:\Users\gmtii\workspace\disco-noFB-noUGUI\libs\libarm_cortexM4lf_math_r4p5.a(arm_lms_norm_f32.o)
 .debug_aranges
                0x000016f8       0x20 C:\Users\gmtii\workspace\disco-noFB-noUGUI\libs\libarm_cortexM4lf_math_r4p5.a(arm_iir_lattice_f32.o)
 .debug_aranges
                0x00001718       0x20 C:\Users\gmtii\workspace\disco-noFB-noUGUI\libs\libarm_cortexM4lf_math_r4p5.a(arm_fir_interpolate_f32.o)
 .debug_aranges
                0x00001738       0x20 C:\Users\gmtii\workspace\disco-noFB-noUGUI\libs\libarm_cortexM4lf_math_r4p5.a(arm_fir_init_f32.o)
 .debug_aranges
                0x00001758       0x20 C:\Users\gmtii\workspace\disco-noFB-noUGUI\libs\libarm_cortexM4lf_math_r4p5.a(arm_fir_f32.o)
 .debug_aranges
                0x00001778       0x20 C:\Users\gmtii\workspace\disco-noFB-noUGUI\libs\libarm_cortexM4lf_math_r4p5.a(arm_fir_decimate_f32.o)
 .debug_aranges
                0x00001798       0x20 C:\Users\gmtii\workspace\disco-noFB-noUGUI\libs\libarm_cortexM4lf_math_r4p5.a(arm_cmplx_mag_f32.o)
 .debug_aranges
                0x000017b8       0x20 C:\Users\gmtii\workspace\disco-noFB-noUGUI\libs\libarm_cortexM4lf_math_r4p5.a(arm_sin_f32.o)
 .debug_aranges
                0x000017d8       0x20 C:\Users\gmtii\workspace\disco-noFB-noUGUI\libs\libarm_cortexM4lf_math_r4p5.a(arm_cos_f32.o)
 .debug_aranges
                0x000017f8       0x20 C:\Users\gmtii\workspace\disco-noFB-noUGUI\libs\libarm_cortexM4lf_math_r4p5.a(arm_sub_f32.o)
 .debug_aranges
                0x00001818       0x20 C:\Users\gmtii\workspace\disco-noFB-noUGUI\libs\libarm_cortexM4lf_math_r4p5.a(arm_scale_f32.o)
 .debug_aranges
                0x00001838       0x20 C:\Users\gmtii\workspace\disco-noFB-noUGUI\libs\libarm_cortexM4lf_math_r4p5.a(arm_mult_f32.o)
 .debug_aranges
                0x00001858       0x20 C:\Users\gmtii\workspace\disco-noFB-noUGUI\libs\libarm_cortexM4lf_math_r4p5.a(arm_add_f32.o)
 .debug_aranges
                0x00001878       0x20 C:\Users\gmtii\workspace\disco-noFB-noUGUI\libs\libarm_cortexM4lf_math_r4p5.a(arm_bitreversal2.o)
 .debug_aranges
                0x00001898       0x20 C:\Users\gmtii\workspace\disco-noFB-noUGUI\libs\libarm_cortexM4lf_math_r4p5.a(arm_cfft_radix8_f32.o)

.debug_pubnames
 *(.debug_pubnames)

.debug_info     0x00000000    0x31870
 *(.debug_info .gnu.linkonce.wi.*)
 .debug_info    0x00000000      0x547 ./system/src/stm32f4/misc.o
 .debug_info    0x00000547      0x73f ./system/src/stm32f4/stm32f4xx_dma.o
 .debug_info    0x00000c86      0xd05 ./system/src/stm32f4/stm32f4xx_fmc.o
 .debug_info    0x0000198b      0x845 ./system/src/stm32f4/stm32f4xx_gpio.o
 .debug_info    0x000021d0      0xc57 ./system/src/stm32f4/stm32f4xx_i2c.o
 .debug_info    0x00002e27      0xf0c ./system/src/stm32f4/stm32f4xx_rcc.o
 .debug_info    0x00003d33      0xc9c ./system/src/stm32f4/stm32f4xx_spi.o
 .debug_info    0x000049cf     0x24d5 ./system/src/stm32f4/stm32f4xx_tim.o
 .debug_info    0x00006ea4      0x100 ./system/src/newlib/_exit.o
 .debug_info    0x00006fa4      0x121 ./system/src/newlib/_sbrk.o
 .debug_info    0x000070c5      0x4f4 ./system/src/newlib/_startup.o
 .debug_info    0x000075b9      0x90b ./system/src/newlib/_syscalls.o
 .debug_info    0x00007ec4      0x2b1 ./system/src/cortexm/_initialize_hardware.o
 .debug_info    0x00008175      0x2b2 ./system/src/cortexm/_reset_hardware.o
 .debug_info    0x00008427      0x294 ./system/src/cortexm/exception_handlers.o
 .debug_info    0x000086bb      0x763 ./system/src/cmsis/system_stm32f4xx.o
 .debug_info    0x00008e1e       0xcd ./system/src/cmsis/vectors_stm32f429xx.o
 .debug_info    0x00008eeb     0x56ca ./src/ui/ui.o
 .debug_info    0x0000e5b5      0xcad ./src/tm/tm_stm32f4_dma.o
 .debug_info    0x0000f262      0x9a4 ./src/tm/tm_stm32f4_gpio.o
 .debug_info    0x0000fc06     0x1188 ./src/tm/tm_stm32f4_i2c.o
 .debug_info    0x00010d8e     0x592c ./src/tm/tm_stm32f4_ili9341_button.o
 .debug_info    0x000166ba      0x8be ./src/tm/tm_stm32f4_sdram.o
 .debug_info    0x00016f78     0x136a ./src/stdio/printf.o
 .debug_info    0x000182e2     0x1f61 ./src/si5351/si5351.o
 .debug_info    0x0001a243      0xb16 ./src/ra8875/gsl1680.o
 .debug_info    0x0001ad59     0x60ef ./src/ra8875/ui_ra8875.o
 .debug_info    0x00020e48      0x31c ./src/ra8875/ui_ra8875_fonts.o
 .debug_info    0x00021164     0x1103 ./src/i2c/mchf_hw_i2c.o
 .debug_info    0x00022267      0x9e3 ./src/encoder/ui_rotary.o
 .debug_info    0x00022c4a     0x24de ./src/codec/audio.o
 .debug_info    0x00025128      0xc26 ./src/codec/codec.o
 .debug_info    0x00025d4e     0x11a7 ./src/codec/i2s.o
 .debug_info    0x00026ef5      0x545 ./src/button/tm_stm32f4_button.o
 .debug_info    0x0002743a      0xada ./src/button/tm_stm32f4_delay.o
 .debug_info    0x00027f14     0x4ff0 ./src/main.o
 .debug_info    0x0002cf04      0x9f5 C:\Users\gmtii\workspace\disco-noFB-noUGUI\libs\libarm_cortexM4lf_math_r4p5.a(arm_const_structs.o)
 .debug_info    0x0002d8f9      0x99d C:\Users\gmtii\workspace\disco-noFB-noUGUI\libs\libarm_cortexM4lf_math_r4p5.a(arm_common_tables.o)
 .debug_info    0x0002e296      0x145 C:\Users\gmtii\workspace\disco-noFB-noUGUI\libs\libarm_cortexM4lf_math_r4p5.a(arm_fill_f32.o)
 .debug_info    0x0002e3db      0x13a C:\Users\gmtii\workspace\disco-noFB-noUGUI\libs\libarm_cortexM4lf_math_r4p5.a(arm_copy_q15.o)
 .debug_info    0x0002e515      0x14a C:\Users\gmtii\workspace\disco-noFB-noUGUI\libs\libarm_cortexM4lf_math_r4p5.a(arm_copy_f32.o)
 .debug_info    0x0002e65f      0x17e C:\Users\gmtii\workspace\disco-noFB-noUGUI\libs\libarm_cortexM4lf_math_r4p5.a(arm_min_q15.o)
 .debug_info    0x0002e7dd      0x164 C:\Users\gmtii\workspace\disco-noFB-noUGUI\libs\libarm_cortexM4lf_math_r4p5.a(arm_min_f32.o)
 .debug_info    0x0002e941      0x15f C:\Users\gmtii\workspace\disco-noFB-noUGUI\libs\libarm_cortexM4lf_math_r4p5.a(arm_mean_q15.o)
 .debug_info    0x0002eaa0      0x155 C:\Users\gmtii\workspace\disco-noFB-noUGUI\libs\libarm_cortexM4lf_math_r4p5.a(arm_mean_f32.o)
 .debug_info    0x0002ebf5      0x17e C:\Users\gmtii\workspace\disco-noFB-noUGUI\libs\libarm_cortexM4lf_math_r4p5.a(arm_max_q15.o)
 .debug_info    0x0002ed73      0x164 C:\Users\gmtii\workspace\disco-noFB-noUGUI\libs\libarm_cortexM4lf_math_r4p5.a(arm_max_f32.o)
 .debug_info    0x0002eed7      0x6b9 C:\Users\gmtii\workspace\disco-noFB-noUGUI\libs\libarm_cortexM4lf_math_r4p5.a(arm_cfft_f32.o)
 .debug_info    0x0002f590      0x1f2 C:\Users\gmtii\workspace\disco-noFB-noUGUI\libs\libarm_cortexM4lf_math_r4p5.a(arm_lms_norm_init_f32.o)
 .debug_info    0x0002f782      0x299 C:\Users\gmtii\workspace\disco-noFB-noUGUI\libs\libarm_cortexM4lf_math_r4p5.a(arm_lms_norm_f32.o)
 .debug_info    0x0002fa1b      0x2aa C:\Users\gmtii\workspace\disco-noFB-noUGUI\libs\libarm_cortexM4lf_math_r4p5.a(arm_iir_lattice_f32.o)
 .debug_info    0x0002fcc5      0x2f3 C:\Users\gmtii\workspace\disco-noFB-noUGUI\libs\libarm_cortexM4lf_math_r4p5.a(arm_fir_interpolate_f32.o)
 .debug_info    0x0002ffb8      0x1b9 C:\Users\gmtii\workspace\disco-noFB-noUGUI\libs\libarm_cortexM4lf_math_r4p5.a(arm_fir_init_f32.o)
 .debug_info    0x00030171      0x382 C:\Users\gmtii\workspace\disco-noFB-noUGUI\libs\libarm_cortexM4lf_math_r4p5.a(arm_fir_f32.o)
 .debug_info    0x000304f3      0x301 C:\Users\gmtii\workspace\disco-noFB-noUGUI\libs\libarm_cortexM4lf_math_r4p5.a(arm_fir_decimate_f32.o)
 .debug_info    0x000307f4      0x299 C:\Users\gmtii\workspace\disco-noFB-noUGUI\libs\libarm_cortexM4lf_math_r4p5.a(arm_cmplx_mag_f32.o)
 .debug_info    0x00030a8d      0x17e C:\Users\gmtii\workspace\disco-noFB-noUGUI\libs\libarm_cortexM4lf_math_r4p5.a(arm_sin_f32.o)
 .debug_info    0x00030c0b      0x17c C:\Users\gmtii\workspace\disco-noFB-noUGUI\libs\libarm_cortexM4lf_math_r4p5.a(arm_cos_f32.o)
 .debug_info    0x00030d87      0x195 C:\Users\gmtii\workspace\disco-noFB-noUGUI\libs\libarm_cortexM4lf_math_r4p5.a(arm_sub_f32.o)
 .debug_info    0x00030f1c      0x158 C:\Users\gmtii\workspace\disco-noFB-noUGUI\libs\libarm_cortexM4lf_math_r4p5.a(arm_scale_f32.o)
 .debug_info    0x00031074      0x1c9 C:\Users\gmtii\workspace\disco-noFB-noUGUI\libs\libarm_cortexM4lf_math_r4p5.a(arm_mult_f32.o)
 .debug_info    0x0003123d      0x195 C:\Users\gmtii\workspace\disco-noFB-noUGUI\libs\libarm_cortexM4lf_math_r4p5.a(arm_add_f32.o)
 .debug_info    0x000313d2       0x85 C:\Users\gmtii\workspace\disco-noFB-noUGUI\libs\libarm_cortexM4lf_math_r4p5.a(arm_bitreversal2.o)
 .debug_info    0x00031457      0x419 C:\Users\gmtii\workspace\disco-noFB-noUGUI\libs\libarm_cortexM4lf_math_r4p5.a(arm_cfft_radix8_f32.o)

.debug_abbrev   0x00000000     0x64a0
 *(.debug_abbrev)
 .debug_abbrev  0x00000000      0x156 ./system/src/stm32f4/misc.o
 .debug_abbrev  0x00000156      0x175 ./system/src/stm32f4/stm32f4xx_dma.o
 .debug_abbrev  0x000002cb      0x1b7 ./system/src/stm32f4/stm32f4xx_fmc.o
 .debug_abbrev  0x00000482      0x1f8 ./system/src/stm32f4/stm32f4xx_gpio.o
 .debug_abbrev  0x0000067a      0x1ef ./system/src/stm32f4/stm32f4xx_i2c.o
 .debug_abbrev  0x00000869      0x260 ./system/src/stm32f4/stm32f4xx_rcc.o
 .debug_abbrev  0x00000ac9      0x1e7 ./system/src/stm32f4/stm32f4xx_spi.o
 .debug_abbrev  0x00000cb0      0x28a ./system/src/stm32f4/stm32f4xx_tim.o
 .debug_abbrev  0x00000f3a       0xb8 ./system/src/newlib/_exit.o
 .debug_abbrev  0x00000ff2       0xb8 ./system/src/newlib/_sbrk.o
 .debug_abbrev  0x000010aa      0x23b ./system/src/newlib/_startup.o
 .debug_abbrev  0x000012e5      0x175 ./system/src/newlib/_syscalls.o
 .debug_abbrev  0x0000145a       0xf5 ./system/src/cortexm/_initialize_hardware.o
 .debug_abbrev  0x0000154f       0xe7 ./system/src/cortexm/_reset_hardware.o
 .debug_abbrev  0x00001636       0xee ./system/src/cortexm/exception_handlers.o
 .debug_abbrev  0x00001724      0x166 ./system/src/cmsis/system_stm32f4xx.o
 .debug_abbrev  0x0000188a       0x9a ./system/src/cmsis/vectors_stm32f429xx.o
 .debug_abbrev  0x00001924      0x4de ./src/ui/ui.o
 .debug_abbrev  0x00001e02      0x2b8 ./src/tm/tm_stm32f4_dma.o
 .debug_abbrev  0x000020ba      0x1db ./src/tm/tm_stm32f4_gpio.o
 .debug_abbrev  0x00002295      0x2da ./src/tm/tm_stm32f4_i2c.o
 .debug_abbrev  0x0000256f      0x255 ./src/tm/tm_stm32f4_ili9341_button.o
 .debug_abbrev  0x000027c4      0x1d1 ./src/tm/tm_stm32f4_sdram.o
 .debug_abbrev  0x00002995      0x3bf ./src/stdio/printf.o
 .debug_abbrev  0x00002d54      0x437 ./src/si5351/si5351.o
 .debug_abbrev  0x0000318b      0x2bc ./src/ra8875/gsl1680.o
 .debug_abbrev  0x00003447      0x536 ./src/ra8875/ui_ra8875.o
 .debug_abbrev  0x0000397d       0xbe ./src/ra8875/ui_ra8875_fonts.o
 .debug_abbrev  0x00003a3b      0x288 ./src/i2c/mchf_hw_i2c.o
 .debug_abbrev  0x00003cc3      0x159 ./src/encoder/ui_rotary.o
 .debug_abbrev  0x00003e1c      0x3c0 ./src/codec/audio.o
 .debug_abbrev  0x000041dc      0x25b ./src/codec/codec.o
 .debug_abbrev  0x00004437      0x252 ./src/codec/i2s.o
 .debug_abbrev  0x00004689      0x22f ./src/button/tm_stm32f4_button.o
 .debug_abbrev  0x000048b8      0x356 ./src/button/tm_stm32f4_delay.o
 .debug_abbrev  0x00004c0e      0x404 ./src/main.o
 .debug_abbrev  0x00005012       0xa9 C:\Users\gmtii\workspace\disco-noFB-noUGUI\libs\libarm_cortexM4lf_math_r4p5.a(arm_const_structs.o)
 .debug_abbrev  0x000050bb       0x84 C:\Users\gmtii\workspace\disco-noFB-noUGUI\libs\libarm_cortexM4lf_math_r4p5.a(arm_common_tables.o)
 .debug_abbrev  0x0000513f       0xa3 C:\Users\gmtii\workspace\disco-noFB-noUGUI\libs\libarm_cortexM4lf_math_r4p5.a(arm_fill_f32.o)
 .debug_abbrev  0x000051e2       0x85 C:\Users\gmtii\workspace\disco-noFB-noUGUI\libs\libarm_cortexM4lf_math_r4p5.a(arm_copy_q15.o)
 .debug_abbrev  0x00005267       0x94 C:\Users\gmtii\workspace\disco-noFB-noUGUI\libs\libarm_cortexM4lf_math_r4p5.a(arm_copy_f32.o)
 .debug_abbrev  0x000052fb       0xb2 C:\Users\gmtii\workspace\disco-noFB-noUGUI\libs\libarm_cortexM4lf_math_r4p5.a(arm_min_q15.o)
 .debug_abbrev  0x000053ad       0xb2 C:\Users\gmtii\workspace\disco-noFB-noUGUI\libs\libarm_cortexM4lf_math_r4p5.a(arm_min_f32.o)
 .debug_abbrev  0x0000545f       0xa3 C:\Users\gmtii\workspace\disco-noFB-noUGUI\libs\libarm_cortexM4lf_math_r4p5.a(arm_mean_q15.o)
 .debug_abbrev  0x00005502       0xa3 C:\Users\gmtii\workspace\disco-noFB-noUGUI\libs\libarm_cortexM4lf_math_r4p5.a(arm_mean_f32.o)
 .debug_abbrev  0x000055a5       0xb2 C:\Users\gmtii\workspace\disco-noFB-noUGUI\libs\libarm_cortexM4lf_math_r4p5.a(arm_max_q15.o)
 .debug_abbrev  0x00005657       0xb2 C:\Users\gmtii\workspace\disco-noFB-noUGUI\libs\libarm_cortexM4lf_math_r4p5.a(arm_max_f32.o)
 .debug_abbrev  0x00005709      0x18b C:\Users\gmtii\workspace\disco-noFB-noUGUI\libs\libarm_cortexM4lf_math_r4p5.a(arm_cfft_f32.o)
 .debug_abbrev  0x00005894       0xf7 C:\Users\gmtii\workspace\disco-noFB-noUGUI\libs\libarm_cortexM4lf_math_r4p5.a(arm_lms_norm_init_f32.o)
 .debug_abbrev  0x0000598b       0xee C:\Users\gmtii\workspace\disco-noFB-noUGUI\libs\libarm_cortexM4lf_math_r4p5.a(arm_lms_norm_f32.o)
 .debug_abbrev  0x00005a79       0xe2 C:\Users\gmtii\workspace\disco-noFB-noUGUI\libs\libarm_cortexM4lf_math_r4p5.a(arm_iir_lattice_f32.o)
 .debug_abbrev  0x00005b5b       0xd7 C:\Users\gmtii\workspace\disco-noFB-noUGUI\libs\libarm_cortexM4lf_math_r4p5.a(arm_fir_interpolate_f32.o)
 .debug_abbrev  0x00005c32       0xe8 C:\Users\gmtii\workspace\disco-noFB-noUGUI\libs\libarm_cortexM4lf_math_r4p5.a(arm_fir_init_f32.o)
 .debug_abbrev  0x00005d1a       0xd7 C:\Users\gmtii\workspace\disco-noFB-noUGUI\libs\libarm_cortexM4lf_math_r4p5.a(arm_fir_f32.o)
 .debug_abbrev  0x00005df1       0xe4 C:\Users\gmtii\workspace\disco-noFB-noUGUI\libs\libarm_cortexM4lf_math_r4p5.a(arm_fir_decimate_f32.o)
 .debug_abbrev  0x00005ed5      0x11b C:\Users\gmtii\workspace\disco-noFB-noUGUI\libs\libarm_cortexM4lf_math_r4p5.a(arm_cmplx_mag_f32.o)
 .debug_abbrev  0x00005ff0       0xd3 C:\Users\gmtii\workspace\disco-noFB-noUGUI\libs\libarm_cortexM4lf_math_r4p5.a(arm_sin_f32.o)
 .debug_abbrev  0x000060c3       0xe2 C:\Users\gmtii\workspace\disco-noFB-noUGUI\libs\libarm_cortexM4lf_math_r4p5.a(arm_cos_f32.o)
 .debug_abbrev  0x000061a5       0x85 C:\Users\gmtii\workspace\disco-noFB-noUGUI\libs\libarm_cortexM4lf_math_r4p5.a(arm_sub_f32.o)
 .debug_abbrev  0x0000622a       0xa3 C:\Users\gmtii\workspace\disco-noFB-noUGUI\libs\libarm_cortexM4lf_math_r4p5.a(arm_scale_f32.o)
 .debug_abbrev  0x000062cd       0x92 C:\Users\gmtii\workspace\disco-noFB-noUGUI\libs\libarm_cortexM4lf_math_r4p5.a(arm_mult_f32.o)
 .debug_abbrev  0x0000635f       0x85 C:\Users\gmtii\workspace\disco-noFB-noUGUI\libs\libarm_cortexM4lf_math_r4p5.a(arm_add_f32.o)
 .debug_abbrev  0x000063e4       0x14 C:\Users\gmtii\workspace\disco-noFB-noUGUI\libs\libarm_cortexM4lf_math_r4p5.a(arm_bitreversal2.o)
 .debug_abbrev  0x000063f8       0xa8 C:\Users\gmtii\workspace\disco-noFB-noUGUI\libs\libarm_cortexM4lf_math_r4p5.a(arm_cfft_radix8_f32.o)

.debug_line     0x00000000     0xd86d
 *(.debug_line)
 .debug_line    0x00000000      0x1b3 ./system/src/stm32f4/misc.o
 .debug_line    0x000001b3      0x39c ./system/src/stm32f4/stm32f4xx_dma.o
 .debug_line    0x0000054f      0x5bb ./system/src/stm32f4/stm32f4xx_fmc.o
 .debug_line    0x00000b0a      0x305 ./system/src/stm32f4/stm32f4xx_gpio.o
 .debug_line    0x00000e0f      0x4af ./system/src/stm32f4/stm32f4xx_i2c.o
 .debug_line    0x000012be      0x5c2 ./system/src/stm32f4/stm32f4xx_rcc.o
 .debug_line    0x00001880      0x409 ./system/src/stm32f4/stm32f4xx_spi.o
 .debug_line    0x00001c89      0xba2 ./system/src/stm32f4/stm32f4xx_tim.o
 .debug_line    0x0000282b       0xe1 ./system/src/newlib/_exit.o
 .debug_line    0x0000290c       0x9e ./system/src/newlib/_sbrk.o
 .debug_line    0x000029aa      0x1aa ./system/src/newlib/_startup.o
 .debug_line    0x00002b54      0x2fc ./system/src/newlib/_syscalls.o
 .debug_line    0x00002e50      0x121 ./system/src/cortexm/_initialize_hardware.o
 .debug_line    0x00002f71      0x115 ./system/src/cortexm/_reset_hardware.o
 .debug_line    0x00003086      0x172 ./system/src/cortexm/exception_handlers.o
 .debug_line    0x000031f8      0x241 ./system/src/cmsis/system_stm32f4xx.o
 .debug_line    0x00003439       0x5f ./system/src/cmsis/vectors_stm32f429xx.o
 .debug_line    0x00003498     0x1699 ./src/ui/ui.o
 .debug_line    0x00004b31      0x3d0 ./src/tm/tm_stm32f4_dma.o
 .debug_line    0x00004f01      0x30a ./src/tm/tm_stm32f4_gpio.o
 .debug_line    0x0000520b      0x436 ./src/tm/tm_stm32f4_i2c.o
 .debug_line    0x00005641      0x33b ./src/tm/tm_stm32f4_ili9341_button.o
 .debug_line    0x0000597c      0x261 ./src/tm/tm_stm32f4_sdram.o
 .debug_line    0x00005bdd      0x3b0 ./src/stdio/printf.o
 .debug_line    0x00005f8d      0x727 ./src/si5351/si5351.o
 .debug_line    0x000066b4      0x3be ./src/ra8875/gsl1680.o
 .debug_line    0x00006a72     0x12ac ./src/ra8875/ui_ra8875.o
 .debug_line    0x00007d1e      0x14d ./src/ra8875/ui_ra8875_fonts.o
 .debug_line    0x00007e6b      0x3dd ./src/i2c/mchf_hw_i2c.o
 .debug_line    0x00008248      0x221 ./src/encoder/ui_rotary.o
 .debug_line    0x00008469      0x80d ./src/codec/audio.o
 .debug_line    0x00008c76      0x30e ./src/codec/codec.o
 .debug_line    0x00008f84      0x373 ./src/codec/i2s.o
 .debug_line    0x000092f7      0x287 ./src/button/tm_stm32f4_button.o
 .debug_line    0x0000957e      0x360 ./src/button/tm_stm32f4_delay.o
 .debug_line    0x000098de      0x8d6 ./src/main.o
 .debug_line    0x0000a1b4      0x145 C:\Users\gmtii\workspace\disco-noFB-noUGUI\libs\libarm_cortexM4lf_math_r4p5.a(arm_const_structs.o)
 .debug_line    0x0000a2f9      0x12e C:\Users\gmtii\workspace\disco-noFB-noUGUI\libs\libarm_cortexM4lf_math_r4p5.a(arm_common_tables.o)
 .debug_line    0x0000a427      0x14f C:\Users\gmtii\workspace\disco-noFB-noUGUI\libs\libarm_cortexM4lf_math_r4p5.a(arm_fill_f32.o)
 .debug_line    0x0000a576      0x14a C:\Users\gmtii\workspace\disco-noFB-noUGUI\libs\libarm_cortexM4lf_math_r4p5.a(arm_copy_q15.o)
 .debug_line    0x0000a6c0      0x155 C:\Users\gmtii\workspace\disco-noFB-noUGUI\libs\libarm_cortexM4lf_math_r4p5.a(arm_copy_f32.o)
 .debug_line    0x0000a815      0x16d C:\Users\gmtii\workspace\disco-noFB-noUGUI\libs\libarm_cortexM4lf_math_r4p5.a(arm_min_q15.o)
 .debug_line    0x0000a982      0x16b C:\Users\gmtii\workspace\disco-noFB-noUGUI\libs\libarm_cortexM4lf_math_r4p5.a(arm_min_f32.o)
 .debug_line    0x0000aaed      0x15c C:\Users\gmtii\workspace\disco-noFB-noUGUI\libs\libarm_cortexM4lf_math_r4p5.a(arm_mean_q15.o)
 .debug_line    0x0000ac49      0x160 C:\Users\gmtii\workspace\disco-noFB-noUGUI\libs\libarm_cortexM4lf_math_r4p5.a(arm_mean_f32.o)
 .debug_line    0x0000ada9      0x16d C:\Users\gmtii\workspace\disco-noFB-noUGUI\libs\libarm_cortexM4lf_math_r4p5.a(arm_max_q15.o)
 .debug_line    0x0000af16      0x16d C:\Users\gmtii\workspace\disco-noFB-noUGUI\libs\libarm_cortexM4lf_math_r4p5.a(arm_max_f32.o)
 .debug_line    0x0000b083      0x77e C:\Users\gmtii\workspace\disco-noFB-noUGUI\libs\libarm_cortexM4lf_math_r4p5.a(arm_cfft_f32.o)
 .debug_line    0x0000b801      0x15e C:\Users\gmtii\workspace\disco-noFB-noUGUI\libs\libarm_cortexM4lf_math_r4p5.a(arm_lms_norm_init_f32.o)
 .debug_line    0x0000b95f      0x1e0 C:\Users\gmtii\workspace\disco-noFB-noUGUI\libs\libarm_cortexM4lf_math_r4p5.a(arm_lms_norm_f32.o)
 .debug_line    0x0000bb3f      0x1f8 C:\Users\gmtii\workspace\disco-noFB-noUGUI\libs\libarm_cortexM4lf_math_r4p5.a(arm_iir_lattice_f32.o)
 .debug_line    0x0000bd37      0x28c C:\Users\gmtii\workspace\disco-noFB-noUGUI\libs\libarm_cortexM4lf_math_r4p5.a(arm_fir_interpolate_f32.o)
 .debug_line    0x0000bfc3      0x14d C:\Users\gmtii\workspace\disco-noFB-noUGUI\libs\libarm_cortexM4lf_math_r4p5.a(arm_fir_init_f32.o)
 .debug_line    0x0000c110      0x320 C:\Users\gmtii\workspace\disco-noFB-noUGUI\libs\libarm_cortexM4lf_math_r4p5.a(arm_fir_f32.o)
 .debug_line    0x0000c430      0x2a9 C:\Users\gmtii\workspace\disco-noFB-noUGUI\libs\libarm_cortexM4lf_math_r4p5.a(arm_fir_decimate_f32.o)
 .debug_line    0x0000c6d9      0x20f C:\Users\gmtii\workspace\disco-noFB-noUGUI\libs\libarm_cortexM4lf_math_r4p5.a(arm_cmplx_mag_f32.o)
 .debug_line    0x0000c8e8      0x177 C:\Users\gmtii\workspace\disco-noFB-noUGUI\libs\libarm_cortexM4lf_math_r4p5.a(arm_sin_f32.o)
 .debug_line    0x0000ca5f      0x16d C:\Users\gmtii\workspace\disco-noFB-noUGUI\libs\libarm_cortexM4lf_math_r4p5.a(arm_cos_f32.o)
 .debug_line    0x0000cbcc      0x15f C:\Users\gmtii\workspace\disco-noFB-noUGUI\libs\libarm_cortexM4lf_math_r4p5.a(arm_sub_f32.o)
 .debug_line    0x0000cd2b      0x163 C:\Users\gmtii\workspace\disco-noFB-noUGUI\libs\libarm_cortexM4lf_math_r4p5.a(arm_scale_f32.o)
 .debug_line    0x0000ce8e      0x16e C:\Users\gmtii\workspace\disco-noFB-noUGUI\libs\libarm_cortexM4lf_math_r4p5.a(arm_mult_f32.o)
 .debug_line    0x0000cffc      0x15f C:\Users\gmtii\workspace\disco-noFB-noUGUI\libs\libarm_cortexM4lf_math_r4p5.a(arm_add_f32.o)
 .debug_line    0x0000d15b       0x98 C:\Users\gmtii\workspace\disco-noFB-noUGUI\libs\libarm_cortexM4lf_math_r4p5.a(arm_bitreversal2.o)
 .debug_line    0x0000d1f3      0x67a C:\Users\gmtii\workspace\disco-noFB-noUGUI\libs\libarm_cortexM4lf_math_r4p5.a(arm_cfft_radix8_f32.o)

.debug_frame    0x00000000     0x4b98
 *(.debug_frame)
 .debug_frame   0x00000000       0x74 ./system/src/stm32f4/misc.o
 .debug_frame   0x00000074      0x1b8 ./system/src/stm32f4/stm32f4xx_dma.o
 .debug_frame   0x0000022c      0x278 ./system/src/stm32f4/stm32f4xx_fmc.o
 .debug_frame   0x000004a4      0x174 ./system/src/stm32f4/stm32f4xx_gpio.o
 .debug_frame   0x00000618      0x294 ./system/src/stm32f4/stm32f4xx_i2c.o
 .debug_frame   0x000008ac      0x38c ./system/src/stm32f4/stm32f4xx_rcc.o
 .debug_frame   0x00000c38      0x210 ./system/src/stm32f4/stm32f4xx_spi.o
 .debug_frame   0x00000e48      0x6f8 ./system/src/stm32f4/stm32f4xx_tim.o
 .debug_frame   0x00001540       0x40 ./system/src/newlib/_exit.o
 .debug_frame   0x00001580       0x28 ./system/src/newlib/_sbrk.o
 .debug_frame   0x000015a8       0x84 ./system/src/newlib/_startup.o
 .debug_frame   0x0000162c      0x230 ./system/src/newlib/_syscalls.o
 .debug_frame   0x0000185c       0x38 ./system/src/cortexm/_initialize_hardware.o
 .debug_frame   0x00001894       0x20 ./system/src/cortexm/_reset_hardware.o
 .debug_frame   0x000018b4       0xe0 ./system/src/cortexm/exception_handlers.o
 .debug_frame   0x00001994       0x50 ./system/src/cmsis/system_stm32f4xx.o
 .debug_frame   0x000019e4       0x20 ./system/src/cmsis/vectors_stm32f429xx.o
 .debug_frame   0x00001a04      0x71c ./src/ui/ui.o
 .debug_frame   0x00002120      0x1dc ./src/tm/tm_stm32f4_dma.o
 .debug_frame   0x000022fc      0x1cc ./src/tm/tm_stm32f4_gpio.o
 .debug_frame   0x000024c8      0x204 ./src/tm/tm_stm32f4_i2c.o
 .debug_frame   0x000026cc       0xf4 ./src/tm/tm_stm32f4_ili9341_button.o
 .debug_frame   0x000027c0       0x54 ./src/tm/tm_stm32f4_sdram.o
 .debug_frame   0x00002814      0x23c ./src/stdio/printf.o
 .debug_frame   0x00002a50      0x314 ./src/si5351/si5351.o
 .debug_frame   0x00002d64      0x110 ./src/ra8875/gsl1680.o
 .debug_frame   0x00002e74      0x608 ./src/ra8875/ui_ra8875.o
 .debug_frame   0x0000347c       0xd0 ./src/i2c/mchf_hw_i2c.o
 .debug_frame   0x0000354c       0xb0 ./src/encoder/ui_rotary.o
 .debug_frame   0x000035fc      0x16c ./src/codec/audio.o
 .debug_frame   0x00003768       0xec ./src/codec/codec.o
 .debug_frame   0x00003854       0xb8 ./src/codec/i2s.o
 .debug_frame   0x0000390c       0x88 ./src/button/tm_stm32f4_button.o
 .debug_frame   0x00003994      0x10c ./src/button/tm_stm32f4_delay.o
 .debug_frame   0x00003aa0      0x1f4 ./src/main.o
 .debug_frame   0x00003c94       0x2c C:\Users\gmtii\workspace\disco-noFB-noUGUI\libs\libarm_cortexM4lf_math_r4p5.a(arm_fill_f32.o)
 .debug_frame   0x00003cc0       0x34 C:\Users\gmtii\workspace\disco-noFB-noUGUI\libs\libarm_cortexM4lf_math_r4p5.a(arm_copy_q15.o)
 .debug_frame   0x00003cf4       0x30 C:\Users\gmtii\workspace\disco-noFB-noUGUI\libs\libarm_cortexM4lf_math_r4p5.a(arm_copy_f32.o)
 .debug_frame   0x00003d24       0x40 C:\Users\gmtii\workspace\disco-noFB-noUGUI\libs\libarm_cortexM4lf_math_r4p5.a(arm_min_q15.o)
 .debug_frame   0x00003d64       0x30 C:\Users\gmtii\workspace\disco-noFB-noUGUI\libs\libarm_cortexM4lf_math_r4p5.a(arm_min_f32.o)
 .debug_frame   0x00003d94       0x30 C:\Users\gmtii\workspace\disco-noFB-noUGUI\libs\libarm_cortexM4lf_math_r4p5.a(arm_mean_q15.o)
 .debug_frame   0x00003dc4       0x2c C:\Users\gmtii\workspace\disco-noFB-noUGUI\libs\libarm_cortexM4lf_math_r4p5.a(arm_mean_f32.o)
 .debug_frame   0x00003df0       0x40 C:\Users\gmtii\workspace\disco-noFB-noUGUI\libs\libarm_cortexM4lf_math_r4p5.a(arm_max_q15.o)
 .debug_frame   0x00003e30       0x30 C:\Users\gmtii\workspace\disco-noFB-noUGUI\libs\libarm_cortexM4lf_math_r4p5.a(arm_max_f32.o)
 .debug_frame   0x00003e60       0xfc C:\Users\gmtii\workspace\disco-noFB-noUGUI\libs\libarm_cortexM4lf_math_r4p5.a(arm_cfft_f32.o)
 .debug_frame   0x00003f5c       0x3c C:\Users\gmtii\workspace\disco-noFB-noUGUI\libs\libarm_cortexM4lf_math_r4p5.a(arm_lms_norm_init_f32.o)
 .debug_frame   0x00003f98       0x40 C:\Users\gmtii\workspace\disco-noFB-noUGUI\libs\libarm_cortexM4lf_math_r4p5.a(arm_lms_norm_f32.o)
 .debug_frame   0x00003fd8       0x40 C:\Users\gmtii\workspace\disco-noFB-noUGUI\libs\libarm_cortexM4lf_math_r4p5.a(arm_iir_lattice_f32.o)
 .debug_frame   0x00004018       0x40 C:\Users\gmtii\workspace\disco-noFB-noUGUI\libs\libarm_cortexM4lf_math_r4p5.a(arm_fir_interpolate_f32.o)
 .debug_frame   0x00004058       0x2c C:\Users\gmtii\workspace\disco-noFB-noUGUI\libs\libarm_cortexM4lf_math_r4p5.a(arm_fir_init_f32.o)
 .debug_frame   0x00004084       0x98 C:\Users\gmtii\workspace\disco-noFB-noUGUI\libs\libarm_cortexM4lf_math_r4p5.a(arm_fir_f32.o)
 .debug_frame   0x0000411c       0x70 C:\Users\gmtii\workspace\disco-noFB-noUGUI\libs\libarm_cortexM4lf_math_r4p5.a(arm_fir_decimate_f32.o)
 .debug_frame   0x0000418c       0x3c C:\Users\gmtii\workspace\disco-noFB-noUGUI\libs\libarm_cortexM4lf_math_r4p5.a(arm_cmplx_mag_f32.o)
 .debug_frame   0x000041c8       0x20 C:\Users\gmtii\workspace\disco-noFB-noUGUI\libs\libarm_cortexM4lf_math_r4p5.a(arm_sin_f32.o)
 .debug_frame   0x000041e8       0x20 C:\Users\gmtii\workspace\disco-noFB-noUGUI\libs\libarm_cortexM4lf_math_r4p5.a(arm_cos_f32.o)
 .debug_frame   0x00004208       0x30 C:\Users\gmtii\workspace\disco-noFB-noUGUI\libs\libarm_cortexM4lf_math_r4p5.a(arm_sub_f32.o)
 .debug_frame   0x00004238       0x30 C:\Users\gmtii\workspace\disco-noFB-noUGUI\libs\libarm_cortexM4lf_math_r4p5.a(arm_scale_f32.o)
 .debug_frame   0x00004268       0x30 C:\Users\gmtii\workspace\disco-noFB-noUGUI\libs\libarm_cortexM4lf_math_r4p5.a(arm_mult_f32.o)
 .debug_frame   0x00004298       0x30 C:\Users\gmtii\workspace\disco-noFB-noUGUI\libs\libarm_cortexM4lf_math_r4p5.a(arm_add_f32.o)
 .debug_frame   0x000042c8       0x94 C:\Users\gmtii\workspace\disco-noFB-noUGUI\libs\libarm_cortexM4lf_math_r4p5.a(arm_cfft_radix8_f32.o)
 .debug_frame   0x0000435c       0x28 C:\Users\gmtii\workspace\disco-noFB-noUGUI\libs\libm.a(lib_a-s_cos.o)
 .debug_frame   0x00004384       0x20 C:\Users\gmtii\workspace\disco-noFB-noUGUI\libs\libm.a(lib_a-s_pow10.o)
 .debug_frame   0x000043a4       0x28 C:\Users\gmtii\workspace\disco-noFB-noUGUI\libs\libm.a(lib_a-s_round.o)
 .debug_frame   0x000043cc       0x28 C:\Users\gmtii\workspace\disco-noFB-noUGUI\libs\libm.a(lib_a-s_sin.o)
 .debug_frame   0x000043f4       0x38 C:\Users\gmtii\workspace\disco-noFB-noUGUI\libs\libm.a(lib_a-w_log10.o)
 .debug_frame   0x0000442c       0x3c C:\Users\gmtii\workspace\disco-noFB-noUGUI\libs\libm.a(lib_a-w_pow.o)
 .debug_frame   0x00004468       0x34 C:\Users\gmtii\workspace\disco-noFB-noUGUI\libs\libm.a(lib_a-w_sqrt.o)
 .debug_frame   0x0000449c       0x30 C:\Users\gmtii\workspace\disco-noFB-noUGUI\libs\libm.a(lib_a-wf_log10.o)
 .debug_frame   0x000044cc       0x3c C:\Users\gmtii\workspace\disco-noFB-noUGUI\libs\libm.a(lib_a-wf_pow.o)
 .debug_frame   0x00004508       0x30 C:\Users\gmtii\workspace\disco-noFB-noUGUI\libs\libm.a(lib_a-wf_sqrt.o)
 .debug_frame   0x00004538       0x38 C:\Users\gmtii\workspace\disco-noFB-noUGUI\libs\libm.a(lib_a-e_log10.o)
 .debug_frame   0x00004570       0x38 C:\Users\gmtii\workspace\disco-noFB-noUGUI\libs\libm.a(lib_a-e_pow.o)
 .debug_frame   0x000045a8       0x38 C:\Users\gmtii\workspace\disco-noFB-noUGUI\libs\libm.a(lib_a-e_rem_pio2.o)
 .debug_frame   0x000045e0       0x3c C:\Users\gmtii\workspace\disco-noFB-noUGUI\libs\libm.a(lib_a-e_sqrt.o)
 .debug_frame   0x0000461c       0x30 C:\Users\gmtii\workspace\disco-noFB-noUGUI\libs\libm.a(lib_a-ef_log10.o)
 .debug_frame   0x0000464c       0x3c C:\Users\gmtii\workspace\disco-noFB-noUGUI\libs\libm.a(lib_a-ef_pow.o)
 .debug_frame   0x00004688       0x2c C:\Users\gmtii\workspace\disco-noFB-noUGUI\libs\libm.a(lib_a-ef_sqrt.o)
 .debug_frame   0x000046b4       0x40 C:\Users\gmtii\workspace\disco-noFB-noUGUI\libs\libm.a(lib_a-k_cos.o)
 .debug_frame   0x000046f4       0x3c C:\Users\gmtii\workspace\disco-noFB-noUGUI\libs\libm.a(lib_a-k_rem_pio2.o)
 .debug_frame   0x00004730       0x40 C:\Users\gmtii\workspace\disco-noFB-noUGUI\libs\libm.a(lib_a-k_sin.o)
 .debug_frame   0x00004770       0x20 C:\Users\gmtii\workspace\disco-noFB-noUGUI\libs\libm.a(lib_a-s_fabs.o)
 .debug_frame   0x00004790       0x20 C:\Users\gmtii\workspace\disco-noFB-noUGUI\libs\libm.a(lib_a-s_finite.o)
 .debug_frame   0x000047b0       0x34 C:\Users\gmtii\workspace\disco-noFB-noUGUI\libs\libm.a(lib_a-s_floor.o)
 .debug_frame   0x000047e4       0x20 C:\Users\gmtii\workspace\disco-noFB-noUGUI\libs\libm.a(lib_a-s_fpclassify.o)
 .debug_frame   0x00004804       0x20 C:\Users\gmtii\workspace\disco-noFB-noUGUI\libs\libm.a(lib_a-s_matherr.o)
 .debug_frame   0x00004824       0x20 C:\Users\gmtii\workspace\disco-noFB-noUGUI\libs\libm.a(lib_a-s_nan.o)
 .debug_frame   0x00004844       0x30 C:\Users\gmtii\workspace\disco-noFB-noUGUI\libs\libm.a(lib_a-s_rint.o)
 .debug_frame   0x00004874       0x28 C:\Users\gmtii\workspace\disco-noFB-noUGUI\libs\libm.a(lib_a-s_scalbn.o)
 .debug_frame   0x0000489c       0x20 C:\Users\gmtii\workspace\disco-noFB-noUGUI\libs\libm.a(lib_a-sf_fabs.o)
 .debug_frame   0x000048bc       0x20 C:\Users\gmtii\workspace\disco-noFB-noUGUI\libs\libm.a(lib_a-sf_finite.o)
 .debug_frame   0x000048dc       0x20 C:\Users\gmtii\workspace\disco-noFB-noUGUI\libs\libm.a(lib_a-sf_fpclassify.o)
 .debug_frame   0x000048fc       0x20 C:\Users\gmtii\workspace\disco-noFB-noUGUI\libs\libm.a(lib_a-sf_nan.o)
 .debug_frame   0x0000491c       0x30 C:\Users\gmtii\workspace\disco-noFB-noUGUI\libs\libm.a(lib_a-sf_scalbn.o)
 .debug_frame   0x0000494c       0x38 C:\Users\gmtii\workspace\disco-noFB-noUGUI\libs\libm.a(lib_a-e_log.o)
 .debug_frame   0x00004984       0x28 C:\Users\gmtii\workspace\disco-noFB-noUGUI\libs\libm.a(lib_a-ef_log.o)
 .debug_frame   0x000049ac       0x28 C:\Users\gmtii\workspace\disco-noFB-noUGUI\libs\libm.a(lib_a-s_copysign.o)
 .debug_frame   0x000049d4       0x20 C:\Users\gmtii\workspace\disco-noFB-noUGUI\libs\libm.a(lib_a-sf_copysign.o)
 .debug_frame   0x000049f4       0x28 d:/stm32/gcc/bin/../lib/gcc/arm-none-eabi/4.9.3/armv7e-m/fpu\libgcc.a(_aeabi_uldivmod.o)
 .debug_frame   0x00004a1c       0x50 d:/stm32/gcc/bin/../lib/gcc/arm-none-eabi/4.9.3/armv7e-m/fpu\libgcc.a(bpabi.o)
 .debug_frame   0x00004a6c       0x34 d:/stm32/gcc/bin/../lib/gcc/arm-none-eabi/4.9.3/armv7e-m/fpu\libgcc.a(_divdi3.o)
 .debug_frame   0x00004aa0       0x30 d:/stm32/gcc/bin/../lib/gcc/arm-none-eabi/4.9.3/armv7e-m/fpu\libgcc.a(_udivdi3.o)
 .debug_frame   0x00004ad0       0x20 d:/stm32/gcc/bin/../lib/gcc/arm-none-eabi/4.9.3/../../../../arm-none-eabi/lib/armv7e-m/fpu\libg_nano.a(lib_a-errno.o)
 .debug_frame   0x00004af0       0x30 d:/stm32/gcc/bin/../lib/gcc/arm-none-eabi/4.9.3/../../../../arm-none-eabi/lib/armv7e-m/fpu\libg_nano.a(lib_a-malloc.o)
 .debug_frame   0x00004b20       0x20 d:/stm32/gcc/bin/../lib/gcc/arm-none-eabi/4.9.3/../../../../arm-none-eabi/lib/armv7e-m/fpu\libg_nano.a(lib_a-memset.o)
 .debug_frame   0x00004b40       0x2c d:/stm32/gcc/bin/../lib/gcc/arm-none-eabi/4.9.3/../../../../arm-none-eabi/lib/armv7e-m/fpu\libg_nano.a(lib_a-nano-mallocr.o)
 .debug_frame   0x00004b6c       0x2c d:/stm32/gcc/bin/../lib/gcc/arm-none-eabi/4.9.3/../../../../arm-none-eabi/lib/armv7e-m/fpu\libg_nano.a(lib_a-sbrkr.o)

.debug_str      0x00000000     0x9147
 *(.debug_str)
 .debug_str     0x00000000      0x3b6 ./system/src/stm32f4/misc.o
                                0x40a (size before relaxing)
 .debug_str     0x000003b6      0x37c ./system/src/stm32f4/stm32f4xx_dma.o
                                0x57e (size before relaxing)
 .debug_str     0x00000732      0x8d3 ./system/src/stm32f4/stm32f4xx_fmc.o
                                0xad4 (size before relaxing)
 .debug_str     0x00001005      0x280 ./system/src/stm32f4/stm32f4xx_gpio.o
                                0x503 (size before relaxing)
 .debug_str     0x00001285      0x492 ./system/src/stm32f4/stm32f4xx_i2c.o
                                0x717 (size before relaxing)
 .debug_str     0x00001717      0x6e0 ./system/src/stm32f4/stm32f4xx_rcc.o
                                0xa06 (size before relaxing)
 .debug_str     0x00001df7      0x383 ./system/src/stm32f4/stm32f4xx_spi.o
                                0x719 (size before relaxing)
 .debug_str     0x0000217a      0xb35 ./system/src/stm32f4/stm32f4xx_tim.o
                                0xe3a (size before relaxing)
 .debug_str     0x00002caf       0x56 ./system/src/newlib/_exit.o
                                0x1c3 (size before relaxing)
 .debug_str     0x00002d05       0x77 ./system/src/newlib/_sbrk.o
                                0x1f0 (size before relaxing)
 .debug_str     0x00002d7c      0x1e9 ./system/src/newlib/_startup.o
                                0x398 (size before relaxing)
 .debug_str     0x00002f65      0x251 ./system/src/newlib/_syscalls.o
                                0x44e (size before relaxing)
 .debug_str     0x000031b6       0x5e ./system/src/cortexm/_initialize_hardware.o
                                0x29b (size before relaxing)
 .debug_str     0x00003214       0x3f ./system/src/cortexm/_reset_hardware.o
                                0x25b (size before relaxing)
 .debug_str     0x00003253      0x11f ./system/src/cortexm/exception_handlers.o
                                0x2cb (size before relaxing)
 .debug_str     0x00003372       0xa8 ./system/src/cmsis/system_stm32f4xx.o
                                0x4a8 (size before relaxing)
 .debug_str     0x0000341a       0x59 ./system/src/cmsis/vectors_stm32f429xx.o
                                0x1c1 (size before relaxing)
 .debug_str     0x00003473     0x1ada ./src/ui/ui.o
                               0x1f80 (size before relaxing)
 .debug_str     0x00004f4d      0x83b ./src/tm/tm_stm32f4_dma.o
                                0xb5d (size before relaxing)
 .debug_str     0x00005788      0x2a2 ./src/tm/tm_stm32f4_gpio.o
                                0x607 (size before relaxing)
 .debug_str     0x00005a2a      0x24e ./src/tm/tm_stm32f4_i2c.o
                                0x763 (size before relaxing)
 .debug_str     0x00005c78      0x174 ./src/tm/tm_stm32f4_ili9341_button.o
                                0x41b (size before relaxing)
 .debug_str     0x00005dec       0xb7 ./src/tm/tm_stm32f4_sdram.o
                                0x703 (size before relaxing)
 .debug_str     0x00005ea3      0x444 ./src/stdio/printf.o
                                0x671 (size before relaxing)
 .debug_str     0x000062e7      0x5d6 ./src/si5351/si5351.o
                                0x8cd (size before relaxing)
 .debug_str     0x000068bd       0xe3 ./src/ra8875/gsl1680.o
                                0x63a (size before relaxing)
 .debug_str     0x000069a0      0x607 ./src/ra8875/ui_ra8875.o
                               0x1c80 (size before relaxing)
 .debug_str     0x00006fa7       0xa7 ./src/ra8875/ui_ra8875_fonts.o
                                0x318 (size before relaxing)
 .debug_str     0x0000704e       0xb8 ./src/i2c/mchf_hw_i2c.o
                                0x6da (size before relaxing)
 .debug_str     0x00007106       0x61 ./src/encoder/ui_rotary.o
                                0x5cb (size before relaxing)
 .debug_str     0x00007167      0xacc ./src/codec/audio.o
                               0x17e7 (size before relaxing)
 .debug_str     0x00007c33       0xaa ./src/codec/codec.o
                                0x6c9 (size before relaxing)
 .debug_str     0x00007cdd       0x9d ./src/codec/i2s.o
                               0x1061 (size before relaxing)
 .debug_str     0x00007d7a      0x178 ./src/button/tm_stm32f4_button.o
                                0x51b (size before relaxing)
 .debug_str     0x00007ef2      0x1f6 ./src/button/tm_stm32f4_delay.o
                                0xa8f (size before relaxing)
 .debug_str     0x000080e8      0x16a ./src/main.o
                               0x1539 (size before relaxing)
 .debug_str     0x00008252      0x791 C:\Users\gmtii\workspace\disco-noFB-noUGUI\libs\libarm_cortexM4lf_math_r4p5.a(arm_const_structs.o)
                                0x8dc (size before relaxing)
 .debug_str     0x000089e3      0x125 C:\Users\gmtii\workspace\disco-noFB-noUGUI\libs\libarm_cortexM4lf_math_r4p5.a(arm_common_tables.o)
                                0x704 (size before relaxing)
 .debug_str     0x00008b08       0x39 C:\Users\gmtii\workspace\disco-noFB-noUGUI\libs\libarm_cortexM4lf_math_r4p5.a(arm_fill_f32.o)
                                0x226 (size before relaxing)
 .debug_str     0x00008b41       0x28 C:\Users\gmtii\workspace\disco-noFB-noUGUI\libs\libarm_cortexM4lf_math_r4p5.a(arm_copy_q15.o)
                                0x245 (size before relaxing)
 .debug_str     0x00008b69       0x23 C:\Users\gmtii\workspace\disco-noFB-noUGUI\libs\libarm_cortexM4lf_math_r4p5.a(arm_copy_f32.o)
                                0x225 (size before relaxing)
 .debug_str     0x00008b8c       0x4d C:\Users\gmtii\workspace\disco-noFB-noUGUI\libs\libarm_cortexM4lf_math_r4p5.a(arm_min_q15.o)
                                0x25d (size before relaxing)
 .debug_str     0x00008bd9       0x25 C:\Users\gmtii\workspace\disco-noFB-noUGUI\libs\libarm_cortexM4lf_math_r4p5.a(arm_min_f32.o)
                                0x24f (size before relaxing)
 .debug_str     0x00008bfe       0x26 C:\Users\gmtii\workspace\disco-noFB-noUGUI\libs\libarm_cortexM4lf_math_r4p5.a(arm_mean_q15.o)
                                0x251 (size before relaxing)
 .debug_str     0x00008c24       0x26 C:\Users\gmtii\workspace\disco-noFB-noUGUI\libs\libarm_cortexM4lf_math_r4p5.a(arm_mean_f32.o)
                                0x22b (size before relaxing)
 .debug_str     0x00008c4a       0x35 C:\Users\gmtii\workspace\disco-noFB-noUGUI\libs\libarm_cortexM4lf_math_r4p5.a(arm_max_q15.o)
                                0x25d (size before relaxing)
 .debug_str     0x00008c7f       0x25 C:\Users\gmtii\workspace\disco-noFB-noUGUI\libs\libarm_cortexM4lf_math_r4p5.a(arm_max_f32.o)
                                0x24f (size before relaxing)
 .debug_str     0x00008ca4      0x10d C:\Users\gmtii\workspace\disco-noFB-noUGUI\libs\libarm_cortexM4lf_math_r4p5.a(arm_cfft_f32.o)
                                0x35f (size before relaxing)
 .debug_str     0x00008db1       0x2e C:\Users\gmtii\workspace\disco-noFB-noUGUI\libs\libarm_cortexM4lf_math_r4p5.a(arm_lms_norm_init_f32.o)
                                0x27b (size before relaxing)
 .debug_str     0x00008ddf       0x46 C:\Users\gmtii\workspace\disco-noFB-noUGUI\libs\libarm_cortexM4lf_math_r4p5.a(arm_lms_norm_f32.o)
                                0x298 (size before relaxing)
 .debug_str     0x00008e25       0x4e C:\Users\gmtii\workspace\disco-noFB-noUGUI\libs\libarm_cortexM4lf_math_r4p5.a(arm_iir_lattice_f32.o)
                                0x2be (size before relaxing)
 .debug_str     0x00008e73       0x65 C:\Users\gmtii\workspace\disco-noFB-noUGUI\libs\libarm_cortexM4lf_math_r4p5.a(arm_fir_interpolate_f32.o)
                                0x2e7 (size before relaxing)
 .debug_str     0x00008ed8       0x29 C:\Users\gmtii\workspace\disco-noFB-noUGUI\libs\libarm_cortexM4lf_math_r4p5.a(arm_fir_init_f32.o)
                                0x265 (size before relaxing)
 .debug_str     0x00008f01       0x38 C:\Users\gmtii\workspace\disco-noFB-noUGUI\libs\libarm_cortexM4lf_math_r4p5.a(arm_fir_f32.o)
                                0x2a0 (size before relaxing)
 .debug_str     0x00008f39       0x3a C:\Users\gmtii\workspace\disco-noFB-noUGUI\libs\libarm_cortexM4lf_math_r4p5.a(arm_fir_decimate_f32.o)
                                0x2d4 (size before relaxing)
 .debug_str     0x00008f73       0x55 C:\Users\gmtii\workspace\disco-noFB-noUGUI\libs\libarm_cortexM4lf_math_r4p5.a(arm_cmplx_mag_f32.o)
                                0x303 (size before relaxing)
 .debug_str     0x00008fc8       0x37 C:\Users\gmtii\workspace\disco-noFB-noUGUI\libs\libarm_cortexM4lf_math_r4p5.a(arm_sin_f32.o)
                                0x242 (size before relaxing)
 .debug_str     0x00008fff       0x2a C:\Users\gmtii\workspace\disco-noFB-noUGUI\libs\libarm_cortexM4lf_math_r4p5.a(arm_cos_f32.o)
                                0x242 (size before relaxing)
 .debug_str     0x00009029       0x58 C:\Users\gmtii\workspace\disco-noFB-noUGUI\libs\libarm_cortexM4lf_math_r4p5.a(arm_sub_f32.o)
                                0x254 (size before relaxing)
 .debug_str     0x00009081       0x26 C:\Users\gmtii\workspace\disco-noFB-noUGUI\libs\libarm_cortexM4lf_math_r4p5.a(arm_scale_f32.o)
                                0x22f (size before relaxing)
 .debug_str     0x000090a7       0x39 C:\Users\gmtii\workspace\disco-noFB-noUGUI\libs\libarm_cortexM4lf_math_r4p5.a(arm_mult_f32.o)
                                0x26a (size before relaxing)
 .debug_str     0x000090e0       0x24 C:\Users\gmtii\workspace\disco-noFB-noUGUI\libs\libarm_cortexM4lf_math_r4p5.a(arm_add_f32.o)
                                0x254 (size before relaxing)
 .debug_str     0x00009104       0x43 C:\Users\gmtii\workspace\disco-noFB-noUGUI\libs\libarm_cortexM4lf_math_r4p5.a(arm_cfft_radix8_f32.o)
                                0x256 (size before relaxing)

.debug_loc      0x00000000    0x17dd9
 *(.debug_loc)
 .debug_loc     0x00000000      0x161 ./system/src/stm32f4/misc.o
 .debug_loc     0x00000161      0x480 ./system/src/stm32f4/stm32f4xx_dma.o
 .debug_loc     0x000005e1      0xb2b ./system/src/stm32f4/stm32f4xx_fmc.o
 .debug_loc     0x0000110c      0x3b8 ./system/src/stm32f4/stm32f4xx_gpio.o
 .debug_loc     0x000014c4      0x760 ./system/src/stm32f4/stm32f4xx_i2c.o
 .debug_loc     0x00001c24      0xd5d ./system/src/stm32f4/stm32f4xx_rcc.o
 .debug_loc     0x00002981      0x6cd ./system/src/stm32f4/stm32f4xx_spi.o
 .debug_loc     0x0000304e     0x1f7d ./system/src/stm32f4/stm32f4xx_tim.o
 .debug_loc     0x00004fcb       0x21 ./system/src/newlib/_exit.o
 .debug_loc     0x00004fec       0x5f ./system/src/newlib/_sbrk.o
 .debug_loc     0x0000504b      0x220 ./system/src/newlib/_startup.o
 .debug_loc     0x0000526b      0x549 ./system/src/newlib/_syscalls.o
 .debug_loc     0x000057b4      0x2f5 ./system/src/cmsis/system_stm32f4xx.o
 .debug_loc     0x00005aa9     0x2909 ./src/ui/ui.o
 .debug_loc     0x000083b2      0x8e8 ./src/tm/tm_stm32f4_dma.o
 .debug_loc     0x00008c9a      0x5d1 ./src/tm/tm_stm32f4_gpio.o
 .debug_loc     0x0000926b      0xf3e ./src/tm/tm_stm32f4_i2c.o
 .debug_loc     0x0000a1a9      0x1c2 ./src/tm/tm_stm32f4_ili9341_button.o
 .debug_loc     0x0000a36b      0xfef ./src/stdio/printf.o
 .debug_loc     0x0000b35a     0x1823 ./src/si5351/si5351.o
 .debug_loc     0x0000cb7d       0x8f ./src/ra8875/gsl1680.o
 .debug_loc     0x0000cc0c     0x2c5d ./src/ra8875/ui_ra8875.o
 .debug_loc     0x0000f869      0x52d ./src/i2c/mchf_hw_i2c.o
 .debug_loc     0x0000fd96      0x8a7 ./src/codec/audio.o
 .debug_loc     0x0001063d      0x25f ./src/codec/codec.o
 .debug_loc     0x0001089c       0x9a ./src/codec/i2s.o
 .debug_loc     0x00010936      0x113 ./src/button/tm_stm32f4_button.o
 .debug_loc     0x00010a49      0x229 ./src/button/tm_stm32f4_delay.o
 .debug_loc     0x00010c72      0x3b7 ./src/main.o
 .debug_loc     0x00011029      0x116 C:\Users\gmtii\workspace\disco-noFB-noUGUI\libs\libarm_cortexM4lf_math_r4p5.a(arm_fill_f32.o)
 .debug_loc     0x0001113f      0x125 C:\Users\gmtii\workspace\disco-noFB-noUGUI\libs\libarm_cortexM4lf_math_r4p5.a(arm_copy_q15.o)
 .debug_loc     0x00011264      0x174 C:\Users\gmtii\workspace\disco-noFB-noUGUI\libs\libarm_cortexM4lf_math_r4p5.a(arm_copy_f32.o)
 .debug_loc     0x000113d8      0x1ed C:\Users\gmtii\workspace\disco-noFB-noUGUI\libs\libarm_cortexM4lf_math_r4p5.a(arm_min_q15.o)
 .debug_loc     0x000115c5      0x178 C:\Users\gmtii\workspace\disco-noFB-noUGUI\libs\libarm_cortexM4lf_math_r4p5.a(arm_min_f32.o)
 .debug_loc     0x0001173d      0x130 C:\Users\gmtii\workspace\disco-noFB-noUGUI\libs\libarm_cortexM4lf_math_r4p5.a(arm_mean_q15.o)
 .debug_loc     0x0001186d      0x197 C:\Users\gmtii\workspace\disco-noFB-noUGUI\libs\libarm_cortexM4lf_math_r4p5.a(arm_mean_f32.o)
 .debug_loc     0x00011a04      0x1ed C:\Users\gmtii\workspace\disco-noFB-noUGUI\libs\libarm_cortexM4lf_math_r4p5.a(arm_max_q15.o)
 .debug_loc     0x00011bf1      0x178 C:\Users\gmtii\workspace\disco-noFB-noUGUI\libs\libarm_cortexM4lf_math_r4p5.a(arm_max_f32.o)
 .debug_loc     0x00011d69     0x1053 C:\Users\gmtii\workspace\disco-noFB-noUGUI\libs\libarm_cortexM4lf_math_r4p5.a(arm_cfft_f32.o)
 .debug_loc     0x00012dbc      0x106 C:\Users\gmtii\workspace\disco-noFB-noUGUI\libs\libarm_cortexM4lf_math_r4p5.a(arm_lms_norm_init_f32.o)
 .debug_loc     0x00012ec2      0x6e5 C:\Users\gmtii\workspace\disco-noFB-noUGUI\libs\libarm_cortexM4lf_math_r4p5.a(arm_lms_norm_f32.o)
 .debug_loc     0x000135a7      0x68e C:\Users\gmtii\workspace\disco-noFB-noUGUI\libs\libarm_cortexM4lf_math_r4p5.a(arm_iir_lattice_f32.o)
 .debug_loc     0x00013c35      0x99b C:\Users\gmtii\workspace\disco-noFB-noUGUI\libs\libarm_cortexM4lf_math_r4p5.a(arm_fir_interpolate_f32.o)
 .debug_loc     0x000145d0       0xc2 C:\Users\gmtii\workspace\disco-noFB-noUGUI\libs\libarm_cortexM4lf_math_r4p5.a(arm_fir_init_f32.o)
 .debug_loc     0x00014692     0x1167 C:\Users\gmtii\workspace\disco-noFB-noUGUI\libs\libarm_cortexM4lf_math_r4p5.a(arm_fir_f32.o)
 .debug_loc     0x000157f9      0xb65 C:\Users\gmtii\workspace\disco-noFB-noUGUI\libs\libarm_cortexM4lf_math_r4p5.a(arm_fir_decimate_f32.o)
 .debug_loc     0x0001635e      0x787 C:\Users\gmtii\workspace\disco-noFB-noUGUI\libs\libarm_cortexM4lf_math_r4p5.a(arm_cmplx_mag_f32.o)
 .debug_loc     0x00016ae5       0xd8 C:\Users\gmtii\workspace\disco-noFB-noUGUI\libs\libarm_cortexM4lf_math_r4p5.a(arm_sin_f32.o)
 .debug_loc     0x00016bbd       0x96 C:\Users\gmtii\workspace\disco-noFB-noUGUI\libs\libarm_cortexM4lf_math_r4p5.a(arm_cos_f32.o)
 .debug_loc     0x00016c53      0x1fc C:\Users\gmtii\workspace\disco-noFB-noUGUI\libs\libarm_cortexM4lf_math_r4p5.a(arm_sub_f32.o)
 .debug_loc     0x00016e4f      0x1d6 C:\Users\gmtii\workspace\disco-noFB-noUGUI\libs\libarm_cortexM4lf_math_r4p5.a(arm_scale_f32.o)
 .debug_loc     0x00017025      0x252 C:\Users\gmtii\workspace\disco-noFB-noUGUI\libs\libarm_cortexM4lf_math_r4p5.a(arm_mult_f32.o)
 .debug_loc     0x00017277      0x1fc C:\Users\gmtii\workspace\disco-noFB-noUGUI\libs\libarm_cortexM4lf_math_r4p5.a(arm_add_f32.o)
 .debug_loc     0x00017473      0x966 C:\Users\gmtii\workspace\disco-noFB-noUGUI\libs\libarm_cortexM4lf_math_r4p5.a(arm_cfft_radix8_f32.o)

.debug_macinfo
 *(.debug_macinfo)

.debug_weaknames
 *(.debug_weaknames)

.debug_funcnames
 *(.debug_funcnames)

.debug_typenames
 *(.debug_typenames)

.debug_varnames
 *(.debug_varnames)
OUTPUT(disco-noFB-noUGUI.elf elf32-littlearm)

.debug_ranges   0x00000000     0x3680
 .debug_ranges  0x00000000       0x30 ./system/src/stm32f4/misc.o
 .debug_ranges  0x00000030       0xa0 ./system/src/stm32f4/stm32f4xx_dma.o
 .debug_ranges  0x000000d0       0xe0 ./system/src/stm32f4/stm32f4xx_fmc.o
 .debug_ranges  0x000001b0       0x78 ./system/src/stm32f4/stm32f4xx_gpio.o
 .debug_ranges  0x00000228      0x120 ./system/src/stm32f4/stm32f4xx_i2c.o
 .debug_ranges  0x00000348      0x1d0 ./system/src/stm32f4/stm32f4xx_rcc.o
 .debug_ranges  0x00000518       0xd0 ./system/src/stm32f4/stm32f4xx_spi.o
 .debug_ranges  0x000005e8      0x370 ./system/src/stm32f4/stm32f4xx_tim.o
 .debug_ranges  0x00000958       0x18 ./system/src/newlib/_exit.o
 .debug_ranges  0x00000970       0x10 ./system/src/newlib/_sbrk.o
 .debug_ranges  0x00000980       0x98 ./system/src/newlib/_startup.o
 .debug_ranges  0x00000a18       0xc0 ./system/src/newlib/_syscalls.o
 .debug_ranges  0x00000ad8       0x18 ./system/src/cortexm/_initialize_hardware.o
 .debug_ranges  0x00000af0       0x10 ./system/src/cortexm/_reset_hardware.o
 .debug_ranges  0x00000b00       0x70 ./system/src/cortexm/exception_handlers.o
 .debug_ranges  0x00000b70       0x88 ./system/src/cmsis/system_stm32f4xx.o
 .debug_ranges  0x00000bf8       0x10 ./system/src/cmsis/vectors_stm32f429xx.o
 .debug_ranges  0x00000c08      0x258 ./src/ui/ui.o
 .debug_ranges  0x00000e60      0x160 ./src/tm/tm_stm32f4_dma.o
 .debug_ranges  0x00000fc0       0xc0 ./src/tm/tm_stm32f4_gpio.o
 .debug_ranges  0x00001080      0x1c0 ./src/tm/tm_stm32f4_i2c.o
 .debug_ranges  0x00001240       0x48 ./src/tm/tm_stm32f4_ili9341_button.o
 .debug_ranges  0x00001288       0x18 ./src/tm/tm_stm32f4_sdram.o
 .debug_ranges  0x000012a0      0x100 ./src/stdio/printf.o
 .debug_ranges  0x000013a0      0x200 ./src/si5351/si5351.o
 .debug_ranges  0x000015a0       0x48 ./src/ra8875/gsl1680.o
 .debug_ranges  0x000015e8     0x1a90 ./src/ra8875/ui_ra8875.o
 .debug_ranges  0x00003078       0x98 ./src/i2c/mchf_hw_i2c.o
 .debug_ranges  0x00003110       0x28 ./src/encoder/ui_rotary.o
 .debug_ranges  0x00003138       0xe0 ./src/codec/audio.o
 .debug_ranges  0x00003218       0x48 ./src/codec/codec.o
 .debug_ranges  0x00003260       0x58 ./src/codec/i2s.o
 .debug_ranges  0x000032b8       0x28 ./src/button/tm_stm32f4_button.o
 .debug_ranges  0x000032e0       0xc0 ./src/button/tm_stm32f4_delay.o
 .debug_ranges  0x000033a0       0x80 ./src/main.o
 .debug_ranges  0x00003420       0x10 C:\Users\gmtii\workspace\disco-noFB-noUGUI\libs\libarm_cortexM4lf_math_r4p5.a(arm_fill_f32.o)
 .debug_ranges  0x00003430       0x10 C:\Users\gmtii\workspace\disco-noFB-noUGUI\libs\libarm_cortexM4lf_math_r4p5.a(arm_copy_q15.o)
 .debug_ranges  0x00003440       0x10 C:\Users\gmtii\workspace\disco-noFB-noUGUI\libs\libarm_cortexM4lf_math_r4p5.a(arm_copy_f32.o)
 .debug_ranges  0x00003450       0x10 C:\Users\gmtii\workspace\disco-noFB-noUGUI\libs\libarm_cortexM4lf_math_r4p5.a(arm_min_q15.o)
 .debug_ranges  0x00003460       0x10 C:\Users\gmtii\workspace\disco-noFB-noUGUI\libs\libarm_cortexM4lf_math_r4p5.a(arm_min_f32.o)
 .debug_ranges  0x00003470       0x10 C:\Users\gmtii\workspace\disco-noFB-noUGUI\libs\libarm_cortexM4lf_math_r4p5.a(arm_mean_q15.o)
 .debug_ranges  0x00003480       0x10 C:\Users\gmtii\workspace\disco-noFB-noUGUI\libs\libarm_cortexM4lf_math_r4p5.a(arm_mean_f32.o)
 .debug_ranges  0x00003490       0x10 C:\Users\gmtii\workspace\disco-noFB-noUGUI\libs\libarm_cortexM4lf_math_r4p5.a(arm_max_q15.o)
 .debug_ranges  0x000034a0       0x10 C:\Users\gmtii\workspace\disco-noFB-noUGUI\libs\libarm_cortexM4lf_math_r4p5.a(arm_max_f32.o)
 .debug_ranges  0x000034b0       0x20 C:\Users\gmtii\workspace\disco-noFB-noUGUI\libs\libarm_cortexM4lf_math_r4p5.a(arm_cfft_f32.o)
 .debug_ranges  0x000034d0       0x10 C:\Users\gmtii\workspace\disco-noFB-noUGUI\libs\libarm_cortexM4lf_math_r4p5.a(arm_lms_norm_init_f32.o)
 .debug_ranges  0x000034e0       0x10 C:\Users\gmtii\workspace\disco-noFB-noUGUI\libs\libarm_cortexM4lf_math_r4p5.a(arm_lms_norm_f32.o)
 .debug_ranges  0x000034f0       0x10 C:\Users\gmtii\workspace\disco-noFB-noUGUI\libs\libarm_cortexM4lf_math_r4p5.a(arm_iir_lattice_f32.o)
 .debug_ranges  0x00003500       0x10 C:\Users\gmtii\workspace\disco-noFB-noUGUI\libs\libarm_cortexM4lf_math_r4p5.a(arm_fir_interpolate_f32.o)
 .debug_ranges  0x00003510       0x10 C:\Users\gmtii\workspace\disco-noFB-noUGUI\libs\libarm_cortexM4lf_math_r4p5.a(arm_fir_init_f32.o)
 .debug_ranges  0x00003520       0x10 C:\Users\gmtii\workspace\disco-noFB-noUGUI\libs\libarm_cortexM4lf_math_r4p5.a(arm_fir_f32.o)
 .debug_ranges  0x00003530       0x10 C:\Users\gmtii\workspace\disco-noFB-noUGUI\libs\libarm_cortexM4lf_math_r4p5.a(arm_fir_decimate_f32.o)
 .debug_ranges  0x00003540       0xd0 C:\Users\gmtii\workspace\disco-noFB-noUGUI\libs\libarm_cortexM4lf_math_r4p5.a(arm_cmplx_mag_f32.o)
 .debug_ranges  0x00003610       0x10 C:\Users\gmtii\workspace\disco-noFB-noUGUI\libs\libarm_cortexM4lf_math_r4p5.a(arm_sin_f32.o)
 .debug_ranges  0x00003620       0x10 C:\Users\gmtii\workspace\disco-noFB-noUGUI\libs\libarm_cortexM4lf_math_r4p5.a(arm_cos_f32.o)
 .debug_ranges  0x00003630       0x10 C:\Users\gmtii\workspace\disco-noFB-noUGUI\libs\libarm_cortexM4lf_math_r4p5.a(arm_sub_f32.o)
 .debug_ranges  0x00003640       0x10 C:\Users\gmtii\workspace\disco-noFB-noUGUI\libs\libarm_cortexM4lf_math_r4p5.a(arm_scale_f32.o)
 .debug_ranges  0x00003650       0x10 C:\Users\gmtii\workspace\disco-noFB-noUGUI\libs\libarm_cortexM4lf_math_r4p5.a(arm_mult_f32.o)
 .debug_ranges  0x00003660       0x10 C:\Users\gmtii\workspace\disco-noFB-noUGUI\libs\libarm_cortexM4lf_math_r4p5.a(arm_add_f32.o)
 .debug_ranges  0x00003670       0x10 C:\Users\gmtii\workspace\disco-noFB-noUGUI\libs\libarm_cortexM4lf_math_r4p5.a(arm_cfft_radix8_f32.o)
