Archive member included because of file (symbol)

C:\Users\itx\workspace\sdr\libs\libarm_cortexM4lf_math.a(arm_copy_q15.o)
                              ./src/ui/ui.o (arm_copy_q15)
C:\Users\itx\workspace\sdr\libs\libarm_cortexM4lf_math.a(arm_copy_f32.o)
                              ./src/ui/ui.o (arm_copy_f32)
C:\Users\itx\workspace\sdr\libs\libarm_cortexM4lf_math.a(arm_min_q15.o)
                              ./src/ui/ui.o (arm_min_q15)
C:\Users\itx\workspace\sdr\libs\libarm_cortexM4lf_math.a(arm_min_f32.o)
                              ./src/ui/ui.o (arm_min_f32)
C:\Users\itx\workspace\sdr\libs\libarm_cortexM4lf_math.a(arm_mean_q15.o)
                              ./src/ui/ui.o (arm_mean_q15)
C:\Users\itx\workspace\sdr\libs\libarm_cortexM4lf_math.a(arm_mean_f32.o)
                              ./src/ui/ui.o (arm_mean_f32)
C:\Users\itx\workspace\sdr\libs\libarm_cortexM4lf_math.a(arm_max_q15.o)
                              ./src/ui/ui.o (arm_max_q15)
C:\Users\itx\workspace\sdr\libs\libarm_cortexM4lf_math.a(arm_max_f32.o)
                              ./src/ui/ui.o (arm_max_f32)
C:\Users\itx\workspace\sdr\libs\libarm_cortexM4lf_math.a(arm_rfft_init_f32.o)
                              ./src/ui/ui.o (arm_rfft_init_f32)
C:\Users\itx\workspace\sdr\libs\libarm_cortexM4lf_math.a(arm_rfft_f32.o)
                              ./src/ui/ui.o (arm_rfft_f32)
C:\Users\itx\workspace\sdr\libs\libarm_cortexM4lf_math.a(arm_cfft_radix4_init_f32.o)
                              C:\Users\itx\workspace\sdr\libs\libarm_cortexM4lf_math.a(arm_rfft_init_f32.o) (arm_cfft_radix4_init_f32)
C:\Users\itx\workspace\sdr\libs\libarm_cortexM4lf_math.a(arm_cfft_radix4_f32.o)
                              C:\Users\itx\workspace\sdr\libs\libarm_cortexM4lf_math.a(arm_rfft_f32.o) (arm_radix4_butterfly_f32)
C:\Users\itx\workspace\sdr\libs\libarm_cortexM4lf_math.a(arm_lms_norm_init_f32.o)
                              ./src/codec/audio.o (arm_lms_norm_init_f32)
C:\Users\itx\workspace\sdr\libs\libarm_cortexM4lf_math.a(arm_lms_norm_f32.o)
                              ./src/codec/audio.o (arm_lms_norm_f32)
C:\Users\itx\workspace\sdr\libs\libarm_cortexM4lf_math.a(arm_iir_lattice_f32.o)
                              ./src/codec/audio.o (arm_iir_lattice_f32)
C:\Users\itx\workspace\sdr\libs\libarm_cortexM4lf_math.a(arm_fir_interpolate_f32.o)
                              ./src/codec/audio.o (arm_fir_interpolate_f32)
C:\Users\itx\workspace\sdr\libs\libarm_cortexM4lf_math.a(arm_fir_init_f32.o)
                              ./src/ui/ui.o (arm_fir_init_f32)
C:\Users\itx\workspace\sdr\libs\libarm_cortexM4lf_math.a(arm_fir_f32.o)
                              ./src/codec/audio.o (arm_fir_f32)
C:\Users\itx\workspace\sdr\libs\libarm_cortexM4lf_math.a(arm_fir_decimate_f32.o)
                              ./src/codec/audio.o (arm_fir_decimate_f32)
C:\Users\itx\workspace\sdr\libs\libarm_cortexM4lf_math.a(arm_cmplx_mag_f32.o)
                              ./src/ui/ui.o (arm_cmplx_mag_f32)
C:\Users\itx\workspace\sdr\libs\libarm_cortexM4lf_math.a(arm_sin_f32.o)
                              ./src/ui/ui.o (arm_sin_f32)
C:\Users\itx\workspace\sdr\libs\libarm_cortexM4lf_math.a(arm_cos_f32.o)
                              ./src/ui/ui.o (arm_cos_f32)
C:\Users\itx\workspace\sdr\libs\libarm_cortexM4lf_math.a(arm_sub_f32.o)
                              ./src/ui/ui.o (arm_sub_f32)
C:\Users\itx\workspace\sdr\libs\libarm_cortexM4lf_math.a(arm_scale_f32.o)
                              ./src/ui/ui.o (arm_scale_f32)
C:\Users\itx\workspace\sdr\libs\libarm_cortexM4lf_math.a(arm_mult_f32.o)
                              ./src/codec/audio.o (arm_mult_f32)
C:\Users\itx\workspace\sdr\libs\libarm_cortexM4lf_math.a(arm_add_f32.o)
                              ./src/ui/ui.o (arm_add_f32)
C:\Users\itx\workspace\sdr\libs\libarm_cortexM4lf_math.a(arm_common_tables.o)
                              C:\Users\itx\workspace\sdr\libs\libarm_cortexM4lf_math.a(arm_cfft_radix4_init_f32.o) (armBitRevTable)
C:\Users\itx\workspace\sdr\libs\libm.a(lib_a-s_fabs.o)
                              ./src/ui/ui.o (fabs)
C:\Users\itx\workspace\sdr\libs\libm.a(lib_a-s_pow10.o)
                              ./src/ui/ui.o (pow10)
C:\Users\itx\workspace\sdr\libs\libm.a(lib_a-sf_ceil.o)
                              ./src/si570/ui_si570.o (ceilf)
C:\Users\itx\workspace\sdr\libs\libm.a(lib_a-sf_floor.o)
                              ./src/si570/ui_si570.o (floorf)
C:\Users\itx\workspace\sdr\libs\libm.a(lib_a-sf_round.o)
                              ./src/si570/ui_si570.o (roundf)
C:\Users\itx\workspace\sdr\libs\libm.a(lib_a-w_log10.o)
                              ./src/ui/ui.o (log10)
C:\Users\itx\workspace\sdr\libs\libm.a(lib_a-w_pow.o)
                              C:\Users\itx\workspace\sdr\libs\libm.a(lib_a-s_pow10.o) (pow)
C:\Users\itx\workspace\sdr\libs\libm.a(lib_a-w_sqrt.o)
                              ./src/ui/ui.o (sqrt)
C:\Users\itx\workspace\sdr\libs\libm.a(lib_a-wf_log10.o)
                              ./src/ui/ui.o (log10f)
C:\Users\itx\workspace\sdr\libs\libm.a(lib_a-wf_pow.o)
                              ./src/ui/ui.o (powf)
C:\Users\itx\workspace\sdr\libs\libm.a(lib_a-wf_sqrt.o)
                              ./src/codec/audio.o (sqrtf)
C:\Users\itx\workspace\sdr\libs\libm.a(lib_a-e_log10.o)
                              C:\Users\itx\workspace\sdr\libs\libm.a(lib_a-w_log10.o) (__ieee754_log10)
C:\Users\itx\workspace\sdr\libs\libm.a(lib_a-e_pow.o)
                              C:\Users\itx\workspace\sdr\libs\libm.a(lib_a-w_pow.o) (__ieee754_pow)
C:\Users\itx\workspace\sdr\libs\libm.a(lib_a-e_sqrt.o)
                              C:\Users\itx\workspace\sdr\libs\libm.a(lib_a-w_sqrt.o) (__ieee754_sqrt)
C:\Users\itx\workspace\sdr\libs\libm.a(lib_a-ef_log10.o)
                              C:\Users\itx\workspace\sdr\libs\libm.a(lib_a-wf_log10.o) (__ieee754_log10f)
C:\Users\itx\workspace\sdr\libs\libm.a(lib_a-ef_pow.o)
                              C:\Users\itx\workspace\sdr\libs\libm.a(lib_a-wf_pow.o) (__ieee754_powf)
C:\Users\itx\workspace\sdr\libs\libm.a(lib_a-ef_sqrt.o)
                              C:\Users\itx\workspace\sdr\libs\libm.a(lib_a-wf_sqrt.o) (__ieee754_sqrtf)
C:\Users\itx\workspace\sdr\libs\libm.a(lib_a-s_finite.o)
                              C:\Users\itx\workspace\sdr\libs\libm.a(lib_a-w_pow.o) (finite)
C:\Users\itx\workspace\sdr\libs\libm.a(lib_a-s_fpclassify.o)
                              C:\Users\itx\workspace\sdr\libs\libm.a(lib_a-w_log10.o) (__fpclassifyd)
C:\Users\itx\workspace\sdr\libs\libm.a(lib_a-s_lib_ver.o)
                              C:\Users\itx\workspace\sdr\libs\libm.a(lib_a-w_log10.o) (__fdlib_version)
C:\Users\itx\workspace\sdr\libs\libm.a(lib_a-s_matherr.o)
                              C:\Users\itx\workspace\sdr\libs\libm.a(lib_a-w_log10.o) (matherr)
C:\Users\itx\workspace\sdr\libs\libm.a(lib_a-s_nan.o)
                              C:\Users\itx\workspace\sdr\libs\libm.a(lib_a-w_log10.o) (nan)
C:\Users\itx\workspace\sdr\libs\libm.a(lib_a-s_rint.o)
                              C:\Users\itx\workspace\sdr\libs\libm.a(lib_a-w_pow.o) (rint)
C:\Users\itx\workspace\sdr\libs\libm.a(lib_a-s_scalbn.o)
                              C:\Users\itx\workspace\sdr\libs\libm.a(lib_a-e_pow.o) (scalbn)
C:\Users\itx\workspace\sdr\libs\libm.a(lib_a-sf_fabs.o)
                              C:\Users\itx\workspace\sdr\libs\libm.a(lib_a-ef_pow.o) (fabsf)
C:\Users\itx\workspace\sdr\libs\libm.a(lib_a-sf_finite.o)
                              C:\Users\itx\workspace\sdr\libs\libm.a(lib_a-wf_pow.o) (finitef)
C:\Users\itx\workspace\sdr\libs\libm.a(lib_a-sf_fpclassify.o)
                              C:\Users\itx\workspace\sdr\libs\libm.a(lib_a-wf_log10.o) (__fpclassifyf)
C:\Users\itx\workspace\sdr\libs\libm.a(lib_a-sf_nan.o)
                              C:\Users\itx\workspace\sdr\libs\libm.a(lib_a-ef_pow.o) (nanf)
C:\Users\itx\workspace\sdr\libs\libm.a(lib_a-sf_scalbn.o)
                              C:\Users\itx\workspace\sdr\libs\libm.a(lib_a-ef_pow.o) (scalbnf)
C:\Users\itx\workspace\sdr\libs\libm.a(lib_a-e_log.o)
                              C:\Users\itx\workspace\sdr\libs\libm.a(lib_a-e_log10.o) (__ieee754_log)
C:\Users\itx\workspace\sdr\libs\libm.a(lib_a-ef_log.o)
                              C:\Users\itx\workspace\sdr\libs\libm.a(lib_a-ef_log10.o) (__ieee754_logf)
C:\Users\itx\workspace\sdr\libs\libm.a(lib_a-s_copysign.o)
                              C:\Users\itx\workspace\sdr\libs\libm.a(lib_a-s_scalbn.o) (copysign)
C:\Users\itx\workspace\sdr\libs\libm.a(lib_a-sf_copysign.o)
                              C:\Users\itx\workspace\sdr\libs\libm.a(lib_a-sf_scalbn.o) (copysignf)
d:/armtc/armgcc/4.9 2015q3/bin/../lib/gcc/arm-none-eabi/4.9.3/armv7e-m/fpu\libgcc.a(_arm_addsubdf3.o)
                              ./src/ui/ui.o (__aeabi_dsub)
d:/armtc/armgcc/4.9 2015q3/bin/../lib/gcc/arm-none-eabi/4.9.3/armv7e-m/fpu\libgcc.a(_arm_muldivdf3.o)
                              ./src/ui/ui.o (__aeabi_dmul)
d:/armtc/armgcc/4.9 2015q3/bin/../lib/gcc/arm-none-eabi/4.9.3/armv7e-m/fpu\libgcc.a(_arm_cmpdf2.o)
                              ./src/si570/ui_si570.o (__aeabi_dcmpeq)
d:/armtc/armgcc/4.9 2015q3/bin/../lib/gcc/arm-none-eabi/4.9.3/armv7e-m/fpu\libgcc.a(_arm_fixunsdfsi.o)
                              ./src/codec/audio.o (__aeabi_d2uiz)
d:/armtc/armgcc/4.9 2015q3/bin/../lib/gcc/arm-none-eabi/4.9.3/armv7e-m/fpu\libgcc.a(_arm_truncdfsf2.o)
                              ./src/ui/ui.o (__aeabi_d2f)
d:/armtc/armgcc/4.9 2015q3/bin/../lib/gcc/arm-none-eabi/4.9.3/../../../../arm-none-eabi/lib/armv7e-m/fpu\libg_nano.a(lib_a-errno.o)
                              ./system/src/newlib/_sbrk.o (__errno)
d:/armtc/armgcc/4.9 2015q3/bin/../lib/gcc/arm-none-eabi/4.9.3/../../../../arm-none-eabi/lib/armv7e-m/fpu\libg_nano.a(lib_a-malloc.o)
                              ./src/button/tm_stm32f4_button.o (malloc)
d:/armtc/armgcc/4.9 2015q3/bin/../lib/gcc/arm-none-eabi/4.9.3/../../../../arm-none-eabi/lib/armv7e-m/fpu\libg_nano.a(lib_a-memcmp.o)
                              ./src/si570/ui_si570.o (memcmp)
d:/armtc/armgcc/4.9 2015q3/bin/../lib/gcc/arm-none-eabi/4.9.3/../../../../arm-none-eabi/lib/armv7e-m/fpu\libg_nano.a(lib_a-memset.o)
                              C:\Users\itx\workspace\sdr\libs\libarm_cortexM4lf_math.a(arm_lms_norm_init_f32.o) (memset)
d:/armtc/armgcc/4.9 2015q3/bin/../lib/gcc/arm-none-eabi/4.9.3/../../../../arm-none-eabi/lib/armv7e-m/fpu\libg_nano.a(lib_a-nano-freer.o)
                              d:/armtc/armgcc/4.9 2015q3/bin/../lib/gcc/arm-none-eabi/4.9.3/../../../../arm-none-eabi/lib/armv7e-m/fpu\libg_nano.a(lib_a-malloc.o) (_free_r)
d:/armtc/armgcc/4.9 2015q3/bin/../lib/gcc/arm-none-eabi/4.9.3/../../../../arm-none-eabi/lib/armv7e-m/fpu\libg_nano.a(lib_a-nano-mallocr.o)
                              d:/armtc/armgcc/4.9 2015q3/bin/../lib/gcc/arm-none-eabi/4.9.3/../../../../arm-none-eabi/lib/armv7e-m/fpu\libg_nano.a(lib_a-malloc.o) (_malloc_r)
d:/armtc/armgcc/4.9 2015q3/bin/../lib/gcc/arm-none-eabi/4.9.3/../../../../arm-none-eabi/lib/armv7e-m/fpu\libg_nano.a(lib_a-sbrkr.o)
                              d:/armtc/armgcc/4.9 2015q3/bin/../lib/gcc/arm-none-eabi/4.9.3/../../../../arm-none-eabi/lib/armv7e-m/fpu\libg_nano.a(lib_a-nano-mallocr.o) (_sbrk_r)
d:/armtc/armgcc/4.9 2015q3/bin/../lib/gcc/arm-none-eabi/4.9.3/../../../../arm-none-eabi/lib/armv7e-m/fpu\libg_nano.a(lib_a-strcpy.o)
                              ./src/ui/ui.o (strcpy)
d:/armtc/armgcc/4.9 2015q3/bin/../lib/gcc/arm-none-eabi/4.9.3/../../../../arm-none-eabi/lib/armv7e-m/fpu\libg_nano.a(lib_a-strlen.o)
                              ./src/ui/ui.o (strlen)

Allocating common symbols
Common symbol       size              file

rxbuf               0x4               ./src/codec/i2s.o
band_decod_mode     0x28              ./src/ui/ui.o
FIR_A               0xc               ./src/codec/audio.o
right_buffer        0x40              ./src/codec/audio.o
errno               0x4               ./system/src/newlib/_syscalls.o
left_buffer         0x40              ./src/codec/audio.o
ts                  0xa8              ./src/hy28b/ui_lcd_hy28.o
lcd_cs_pio          0x4               ./src/hy28b/ui_lcd_hy28.o
osc_i               0x100             ./src/codec/audio.o
band_filter_mode    0x28              ./src/ui/ui.o
band_dial_value     0x28              ./src/ui/ui.o
lms1StateF32        0x300             ./src/codec/audio.o
lms2StateF32        0x300             ./src/codec/audio.o
tot_cyc             0x4               ./src/codec/cyclesleep.o
lms1_instance       0x10              ./src/codec/audio.o
errsig2             0x104             ./src/codec/audio.o
lms2_nr_delay       0x1040            ./src/codec/audio.o
rx_buffer           0x100             ./src/main.o
os                  0x20              ./src/si570/ui_si570.o
interpState         0xc0              ./src/codec/audio.o
tx_buffer           0x100             ./src/main.o
mono_buffer         0x40              ./src/codec/audio.o
si570_address       0x2               ./src/si570/ui_si570.o
errsig1             0x104             ./src/codec/audio.o
FIR_Q               0xc               ./src/codec/audio.o
df                  0x44              ./src/main.o
lcd_cs              0x2               ./src/hy28b/ui_lcd_hy28.o
DMA_InitStructure2  0x3c              ./src/codec/i2s.o
lms1NormCoeff_f32   0x300             ./src/codec/audio.o
szbuf               0x4               ./src/codec/i2s.o
lms2NormCoeff_f32   0x300             ./src/codec/audio.o
osc_q               0x100             ./src/codec/audio.o
fc                  0x410             ./src/main.o
sd                  0xecf4            ./src/codec/audio.o
result              0x104             ./src/codec/audio.o
agc_delay           0x540             ./src/codec/audio.o
lms1Norm_instance   0x18              ./src/codec/audio.o
s_tot               0x4               ./src/codec/cyclesleep.o
FIR_I               0xc               ./src/codec/audio.o
ews                 0xc               ./src/ui/ui.o
decimState          0xc0              ./src/codec/audio.o
sm                  0x14              ./src/codec/audio.o
mult                0x4               ./src/button/tm_stm32f4_delay.o
lms1_nr_delay       0x840             ./src/codec/audio.o
firState_A          0xc0              ./src/codec/audio.o
DelayCyc1s          0x4               ./src/codec/cyclesleep.o
lms2Norm_instance   0x18              ./src/codec/audio.o
DMA_InitStructure   0x3c              ./src/codec/i2s.o
txbuf               0x4               ./src/codec/i2s.o
ads                 0xaa0             ./src/codec/audio.o
act_cyc             0x4               ./src/codec/cyclesleep.o
lms2_instance       0x10              ./src/codec/audio.o

Discarded input sections

 .text          0x00000000        0x0 ./system/src/stm32f4/misc.o
 .data          0x00000000        0x0 ./system/src/stm32f4/misc.o
 .bss           0x00000000        0x0 ./system/src/stm32f4/misc.o
 .text.NVIC_PriorityGroupConfig
                0x00000000       0x14 ./system/src/stm32f4/misc.o
 .text.NVIC_Init
                0x00000000       0x70 ./system/src/stm32f4/misc.o
 .text.NVIC_SetVectorTable
                0x00000000       0x14 ./system/src/stm32f4/misc.o
 .text.NVIC_SystemLPConfig
                0x00000000       0x18 ./system/src/stm32f4/misc.o
 .text.SysTick_CLKSourceConfig
                0x00000000       0x18 ./system/src/stm32f4/misc.o
 .debug_info    0x00000000      0x526 ./system/src/stm32f4/misc.o
 .debug_abbrev  0x00000000      0x156 ./system/src/stm32f4/misc.o
 .debug_loc     0x00000000      0x161 ./system/src/stm32f4/misc.o
 .debug_aranges
                0x00000000       0x40 ./system/src/stm32f4/misc.o
 .debug_ranges  0x00000000       0x30 ./system/src/stm32f4/misc.o
 .debug_line    0x00000000      0x17f ./system/src/stm32f4/misc.o
 .debug_str     0x00000000      0x435 ./system/src/stm32f4/misc.o
 .comment       0x00000000       0x71 ./system/src/stm32f4/misc.o
 .debug_frame   0x00000000       0x74 ./system/src/stm32f4/misc.o
 .ARM.attributes
                0x00000000       0x39 ./system/src/stm32f4/misc.o
 .text          0x00000000        0x0 ./system/src/stm32f4/stm32f4xx_adc.o
 .data          0x00000000        0x0 ./system/src/stm32f4/stm32f4xx_adc.o
 .bss           0x00000000        0x0 ./system/src/stm32f4/stm32f4xx_adc.o
 .text.ADC_DeInit
                0x00000000       0x1c ./system/src/stm32f4/stm32f4xx_adc.o
 .text.ADC_Init
                0x00000000       0x50 ./system/src/stm32f4/stm32f4xx_adc.o
 .text.ADC_StructInit
                0x00000000       0x14 ./system/src/stm32f4/stm32f4xx_adc.o
 .text.ADC_CommonInit
                0x00000000       0x28 ./system/src/stm32f4/stm32f4xx_adc.o
 .text.ADC_CommonStructInit
                0x00000000        0xc ./system/src/stm32f4/stm32f4xx_adc.o
 .text.ADC_Cmd  0x00000000       0x14 ./system/src/stm32f4/stm32f4xx_adc.o
 .text.ADC_AnalogWatchdogCmd
                0x00000000       0x10 ./system/src/stm32f4/stm32f4xx_adc.o
 .text.ADC_AnalogWatchdogThresholdsConfig
                0x00000000        0x8 ./system/src/stm32f4/stm32f4xx_adc.o
 .text.ADC_AnalogWatchdogSingleChannelConfig
                0x00000000        0xc ./system/src/stm32f4/stm32f4xx_adc.o
 .text.ADC_TempSensorVrefintCmd
                0x00000000       0x1c ./system/src/stm32f4/stm32f4xx_adc.o
 .text.ADC_VBATCmd
                0x00000000       0x1c ./system/src/stm32f4/stm32f4xx_adc.o
 .text.ADC_RegularChannelConfig
                0x00000000       0x8c ./system/src/stm32f4/stm32f4xx_adc.o
 .text.ADC_SoftwareStartConv
                0x00000000        0xc ./system/src/stm32f4/stm32f4xx_adc.o
 .text.ADC_GetSoftwareStartConvStatus
                0x00000000        0x8 ./system/src/stm32f4/stm32f4xx_adc.o
 .text.ADC_EOCOnEachRegularChannelCmd
                0x00000000       0x14 ./system/src/stm32f4/stm32f4xx_adc.o
 .text.ADC_ContinuousModeCmd
                0x00000000       0x14 ./system/src/stm32f4/stm32f4xx_adc.o
 .text.ADC_DiscModeChannelCountConfig
                0x00000000       0x10 ./system/src/stm32f4/stm32f4xx_adc.o
 .text.ADC_DiscModeCmd
                0x00000000       0x14 ./system/src/stm32f4/stm32f4xx_adc.o
 .text.ADC_GetConversionValue
                0x00000000        0x8 ./system/src/stm32f4/stm32f4xx_adc.o
 .text.ADC_GetMultiModeConversionValue
                0x00000000        0xc ./system/src/stm32f4/stm32f4xx_adc.o
 .text.ADC_DMACmd
                0x00000000       0x14 ./system/src/stm32f4/stm32f4xx_adc.o
 .text.ADC_DMARequestAfterLastTransferCmd
                0x00000000       0x14 ./system/src/stm32f4/stm32f4xx_adc.o
 .text.ADC_MultiModeDMARequestAfterLastTransferCmd
                0x00000000       0x1c ./system/src/stm32f4/stm32f4xx_adc.o
 .text.ADC_InjectedChannelConfig
                0x00000000       0x58 ./system/src/stm32f4/stm32f4xx_adc.o
 .text.ADC_InjectedSequencerLengthConfig
                0x00000000       0x10 ./system/src/stm32f4/stm32f4xx_adc.o
 .text.ADC_SetInjectedOffset
                0x00000000       0x18 ./system/src/stm32f4/stm32f4xx_adc.o
 .text.ADC_ExternalTrigInjectedConvConfig
                0x00000000        0xc ./system/src/stm32f4/stm32f4xx_adc.o
 .text.ADC_ExternalTrigInjectedConvEdgeConfig
                0x00000000        0xc ./system/src/stm32f4/stm32f4xx_adc.o
 .text.ADC_SoftwareStartInjectedConv
                0x00000000        0xc ./system/src/stm32f4/stm32f4xx_adc.o
 .text.ADC_GetSoftwareStartInjectedConvCmdStatus
                0x00000000        0x8 ./system/src/stm32f4/stm32f4xx_adc.o
 .text.ADC_AutoInjectedConvCmd
                0x00000000       0x14 ./system/src/stm32f4/stm32f4xx_adc.o
 .text.ADC_InjectedDiscModeCmd
                0x00000000       0x14 ./system/src/stm32f4/stm32f4xx_adc.o
 .text.ADC_GetInjectedConversionValue
                0x00000000       0x1c ./system/src/stm32f4/stm32f4xx_adc.o
 .text.ADC_ITConfig
                0x00000000       0x1c ./system/src/stm32f4/stm32f4xx_adc.o
 .text.ADC_GetFlagStatus
                0x00000000        0xc ./system/src/stm32f4/stm32f4xx_adc.o
 .text.ADC_ClearFlag
                0x00000000        0x8 ./system/src/stm32f4/stm32f4xx_adc.o
 .text.ADC_GetITStatus
                0x00000000       0x1c ./system/src/stm32f4/stm32f4xx_adc.o
 .text.ADC_ClearITPendingBit
                0x00000000        0x8 ./system/src/stm32f4/stm32f4xx_adc.o
 .debug_info    0x00000000      0xc60 ./system/src/stm32f4/stm32f4xx_adc.o
 .debug_abbrev  0x00000000      0x1ce ./system/src/stm32f4/stm32f4xx_adc.o
 .debug_loc     0x00000000      0xa81 ./system/src/stm32f4/stm32f4xx_adc.o
 .debug_aranges
                0x00000000      0x148 ./system/src/stm32f4/stm32f4xx_adc.o
 .debug_ranges  0x00000000      0x138 ./system/src/stm32f4/stm32f4xx_adc.o
 .debug_line    0x00000000      0x4b7 ./system/src/stm32f4/stm32f4xx_adc.o
 .debug_str     0x00000000      0x877 ./system/src/stm32f4/stm32f4xx_adc.o
 .comment       0x00000000       0x71 ./system/src/stm32f4/stm32f4xx_adc.o
 .debug_frame   0x00000000      0x2e4 ./system/src/stm32f4/stm32f4xx_adc.o
 .ARM.attributes
                0x00000000       0x39 ./system/src/stm32f4/stm32f4xx_adc.o
 .text          0x00000000        0x0 ./system/src/stm32f4/stm32f4xx_dac.o
 .data          0x00000000        0x0 ./system/src/stm32f4/stm32f4xx_dac.o
 .bss           0x00000000        0x0 ./system/src/stm32f4/stm32f4xx_dac.o
 .text.DAC_DeInit
                0x00000000       0x1c ./system/src/stm32f4/stm32f4xx_dac.o
 .text.DAC_Init
                0x00000000       0x30 ./system/src/stm32f4/stm32f4xx_dac.o
 .text.DAC_StructInit
                0x00000000        0xc ./system/src/stm32f4/stm32f4xx_dac.o
 .text.DAC_Cmd  0x00000000       0x24 ./system/src/stm32f4/stm32f4xx_dac.o
 .text.DAC_SoftwareTriggerCmd
                0x00000000       0x28 ./system/src/stm32f4/stm32f4xx_dac.o
 .text.DAC_DualSoftwareTriggerCmd
                0x00000000       0x1c ./system/src/stm32f4/stm32f4xx_dac.o
 .text.DAC_WaveGenerationCmd
                0x00000000       0x20 ./system/src/stm32f4/stm32f4xx_dac.o
 .text.DAC_SetChannel1Data
                0x00000000       0x20 ./system/src/stm32f4/stm32f4xx_dac.o
 .text.DAC_SetChannel2Data
                0x00000000       0x20 ./system/src/stm32f4/stm32f4xx_dac.o
 .text.DAC_SetDualChannelData
                0x00000000       0x18 ./system/src/stm32f4/stm32f4xx_dac.o
 .text.DAC_GetDataOutputValue
                0x00000000       0x24 ./system/src/stm32f4/stm32f4xx_dac.o
 .text.DAC_DMACmd
                0x00000000       0x28 ./system/src/stm32f4/stm32f4xx_dac.o
 .text.DAC_ITConfig
                0x00000000       0x20 ./system/src/stm32f4/stm32f4xx_dac.o
 .text.DAC_GetFlagStatus
                0x00000000       0x14 ./system/src/stm32f4/stm32f4xx_dac.o
 .text.DAC_ClearFlag
                0x00000000        0xc ./system/src/stm32f4/stm32f4xx_dac.o
 .text.DAC_GetITStatus
                0x00000000       0x1c ./system/src/stm32f4/stm32f4xx_dac.o
 .text.DAC_ClearITPendingBit
                0x00000000        0xc ./system/src/stm32f4/stm32f4xx_dac.o
 .debug_info    0x00000000      0x667 ./system/src/stm32f4/stm32f4xx_dac.o
 .debug_abbrev  0x00000000      0x1d2 ./system/src/stm32f4/stm32f4xx_dac.o
 .debug_loc     0x00000000      0x47a ./system/src/stm32f4/stm32f4xx_dac.o
 .debug_aranges
                0x00000000       0xa0 ./system/src/stm32f4/stm32f4xx_dac.o
 .debug_ranges  0x00000000       0x90 ./system/src/stm32f4/stm32f4xx_dac.o
 .debug_line    0x00000000      0x2ad ./system/src/stm32f4/stm32f4xx_dac.o
 .debug_str     0x00000000      0x4c6 ./system/src/stm32f4/stm32f4xx_dac.o
 .comment       0x00000000       0x71 ./system/src/stm32f4/stm32f4xx_dac.o
 .debug_frame   0x00000000      0x158 ./system/src/stm32f4/stm32f4xx_dac.o
 .ARM.attributes
                0x00000000       0x39 ./system/src/stm32f4/stm32f4xx_dac.o
 .text          0x00000000        0x0 ./system/src/stm32f4/stm32f4xx_dma.o
 .data          0x00000000        0x0 ./system/src/stm32f4/stm32f4xx_dma.o
 .bss           0x00000000        0x0 ./system/src/stm32f4/stm32f4xx_dma.o
 .text.DMA_StructInit
                0x00000000       0x24 ./system/src/stm32f4/stm32f4xx_dma.o
 .text.DMA_PeriphIncOffsetSizeConfig
                0x00000000       0x14 ./system/src/stm32f4/stm32f4xx_dma.o
 .text.DMA_FlowControllerConfig
                0x00000000       0x14 ./system/src/stm32f4/stm32f4xx_dma.o
 .text.DMA_SetCurrDataCounter
                0x00000000        0x4 ./system/src/stm32f4/stm32f4xx_dma.o
 .text.DMA_GetCurrDataCounter
                0x00000000        0x8 ./system/src/stm32f4/stm32f4xx_dma.o
 .text.DMA_DoubleBufferModeConfig
                0x00000000       0x18 ./system/src/stm32f4/stm32f4xx_dma.o
 .text.DMA_DoubleBufferModeCmd
                0x00000000       0x14 ./system/src/stm32f4/stm32f4xx_dma.o
 .text.DMA_MemoryTargetConfig
                0x00000000        0xc ./system/src/stm32f4/stm32f4xx_dma.o
 .text.DMA_GetCurrentMemoryTarget
                0x00000000        0x8 ./system/src/stm32f4/stm32f4xx_dma.o
 .text.DMA_GetCmdStatus
                0x00000000        0x8 ./system/src/stm32f4/stm32f4xx_dma.o
 .text.DMA_GetFIFOStatus
                0x00000000        0x8 ./system/src/stm32f4/stm32f4xx_dma.o
 .text.DMA_GetITStatus
                0x00000000       0x50 ./system/src/stm32f4/stm32f4xx_dma.o
 .text.DMA_ClearITPendingBit
                0x00000000       0x34 ./system/src/stm32f4/stm32f4xx_dma.o
 .text          0x00000000        0x0 ./system/src/stm32f4/stm32f4xx_exti.o
 .data          0x00000000        0x0 ./system/src/stm32f4/stm32f4xx_exti.o
 .bss           0x00000000        0x0 ./system/src/stm32f4/stm32f4xx_exti.o
 .text.EXTI_DeInit
                0x00000000       0x1c ./system/src/stm32f4/stm32f4xx_exti.o
 .text.EXTI_Init
                0x00000000       0x7c ./system/src/stm32f4/stm32f4xx_exti.o
 .text.EXTI_StructInit
                0x00000000       0x10 ./system/src/stm32f4/stm32f4xx_exti.o
 .text.EXTI_GenerateSWInterrupt
                0x00000000       0x10 ./system/src/stm32f4/stm32f4xx_exti.o
 .text.EXTI_GetFlagStatus
                0x00000000       0x14 ./system/src/stm32f4/stm32f4xx_exti.o
 .text.EXTI_ClearFlag
                0x00000000        0xc ./system/src/stm32f4/stm32f4xx_exti.o
 .text.EXTI_GetITStatus
                0x00000000       0x1c ./system/src/stm32f4/stm32f4xx_exti.o
 .text.EXTI_ClearITPendingBit
                0x00000000        0xc ./system/src/stm32f4/stm32f4xx_exti.o
 .debug_info    0x00000000      0x33a ./system/src/stm32f4/stm32f4xx_exti.o
 .debug_abbrev  0x00000000      0x1c5 ./system/src/stm32f4/stm32f4xx_exti.o
 .debug_loc     0x00000000      0x1f6 ./system/src/stm32f4/stm32f4xx_exti.o
 .debug_aranges
                0x00000000       0x58 ./system/src/stm32f4/stm32f4xx_exti.o
 .debug_ranges  0x00000000       0x48 ./system/src/stm32f4/stm32f4xx_exti.o
 .debug_line    0x00000000      0x1e2 ./system/src/stm32f4/stm32f4xx_exti.o
 .debug_str     0x00000000      0x3ca ./system/src/stm32f4/stm32f4xx_exti.o
 .comment       0x00000000       0x71 ./system/src/stm32f4/stm32f4xx_exti.o
 .debug_frame   0x00000000       0xb4 ./system/src/stm32f4/stm32f4xx_exti.o
 .ARM.attributes
                0x00000000       0x39 ./system/src/stm32f4/stm32f4xx_exti.o
 .text          0x00000000        0x0 ./system/src/stm32f4/stm32f4xx_flash.o
 .data          0x00000000        0x0 ./system/src/stm32f4/stm32f4xx_flash.o
 .bss           0x00000000        0x0 ./system/src/stm32f4/stm32f4xx_flash.o
 .text.FLASH_SetLatency
                0x00000000        0xc ./system/src/stm32f4/stm32f4xx_flash.o
 .text.FLASH_PrefetchBufferCmd
                0x00000000       0x1c ./system/src/stm32f4/stm32f4xx_flash.o
 .text.FLASH_InstructionCacheCmd
                0x00000000       0x1c ./system/src/stm32f4/stm32f4xx_flash.o
 .text.FLASH_DataCacheCmd
                0x00000000       0x1c ./system/src/stm32f4/stm32f4xx_flash.o
 .text.FLASH_InstructionCacheReset
                0x00000000       0x10 ./system/src/stm32f4/stm32f4xx_flash.o
 .text.FLASH_DataCacheReset
                0x00000000       0x10 ./system/src/stm32f4/stm32f4xx_flash.o
 .text.FLASH_Unlock
                0x00000000       0x20 ./system/src/stm32f4/stm32f4xx_flash.o
 .text.FLASH_Lock
                0x00000000       0x10 ./system/src/stm32f4/stm32f4xx_flash.o
 .text.FLASH_OB_Unlock
                0x00000000       0x20 ./system/src/stm32f4/stm32f4xx_flash.o
 .text.FLASH_OB_Lock
                0x00000000       0x10 ./system/src/stm32f4/stm32f4xx_flash.o
 .text.FLASH_OB_BORConfig
                0x00000000       0x18 ./system/src/stm32f4/stm32f4xx_flash.o
 .text.FLASH_OB_GetUser
                0x00000000       0x10 ./system/src/stm32f4/stm32f4xx_flash.o
 .text.FLASH_OB_GetWRP
                0x00000000        0xc ./system/src/stm32f4/stm32f4xx_flash.o
 .text.FLASH_OB_GetRDP
                0x00000000       0x10 ./system/src/stm32f4/stm32f4xx_flash.o
 .text.FLASH_OB_GetBOR
                0x00000000       0x10 ./system/src/stm32f4/stm32f4xx_flash.o
 .text.FLASH_ITConfig
                0x00000000       0x18 ./system/src/stm32f4/stm32f4xx_flash.o
 .text.FLASH_GetFlagStatus
                0x00000000       0x14 ./system/src/stm32f4/stm32f4xx_flash.o
 .text.FLASH_ClearFlag
                0x00000000        0xc ./system/src/stm32f4/stm32f4xx_flash.o
 .text.FLASH_GetStatus
                0x00000000       0x34 ./system/src/stm32f4/stm32f4xx_flash.o
 .text.FLASH_WaitForLastOperation
                0x00000000       0x28 ./system/src/stm32f4/stm32f4xx_flash.o
 .text.FLASH_EraseSector
                0x00000000       0x74 ./system/src/stm32f4/stm32f4xx_flash.o
 .text.FLASH_EraseAllSectors
                0x00000000       0x5c ./system/src/stm32f4/stm32f4xx_flash.o
 .text.FLASH_ProgramDoubleWord
                0x00000000       0x44 ./system/src/stm32f4/stm32f4xx_flash.o
 .text.FLASH_ProgramWord
                0x00000000       0x40 ./system/src/stm32f4/stm32f4xx_flash.o
 .text.FLASH_ProgramHalfWord
                0x00000000       0x40 ./system/src/stm32f4/stm32f4xx_flash.o
 .text.FLASH_ProgramByte
                0x00000000       0x3c ./system/src/stm32f4/stm32f4xx_flash.o
 .text.FLASH_OB_WRPConfig
                0x00000000       0x2c ./system/src/stm32f4/stm32f4xx_flash.o
 .text.FLASH_OB_RDPConfig
                0x00000000       0x18 ./system/src/stm32f4/stm32f4xx_flash.o
 .text.FLASH_OB_UserConfig
                0x00000000       0x28 ./system/src/stm32f4/stm32f4xx_flash.o
 .text.FLASH_OB_Launch
                0x00000000       0x14 ./system/src/stm32f4/stm32f4xx_flash.o
 .debug_info    0x00000000      0x7c6 ./system/src/stm32f4/stm32f4xx_flash.o
 .debug_abbrev  0x00000000      0x21c ./system/src/stm32f4/stm32f4xx_flash.o
 .debug_loc     0x00000000      0x60a ./system/src/stm32f4/stm32f4xx_flash.o
 .debug_aranges
                0x00000000      0x108 ./system/src/stm32f4/stm32f4xx_flash.o
 .debug_ranges  0x00000000       0xf8 ./system/src/stm32f4/stm32f4xx_flash.o
 .debug_line    0x00000000      0x3be ./system/src/stm32f4/stm32f4xx_flash.o
 .debug_str     0x00000000      0x5e3 ./system/src/stm32f4/stm32f4xx_flash.o
 .comment       0x00000000       0x71 ./system/src/stm32f4/stm32f4xx_flash.o
 .debug_frame   0x00000000      0x268 ./system/src/stm32f4/stm32f4xx_flash.o
 .ARM.attributes
                0x00000000       0x39 ./system/src/stm32f4/stm32f4xx_flash.o
 .text          0x00000000        0x0 ./system/src/stm32f4/stm32f4xx_fsmc.o
 .data          0x00000000        0x0 ./system/src/stm32f4/stm32f4xx_fsmc.o
 .bss           0x00000000        0x0 ./system/src/stm32f4/stm32f4xx_fsmc.o
 .text.FSMC_NORSRAMDeInit
                0x00000000       0x28 ./system/src/stm32f4/stm32f4xx_fsmc.o
 .text.FSMC_NORSRAMInit
                0x00000000       0xc0 ./system/src/stm32f4/stm32f4xx_fsmc.o
 .text.FSMC_NORSRAMStructInit
                0x00000000       0x50 ./system/src/stm32f4/stm32f4xx_fsmc.o
 .text.FSMC_NORSRAMCmd
                0x00000000       0x20 ./system/src/stm32f4/stm32f4xx_fsmc.o
 .text.FSMC_NANDDeInit
                0x00000000       0x24 ./system/src/stm32f4/stm32f4xx_fsmc.o
 .text.FSMC_NANDInit
                0x00000000       0x80 ./system/src/stm32f4/stm32f4xx_fsmc.o
 .text.FSMC_NANDStructInit
                0x00000000       0x30 ./system/src/stm32f4/stm32f4xx_fsmc.o
 .text.FSMC_NANDCmd
                0x00000000       0x34 ./system/src/stm32f4/stm32f4xx_fsmc.o
 .text.FSMC_NANDECCCmd
                0x00000000       0x34 ./system/src/stm32f4/stm32f4xx_fsmc.o
 .text.FSMC_GetECC
                0x00000000       0x14 ./system/src/stm32f4/stm32f4xx_fsmc.o
 .text.FSMC_PCCARDDeInit
                0x00000000       0x1c ./system/src/stm32f4/stm32f4xx_fsmc.o
 .text.FSMC_PCCARDInit
                0x00000000       0x68 ./system/src/stm32f4/stm32f4xx_fsmc.o
 .text.FSMC_PCCARDStructInit
                0x00000000       0x30 ./system/src/stm32f4/stm32f4xx_fsmc.o
 .text.FSMC_PCCARDCmd
                0x00000000       0x20 ./system/src/stm32f4/stm32f4xx_fsmc.o
 .text.FSMC_ITConfig
                0x00000000       0x54 ./system/src/stm32f4/stm32f4xx_fsmc.o
 .text.FSMC_GetFlagStatus
                0x00000000       0x2c ./system/src/stm32f4/stm32f4xx_fsmc.o
 .text.FSMC_ClearFlag
                0x00000000       0x30 ./system/src/stm32f4/stm32f4xx_fsmc.o
 .text.FSMC_GetITStatus
                0x00000000       0x34 ./system/src/stm32f4/stm32f4xx_fsmc.o
 .text.FSMC_ClearITPendingBit
                0x00000000       0x30 ./system/src/stm32f4/stm32f4xx_fsmc.o
 .debug_info    0x00000000      0x8e5 ./system/src/stm32f4/stm32f4xx_fsmc.o
 .debug_abbrev  0x00000000      0x190 ./system/src/stm32f4/stm32f4xx_fsmc.o
 .debug_loc     0x00000000      0x496 ./system/src/stm32f4/stm32f4xx_fsmc.o
 .debug_aranges
                0x00000000       0xb0 ./system/src/stm32f4/stm32f4xx_fsmc.o
 .debug_ranges  0x00000000       0xa0 ./system/src/stm32f4/stm32f4xx_fsmc.o
 .debug_line    0x00000000      0x3c2 ./system/src/stm32f4/stm32f4xx_fsmc.o
 .debug_str     0x00000000      0x7f0 ./system/src/stm32f4/stm32f4xx_fsmc.o
 .comment       0x00000000       0x71 ./system/src/stm32f4/stm32f4xx_fsmc.o
 .debug_frame   0x00000000      0x1b4 ./system/src/stm32f4/stm32f4xx_fsmc.o
 .ARM.attributes
                0x00000000       0x39 ./system/src/stm32f4/stm32f4xx_fsmc.o
 .text          0x00000000        0x0 ./system/src/stm32f4/stm32f4xx_gpio.o
 .data          0x00000000        0x0 ./system/src/stm32f4/stm32f4xx_gpio.o
 .bss           0x00000000        0x0 ./system/src/stm32f4/stm32f4xx_gpio.o
 .text.GPIO_DeInit
                0x00000000      0x118 ./system/src/stm32f4/stm32f4xx_gpio.o
 .text.GPIO_StructInit
                0x00000000       0x14 ./system/src/stm32f4/stm32f4xx_gpio.o
 .text.GPIO_PinLockConfig
                0x00000000       0x24 ./system/src/stm32f4/stm32f4xx_gpio.o
 .text.GPIO_ReadInputDataBit
                0x00000000        0xc ./system/src/stm32f4/stm32f4xx_gpio.o
 .text.GPIO_ReadInputData
                0x00000000        0x8 ./system/src/stm32f4/stm32f4xx_gpio.o
 .text.GPIO_ReadOutputDataBit
                0x00000000        0xc ./system/src/stm32f4/stm32f4xx_gpio.o
 .text.GPIO_ReadOutputData
                0x00000000        0x8 ./system/src/stm32f4/stm32f4xx_gpio.o
 .text.GPIO_WriteBit
                0x00000000        0xc ./system/src/stm32f4/stm32f4xx_gpio.o
 .text.GPIO_Write
                0x00000000        0x4 ./system/src/stm32f4/stm32f4xx_gpio.o
 .text          0x00000000        0x0 ./system/src/stm32f4/stm32f4xx_i2c.o
 .data          0x00000000        0x0 ./system/src/stm32f4/stm32f4xx_i2c.o
 .bss           0x00000000        0x0 ./system/src/stm32f4/stm32f4xx_i2c.o
 .text.I2C_StructInit
                0x00000000       0x24 ./system/src/stm32f4/stm32f4xx_i2c.o
 .text.I2C_OwnAddress2Config
                0x00000000       0x14 ./system/src/stm32f4/stm32f4xx_i2c.o
 .text.I2C_DualAddressCmd
                0x00000000       0x1c ./system/src/stm32f4/stm32f4xx_i2c.o
 .text.I2C_GeneralCallCmd
                0x00000000       0x1c ./system/src/stm32f4/stm32f4xx_i2c.o
 .text.I2C_StretchClockCmd
                0x00000000       0x1c ./system/src/stm32f4/stm32f4xx_i2c.o
 .text.I2C_FastModeDutyCycleConfig
                0x00000000       0x20 ./system/src/stm32f4/stm32f4xx_i2c.o
 .text.I2C_NACKPositionConfig
                0x00000000       0x20 ./system/src/stm32f4/stm32f4xx_i2c.o
 .text.I2C_SMBusAlertConfig
                0x00000000       0x20 ./system/src/stm32f4/stm32f4xx_i2c.o
 .text.I2C_ARPCmd
                0x00000000       0x1c ./system/src/stm32f4/stm32f4xx_i2c.o
 .text.I2C_TransmitPEC
                0x00000000       0x1c ./system/src/stm32f4/stm32f4xx_i2c.o
 .text.I2C_PECPositionConfig
                0x00000000       0x20 ./system/src/stm32f4/stm32f4xx_i2c.o
 .text.I2C_CalculatePEC
                0x00000000       0x1c ./system/src/stm32f4/stm32f4xx_i2c.o
 .text.I2C_GetPEC
                0x00000000        0x8 ./system/src/stm32f4/stm32f4xx_i2c.o
 .text.I2C_DMACmd
                0x00000000       0x1c ./system/src/stm32f4/stm32f4xx_i2c.o
 .text.I2C_DMALastTransferCmd
                0x00000000       0x1c ./system/src/stm32f4/stm32f4xx_i2c.o
 .text.I2C_ReadRegister
                0x00000000       0x18 ./system/src/stm32f4/stm32f4xx_i2c.o
 .text.I2C_ITConfig
                0x00000000       0x14 ./system/src/stm32f4/stm32f4xx_i2c.o
 .text.I2C_GetLastEvent
                0x00000000       0x10 ./system/src/stm32f4/stm32f4xx_i2c.o
 .text.I2C_GetITStatus
                0x00000000       0x1c ./system/src/stm32f4/stm32f4xx_i2c.o
 .text.I2C_ClearITPendingBit
                0x00000000        0x8 ./system/src/stm32f4/stm32f4xx_i2c.o
 .text          0x00000000        0x0 ./system/src/stm32f4/stm32f4xx_pwr.o
 .data          0x00000000        0x0 ./system/src/stm32f4/stm32f4xx_pwr.o
 .bss           0x00000000        0x0 ./system/src/stm32f4/stm32f4xx_pwr.o
 .text.PWR_DeInit
                0x00000000       0x1c ./system/src/stm32f4/stm32f4xx_pwr.o
 .text.PWR_BackupAccessCmd
                0x00000000        0xc ./system/src/stm32f4/stm32f4xx_pwr.o
 .text.PWR_PVDLevelConfig
                0x00000000       0x14 ./system/src/stm32f4/stm32f4xx_pwr.o
 .text.PWR_PVDCmd
                0x00000000        0xc ./system/src/stm32f4/stm32f4xx_pwr.o
 .text.PWR_WakeUpPinCmd
                0x00000000        0xc ./system/src/stm32f4/stm32f4xx_pwr.o
 .text.PWR_BackupRegulatorCmd
                0x00000000        0xc ./system/src/stm32f4/stm32f4xx_pwr.o
 .text.PWR_MainRegulatorModeConfig
                0x00000000       0x1c ./system/src/stm32f4/stm32f4xx_pwr.o
 .text.PWR_FlashPowerDownCmd
                0x00000000        0xc ./system/src/stm32f4/stm32f4xx_pwr.o
 .text.PWR_EnterSTOPMode
                0x00000000       0x3c ./system/src/stm32f4/stm32f4xx_pwr.o
 .text.PWR_EnterSTANDBYMode
                0x00000000       0x28 ./system/src/stm32f4/stm32f4xx_pwr.o
 .text.PWR_GetFlagStatus
                0x00000000       0x14 ./system/src/stm32f4/stm32f4xx_pwr.o
 .text.PWR_ClearFlag
                0x00000000       0x10 ./system/src/stm32f4/stm32f4xx_pwr.o
 .debug_info    0x00000000      0x51c ./system/src/stm32f4/stm32f4xx_pwr.o
 .debug_abbrev  0x00000000      0x1c6 ./system/src/stm32f4/stm32f4xx_pwr.o
 .debug_loc     0x00000000      0x111 ./system/src/stm32f4/stm32f4xx_pwr.o
 .debug_aranges
                0x00000000       0x78 ./system/src/stm32f4/stm32f4xx_pwr.o
 .debug_ranges  0x00000000       0x68 ./system/src/stm32f4/stm32f4xx_pwr.o
 .debug_line    0x00000000      0x224 ./system/src/stm32f4/stm32f4xx_pwr.o
 .debug_str     0x00000000      0x404 ./system/src/stm32f4/stm32f4xx_pwr.o
 .comment       0x00000000       0x71 ./system/src/stm32f4/stm32f4xx_pwr.o
 .debug_frame   0x00000000       0xe8 ./system/src/stm32f4/stm32f4xx_pwr.o
 .ARM.attributes
                0x00000000       0x39 ./system/src/stm32f4/stm32f4xx_pwr.o
 .text          0x00000000        0x0 ./system/src/stm32f4/stm32f4xx_rcc.o
 .data          0x00000000        0x0 ./system/src/stm32f4/stm32f4xx_rcc.o
 .bss           0x00000000        0x0 ./system/src/stm32f4/stm32f4xx_rcc.o
 .text.RCC_DeInit
                0x00000000       0x34 ./system/src/stm32f4/stm32f4xx_rcc.o
 .text.RCC_HSEConfig
                0x00000000       0x10 ./system/src/stm32f4/stm32f4xx_rcc.o
 .text.RCC_WaitForHSEStartUp
                0x00000000       0x34 ./system/src/stm32f4/stm32f4xx_rcc.o
 .text.RCC_AdjustHSICalibrationValue
                0x00000000       0x14 ./system/src/stm32f4/stm32f4xx_rcc.o
 .text.RCC_HSICmd
                0x00000000        0xc ./system/src/stm32f4/stm32f4xx_rcc.o
 .text.RCC_LSEConfig
                0x00000000       0x20 ./system/src/stm32f4/stm32f4xx_rcc.o
 .text.RCC_LSICmd
                0x00000000        0xc ./system/src/stm32f4/stm32f4xx_rcc.o
 .text.RCC_PLLConfig
                0x00000000       0x24 ./system/src/stm32f4/stm32f4xx_rcc.o
 .text.RCC_PLLCmd
                0x00000000        0xc ./system/src/stm32f4/stm32f4xx_rcc.o
 .text.RCC_PLLI2SConfig
                0x00000000       0x14 ./system/src/stm32f4/stm32f4xx_rcc.o
 .text.RCC_PLLI2SCmd
                0x00000000        0xc ./system/src/stm32f4/stm32f4xx_rcc.o
 .text.RCC_ClockSecuritySystemCmd
                0x00000000        0xc ./system/src/stm32f4/stm32f4xx_rcc.o
 .text.RCC_MCO1Config
                0x00000000       0x14 ./system/src/stm32f4/stm32f4xx_rcc.o
 .text.RCC_SYSCLKConfig
                0x00000000       0x14 ./system/src/stm32f4/stm32f4xx_rcc.o
 .text.RCC_GetSYSCLKSource
                0x00000000       0x10 ./system/src/stm32f4/stm32f4xx_rcc.o
 .text.RCC_HCLKConfig
                0x00000000       0x14 ./system/src/stm32f4/stm32f4xx_rcc.o
 .text.RCC_PCLK1Config
                0x00000000       0x14 ./system/src/stm32f4/stm32f4xx_rcc.o
 .text.RCC_PCLK2Config
                0x00000000       0x14 ./system/src/stm32f4/stm32f4xx_rcc.o
 .text.RCC_RTCCLKConfig
                0x00000000       0x30 ./system/src/stm32f4/stm32f4xx_rcc.o
 .text.RCC_RTCCLKCmd
                0x00000000        0xc ./system/src/stm32f4/stm32f4xx_rcc.o
 .text.RCC_BackupResetCmd
                0x00000000        0xc ./system/src/stm32f4/stm32f4xx_rcc.o
 .text.RCC_I2SCLKConfig
                0x00000000        0xc ./system/src/stm32f4/stm32f4xx_rcc.o
 .text.RCC_AHB2PeriphClockCmd
                0x00000000       0x18 ./system/src/stm32f4/stm32f4xx_rcc.o
 .text.RCC_AHB3PeriphClockCmd
                0x00000000       0x18 ./system/src/stm32f4/stm32f4xx_rcc.o
 .text.RCC_APB2PeriphClockCmd
                0x00000000       0x18 ./system/src/stm32f4/stm32f4xx_rcc.o
 .text.RCC_AHB1PeriphResetCmd
                0x00000000       0x18 ./system/src/stm32f4/stm32f4xx_rcc.o
 .text.RCC_AHB2PeriphResetCmd
                0x00000000       0x18 ./system/src/stm32f4/stm32f4xx_rcc.o
 .text.RCC_AHB3PeriphResetCmd
                0x00000000       0x18 ./system/src/stm32f4/stm32f4xx_rcc.o
 .text.RCC_AHB1PeriphClockLPModeCmd
                0x00000000       0x18 ./system/src/stm32f4/stm32f4xx_rcc.o
 .text.RCC_AHB2PeriphClockLPModeCmd
                0x00000000       0x18 ./system/src/stm32f4/stm32f4xx_rcc.o
 .text.RCC_AHB3PeriphClockLPModeCmd
                0x00000000       0x18 ./system/src/stm32f4/stm32f4xx_rcc.o
 .text.RCC_APB1PeriphClockLPModeCmd
                0x00000000       0x18 ./system/src/stm32f4/stm32f4xx_rcc.o
 .text.RCC_APB2PeriphClockLPModeCmd
                0x00000000       0x18 ./system/src/stm32f4/stm32f4xx_rcc.o
 .text.RCC_ITConfig
                0x00000000       0x18 ./system/src/stm32f4/stm32f4xx_rcc.o
 .text.RCC_GetFlagStatus
                0x00000000       0x34 ./system/src/stm32f4/stm32f4xx_rcc.o
 .text.RCC_ClearFlag
                0x00000000       0x10 ./system/src/stm32f4/stm32f4xx_rcc.o
 .text.RCC_GetITStatus
                0x00000000       0x14 ./system/src/stm32f4/stm32f4xx_rcc.o
 .text.RCC_ClearITPendingBit
                0x00000000        0xc ./system/src/stm32f4/stm32f4xx_rcc.o
 .text          0x00000000        0x0 ./system/src/stm32f4/stm32f4xx_rtc.o
 .data          0x00000000        0x0 ./system/src/stm32f4/stm32f4xx_rtc.o
 .bss           0x00000000        0x0 ./system/src/stm32f4/stm32f4xx_rtc.o
 .text.RTC_StructInit
                0x00000000        0xc ./system/src/stm32f4/stm32f4xx_rtc.o
 .text.RTC_WriteProtectionCmd
                0x00000000       0x18 ./system/src/stm32f4/stm32f4xx_rtc.o
 .text.RTC_EnterInitMode
                0x00000000       0x44 ./system/src/stm32f4/stm32f4xx_rtc.o
 .text.RTC_Init
                0x00000000       0x48 ./system/src/stm32f4/stm32f4xx_rtc.o
 .text.RTC_ExitInitMode
                0x00000000       0x10 ./system/src/stm32f4/stm32f4xx_rtc.o
 .text.RTC_WaitForSynchro
                0x00000000       0x48 ./system/src/stm32f4/stm32f4xx_rtc.o
 .text.RTC_DeInit
                0x00000000       0x84 ./system/src/stm32f4/stm32f4xx_rtc.o
 .text.RTC_RefClockCmd
                0x00000000       0x40 ./system/src/stm32f4/stm32f4xx_rtc.o
 .text.RTC_BypassShadowCmd
                0x00000000       0x30 ./system/src/stm32f4/stm32f4xx_rtc.o
 .text.RTC_SetTime
                0x00000000       0xe0 ./system/src/stm32f4/stm32f4xx_rtc.o
 .text.RTC_TimeStructInit
                0x00000000        0xc ./system/src/stm32f4/stm32f4xx_rtc.o
 .text.RTC_GetTime
                0x00000000       0x5c ./system/src/stm32f4/stm32f4xx_rtc.o
 .text.RTC_GetSubSecond
                0x00000000        0xc ./system/src/stm32f4/stm32f4xx_rtc.o
 .text.RTC_SetDate
                0x00000000       0xd0 ./system/src/stm32f4/stm32f4xx_rtc.o
 .text.RTC_DateStructInit
                0x00000000       0x10 ./system/src/stm32f4/stm32f4xx_rtc.o
 .text.RTC_GetDate
                0x00000000       0x58 ./system/src/stm32f4/stm32f4xx_rtc.o
 .text.RTC_SetAlarm
                0x00000000      0x10c ./system/src/stm32f4/stm32f4xx_rtc.o
 .text.RTC_AlarmStructInit
                0x00000000       0x14 ./system/src/stm32f4/stm32f4xx_rtc.o
 .text.RTC_GetAlarm
                0x00000000       0x8c ./system/src/stm32f4/stm32f4xx_rtc.o
 .text.RTC_AlarmCmd
                0x00000000       0x5c ./system/src/stm32f4/stm32f4xx_rtc.o
 .text.RTC_AlarmSubSecondConfig
                0x00000000       0x28 ./system/src/stm32f4/stm32f4xx_rtc.o
 .text.RTC_GetAlarmSubSecond
                0x00000000       0x18 ./system/src/stm32f4/stm32f4xx_rtc.o
 .text.RTC_WakeUpClockConfig
                0x00000000       0x24 ./system/src/stm32f4/stm32f4xx_rtc.o
 .text.RTC_SetWakeUpCounter
                0x00000000       0x1c ./system/src/stm32f4/stm32f4xx_rtc.o
 .text.RTC_GetWakeUpCounter
                0x00000000        0xc ./system/src/stm32f4/stm32f4xx_rtc.o
 .text.RTC_WakeUpCmd
                0x00000000       0x5c ./system/src/stm32f4/stm32f4xx_rtc.o
 .text.RTC_DayLightSavingConfig
                0x00000000       0x2c ./system/src/stm32f4/stm32f4xx_rtc.o
 .text.RTC_GetStoreOperation
                0x00000000       0x10 ./system/src/stm32f4/stm32f4xx_rtc.o
 .text.RTC_OutputConfig
                0x00000000       0x2c ./system/src/stm32f4/stm32f4xx_rtc.o
 .text.RTC_CoarseCalibConfig
                0x00000000       0x30 ./system/src/stm32f4/stm32f4xx_rtc.o
 .text.RTC_CoarseCalibCmd
                0x00000000       0x40 ./system/src/stm32f4/stm32f4xx_rtc.o
 .text.RTC_CalibOutputCmd
                0x00000000       0x30 ./system/src/stm32f4/stm32f4xx_rtc.o
 .text.RTC_CalibOutputConfig
                0x00000000       0x24 ./system/src/stm32f4/stm32f4xx_rtc.o
 .text.RTC_SmoothCalibConfig
                0x00000000       0x4c ./system/src/stm32f4/stm32f4xx_rtc.o
 .text.RTC_TimeStampCmd
                0x00000000       0x34 ./system/src/stm32f4/stm32f4xx_rtc.o
 .text.RTC_GetTimeStamp
                0x00000000       0xb8 ./system/src/stm32f4/stm32f4xx_rtc.o
 .text.RTC_GetTimeStampSubSecond
                0x00000000        0xc ./system/src/stm32f4/stm32f4xx_rtc.o
 .text.RTC_TamperTriggerConfig
                0x00000000       0x1c ./system/src/stm32f4/stm32f4xx_rtc.o
 .text.RTC_TamperCmd
                0x00000000       0x18 ./system/src/stm32f4/stm32f4xx_rtc.o
 .text.RTC_TamperFilterConfig
                0x00000000       0x18 ./system/src/stm32f4/stm32f4xx_rtc.o
 .text.RTC_TamperSamplingFreqConfig
                0x00000000       0x18 ./system/src/stm32f4/stm32f4xx_rtc.o
 .text.RTC_TamperPinsPrechargeDuration
                0x00000000       0x18 ./system/src/stm32f4/stm32f4xx_rtc.o
 .text.RTC_TimeStampOnTamperDetectionCmd
                0x00000000       0x1c ./system/src/stm32f4/stm32f4xx_rtc.o
 .text.RTC_TamperPullUpCmd
                0x00000000       0x1c ./system/src/stm32f4/stm32f4xx_rtc.o
 .text.RTC_WriteBackupRegister
                0x00000000       0x20 ./system/src/stm32f4/stm32f4xx_rtc.o
 .text.RTC_ReadBackupRegister
                0x00000000       0x20 ./system/src/stm32f4/stm32f4xx_rtc.o
 .text.RTC_TamperPinSelection
                0x00000000       0x18 ./system/src/stm32f4/stm32f4xx_rtc.o
 .text.RTC_TimeStampPinSelection
                0x00000000       0x18 ./system/src/stm32f4/stm32f4xx_rtc.o
 .text.RTC_OutputTypeConfig
                0x00000000       0x18 ./system/src/stm32f4/stm32f4xx_rtc.o
 .text.RTC_SynchroShiftConfig
                0x00000000       0x6c ./system/src/stm32f4/stm32f4xx_rtc.o
 .text.RTC_ITConfig
                0x00000000       0x4c ./system/src/stm32f4/stm32f4xx_rtc.o
 .text.RTC_GetFlagStatus
                0x00000000       0x18 ./system/src/stm32f4/stm32f4xx_rtc.o
 .text.RTC_ClearFlag
                0x00000000       0x1c ./system/src/stm32f4/stm32f4xx_rtc.o
 .text.RTC_GetITStatus
                0x00000000       0x2c ./system/src/stm32f4/stm32f4xx_rtc.o
 .text.RTC_ClearITPendingBit
                0x00000000       0x1c ./system/src/stm32f4/stm32f4xx_rtc.o
 .debug_info    0x00000000     0x1633 ./system/src/stm32f4/stm32f4xx_rtc.o
 .debug_abbrev  0x00000000      0x26c ./system/src/stm32f4/stm32f4xx_rtc.o
 .debug_loc     0x00000000     0x15aa ./system/src/stm32f4/stm32f4xx_rtc.o
 .debug_aranges
                0x00000000      0x1d0 ./system/src/stm32f4/stm32f4xx_rtc.o
 .debug_ranges  0x00000000      0x4b0 ./system/src/stm32f4/stm32f4xx_rtc.o
 .debug_line    0x00000000      0x956 ./system/src/stm32f4/stm32f4xx_rtc.o
 .debug_str     0x00000000      0xbaf ./system/src/stm32f4/stm32f4xx_rtc.o
 .comment       0x00000000       0x71 ./system/src/stm32f4/stm32f4xx_rtc.o
 .debug_frame   0x00000000      0x4e4 ./system/src/stm32f4/stm32f4xx_rtc.o
 .ARM.attributes
                0x00000000       0x39 ./system/src/stm32f4/stm32f4xx_rtc.o
 .text          0x00000000        0x0 ./system/src/stm32f4/stm32f4xx_spi.o
 .data          0x00000000        0x0 ./system/src/stm32f4/stm32f4xx_spi.o
 .bss           0x00000000        0x0 ./system/src/stm32f4/stm32f4xx_spi.o
 .text.SPI_StructInit
                0x00000000       0x18 ./system/src/stm32f4/stm32f4xx_spi.o
 .text.I2S_StructInit
                0x00000000       0x14 ./system/src/stm32f4/stm32f4xx_spi.o
 .text.SPI_DataSizeConfig
                0x00000000       0x18 ./system/src/stm32f4/stm32f4xx_spi.o
 .text.SPI_BiDirectionalLineConfig
                0x00000000       0x20 ./system/src/stm32f4/stm32f4xx_spi.o
 .text.SPI_NSSInternalSoftwareConfig
                0x00000000       0x20 ./system/src/stm32f4/stm32f4xx_spi.o
 .text.SPI_SSOutputCmd
                0x00000000       0x1c ./system/src/stm32f4/stm32f4xx_spi.o
 .text.SPI_TIModeCmd
                0x00000000       0x1c ./system/src/stm32f4/stm32f4xx_spi.o
 .text.SPI_CalculateCRC
                0x00000000       0x1c ./system/src/stm32f4/stm32f4xx_spi.o
 .text.SPI_TransmitCRC
                0x00000000        0xc ./system/src/stm32f4/stm32f4xx_spi.o
 .text.SPI_GetCRC
                0x00000000        0xc ./system/src/stm32f4/stm32f4xx_spi.o
 .text.SPI_GetCRCPolynomial
                0x00000000        0x8 ./system/src/stm32f4/stm32f4xx_spi.o
 .text.SPI_I2S_ITConfig
                0x00000000       0x20 ./system/src/stm32f4/stm32f4xx_spi.o
 .text.SPI_I2S_ClearFlag
                0x00000000        0x8 ./system/src/stm32f4/stm32f4xx_spi.o
 .text.SPI_I2S_GetITStatus
                0x00000000       0x2c ./system/src/stm32f4/stm32f4xx_spi.o
 .text.SPI_I2S_ClearITPendingBit
                0x00000000       0x10 ./system/src/stm32f4/stm32f4xx_spi.o
 .text          0x00000000        0x0 ./system/src/stm32f4/stm32f4xx_syscfg.o
 .data          0x00000000        0x0 ./system/src/stm32f4/stm32f4xx_syscfg.o
 .bss           0x00000000        0x0 ./system/src/stm32f4/stm32f4xx_syscfg.o
 .text.SYSCFG_DeInit
                0x00000000       0x1c ./system/src/stm32f4/stm32f4xx_syscfg.o
 .text.SYSCFG_MemoryRemapConfig
                0x00000000        0xc ./system/src/stm32f4/stm32f4xx_syscfg.o
 .text.SYSCFG_EXTILineConfig
                0x00000000       0x30 ./system/src/stm32f4/stm32f4xx_syscfg.o
 .text.SYSCFG_ETH_MediaInterfaceConfig
                0x00000000        0xc ./system/src/stm32f4/stm32f4xx_syscfg.o
 .text.SYSCFG_CompensationCellCmd
                0x00000000        0xc ./system/src/stm32f4/stm32f4xx_syscfg.o
 .text.SYSCFG_GetCompensationCellStatus
                0x00000000       0x10 ./system/src/stm32f4/stm32f4xx_syscfg.o
 .debug_info    0x00000000      0x298 ./system/src/stm32f4/stm32f4xx_syscfg.o
 .debug_abbrev  0x00000000      0x169 ./system/src/stm32f4/stm32f4xx_syscfg.o
 .debug_loc     0x00000000       0xa6 ./system/src/stm32f4/stm32f4xx_syscfg.o
 .debug_aranges
                0x00000000       0x48 ./system/src/stm32f4/stm32f4xx_syscfg.o
 .debug_ranges  0x00000000       0x38 ./system/src/stm32f4/stm32f4xx_syscfg.o
 .debug_line    0x00000000      0x189 ./system/src/stm32f4/stm32f4xx_syscfg.o
 .debug_str     0x00000000      0x372 ./system/src/stm32f4/stm32f4xx_syscfg.o
 .comment       0x00000000       0x71 ./system/src/stm32f4/stm32f4xx_syscfg.o
 .debug_frame   0x00000000       0x88 ./system/src/stm32f4/stm32f4xx_syscfg.o
 .ARM.attributes
                0x00000000       0x39 ./system/src/stm32f4/stm32f4xx_syscfg.o
 .text          0x00000000        0x0 ./system/src/stm32f4/stm32f4xx_tim.o
 .data          0x00000000        0x0 ./system/src/stm32f4/stm32f4xx_tim.o
 .bss           0x00000000        0x0 ./system/src/stm32f4/stm32f4xx_tim.o
 .text.TIM_DeInit
                0x00000000      0x1b8 ./system/src/stm32f4/stm32f4xx_tim.o
 .text.TIM_TimeBaseStructInit
                0x00000000       0x14 ./system/src/stm32f4/stm32f4xx_tim.o
 .text.TIM_PrescalerConfig
                0x00000000        0x8 ./system/src/stm32f4/stm32f4xx_tim.o
 .text.TIM_CounterModeConfig
                0x00000000       0x10 ./system/src/stm32f4/stm32f4xx_tim.o
 .text.TIM_SetCounter
                0x00000000        0x4 ./system/src/stm32f4/stm32f4xx_tim.o
 .text.TIM_SetAutoreload
                0x00000000        0x4 ./system/src/stm32f4/stm32f4xx_tim.o
 .text.TIM_GetPrescaler
                0x00000000        0x8 ./system/src/stm32f4/stm32f4xx_tim.o
 .text.TIM_UpdateDisableConfig
                0x00000000       0x1c ./system/src/stm32f4/stm32f4xx_tim.o
 .text.TIM_UpdateRequestConfig
                0x00000000       0x1c ./system/src/stm32f4/stm32f4xx_tim.o
 .text.TIM_ARRPreloadConfig
                0x00000000       0x1c ./system/src/stm32f4/stm32f4xx_tim.o
 .text.TIM_SelectOnePulseMode
                0x00000000       0x18 ./system/src/stm32f4/stm32f4xx_tim.o
 .text.TIM_SetClockDivision
                0x00000000       0x18 ./system/src/stm32f4/stm32f4xx_tim.o
 .text.TIM_OC1Init
                0x00000000       0x84 ./system/src/stm32f4/stm32f4xx_tim.o
 .text.TIM_OC2Init
                0x00000000       0x90 ./system/src/stm32f4/stm32f4xx_tim.o
 .text.TIM_OC3Init
                0x00000000       0x90 ./system/src/stm32f4/stm32f4xx_tim.o
 .text.TIM_OC4Init
                0x00000000       0x74 ./system/src/stm32f4/stm32f4xx_tim.o
 .text.TIM_OCStructInit
                0x00000000       0x14 ./system/src/stm32f4/stm32f4xx_tim.o
 .text.TIM_SelectOCxM
                0x00000000       0x50 ./system/src/stm32f4/stm32f4xx_tim.o
 .text.TIM_SetCompare1
                0x00000000        0x4 ./system/src/stm32f4/stm32f4xx_tim.o
 .text.TIM_SetCompare2
                0x00000000        0x4 ./system/src/stm32f4/stm32f4xx_tim.o
 .text.TIM_SetCompare3
                0x00000000        0x4 ./system/src/stm32f4/stm32f4xx_tim.o
 .text.TIM_SetCompare4
                0x00000000        0x4 ./system/src/stm32f4/stm32f4xx_tim.o
 .text.TIM_ForcedOC1Config
                0x00000000       0x10 ./system/src/stm32f4/stm32f4xx_tim.o
 .text.TIM_ForcedOC2Config
                0x00000000       0x14 ./system/src/stm32f4/stm32f4xx_tim.o
 .text.TIM_ForcedOC3Config
                0x00000000       0x10 ./system/src/stm32f4/stm32f4xx_tim.o
 .text.TIM_ForcedOC4Config
                0x00000000       0x14 ./system/src/stm32f4/stm32f4xx_tim.o
 .text.TIM_OC1PreloadConfig
                0x00000000       0x10 ./system/src/stm32f4/stm32f4xx_tim.o
 .text.TIM_OC2PreloadConfig
                0x00000000       0x14 ./system/src/stm32f4/stm32f4xx_tim.o
 .text.TIM_OC3PreloadConfig
                0x00000000       0x10 ./system/src/stm32f4/stm32f4xx_tim.o
 .text.TIM_OC4PreloadConfig
                0x00000000       0x14 ./system/src/stm32f4/stm32f4xx_tim.o
 .text.TIM_OC1FastConfig
                0x00000000       0x10 ./system/src/stm32f4/stm32f4xx_tim.o
 .text.TIM_OC2FastConfig
                0x00000000       0x14 ./system/src/stm32f4/stm32f4xx_tim.o
 .text.TIM_OC3FastConfig
                0x00000000       0x10 ./system/src/stm32f4/stm32f4xx_tim.o
 .text.TIM_OC4FastConfig
                0x00000000       0x14 ./system/src/stm32f4/stm32f4xx_tim.o
 .text.TIM_ClearOC1Ref
                0x00000000       0x10 ./system/src/stm32f4/stm32f4xx_tim.o
 .text.TIM_ClearOC2Ref
                0x00000000       0x10 ./system/src/stm32f4/stm32f4xx_tim.o
 .text.TIM_ClearOC3Ref
                0x00000000       0x10 ./system/src/stm32f4/stm32f4xx_tim.o
 .text.TIM_ClearOC4Ref
                0x00000000       0x10 ./system/src/stm32f4/stm32f4xx_tim.o
 .text.TIM_OC1PolarityConfig
                0x00000000       0x10 ./system/src/stm32f4/stm32f4xx_tim.o
 .text.TIM_OC1NPolarityConfig
                0x00000000       0x10 ./system/src/stm32f4/stm32f4xx_tim.o
 .text.TIM_OC2PolarityConfig
                0x00000000       0x14 ./system/src/stm32f4/stm32f4xx_tim.o
 .text.TIM_OC2NPolarityConfig
                0x00000000       0x14 ./system/src/stm32f4/stm32f4xx_tim.o
 .text.TIM_OC3PolarityConfig
                0x00000000       0x14 ./system/src/stm32f4/stm32f4xx_tim.o
 .text.TIM_OC3NPolarityConfig
                0x00000000       0x14 ./system/src/stm32f4/stm32f4xx_tim.o
 .text.TIM_OC4PolarityConfig
                0x00000000       0x14 ./system/src/stm32f4/stm32f4xx_tim.o
 .text.TIM_CCxCmd
                0x00000000       0x20 ./system/src/stm32f4/stm32f4xx_tim.o
 .text.TIM_CCxNCmd
                0x00000000       0x20 ./system/src/stm32f4/stm32f4xx_tim.o
 .text.TIM_ICInit
                0x00000000      0x168 ./system/src/stm32f4/stm32f4xx_tim.o
 .text.TIM_ICStructInit
                0x00000000       0x10 ./system/src/stm32f4/stm32f4xx_tim.o
 .text.TIM_PWMIConfig
                0x00000000      0x158 ./system/src/stm32f4/stm32f4xx_tim.o
 .text.TIM_GetCapture1
                0x00000000        0x4 ./system/src/stm32f4/stm32f4xx_tim.o
 .text.TIM_GetCapture2
                0x00000000        0x4 ./system/src/stm32f4/stm32f4xx_tim.o
 .text.TIM_GetCapture3
                0x00000000        0x4 ./system/src/stm32f4/stm32f4xx_tim.o
 .text.TIM_GetCapture4
                0x00000000        0x4 ./system/src/stm32f4/stm32f4xx_tim.o
 .text.TIM_SetIC1Prescaler
                0x00000000       0x18 ./system/src/stm32f4/stm32f4xx_tim.o
 .text.TIM_SetIC2Prescaler
                0x00000000       0x1c ./system/src/stm32f4/stm32f4xx_tim.o
 .text.TIM_SetIC3Prescaler
                0x00000000       0x18 ./system/src/stm32f4/stm32f4xx_tim.o
 .text.TIM_SetIC4Prescaler
                0x00000000       0x1c ./system/src/stm32f4/stm32f4xx_tim.o
 .text.TIM_BDTRConfig
                0x00000000       0x28 ./system/src/stm32f4/stm32f4xx_tim.o
 .text.TIM_BDTRStructInit
                0x00000000       0x14 ./system/src/stm32f4/stm32f4xx_tim.o
 .text.TIM_CtrlPWMOutputs
                0x00000000       0x20 ./system/src/stm32f4/stm32f4xx_tim.o
 .text.TIM_SelectCOM
                0x00000000       0x1c ./system/src/stm32f4/stm32f4xx_tim.o
 .text.TIM_CCPreloadControl
                0x00000000       0x1c ./system/src/stm32f4/stm32f4xx_tim.o
 .text.TIM_ITConfig
                0x00000000       0x14 ./system/src/stm32f4/stm32f4xx_tim.o
 .text.TIM_GenerateEvent
                0x00000000        0x4 ./system/src/stm32f4/stm32f4xx_tim.o
 .text.TIM_GetFlagStatus
                0x00000000        0xc ./system/src/stm32f4/stm32f4xx_tim.o
 .text.TIM_ClearFlag
                0x00000000        0x8 ./system/src/stm32f4/stm32f4xx_tim.o
 .text.TIM_GetITStatus
                0x00000000       0x18 ./system/src/stm32f4/stm32f4xx_tim.o
 .text.TIM_ClearITPendingBit
                0x00000000        0x8 ./system/src/stm32f4/stm32f4xx_tim.o
 .text.TIM_DMAConfig
                0x00000000        0x8 ./system/src/stm32f4/stm32f4xx_tim.o
 .text.TIM_DMACmd
                0x00000000       0x14 ./system/src/stm32f4/stm32f4xx_tim.o
 .text.TIM_SelectCCDMA
                0x00000000       0x1c ./system/src/stm32f4/stm32f4xx_tim.o
 .text.TIM_InternalClockConfig
                0x00000000       0x10 ./system/src/stm32f4/stm32f4xx_tim.o
 .text.TIM_ITRxExternalClockConfig
                0x00000000       0x1c ./system/src/stm32f4/stm32f4xx_tim.o
 .text.TIM_TIxExternalClockConfig
                0x00000000       0x88 ./system/src/stm32f4/stm32f4xx_tim.o
 .text.TIM_ETRClockMode1Config
                0x00000000       0x28 ./system/src/stm32f4/stm32f4xx_tim.o
 .text.TIM_ETRClockMode2Config
                0x00000000       0x24 ./system/src/stm32f4/stm32f4xx_tim.o
 .text.TIM_SelectInputTrigger
                0x00000000       0x10 ./system/src/stm32f4/stm32f4xx_tim.o
 .text.TIM_SelectOutputTrigger
                0x00000000       0x18 ./system/src/stm32f4/stm32f4xx_tim.o
 .text.TIM_SelectSlaveMode
                0x00000000       0x18 ./system/src/stm32f4/stm32f4xx_tim.o
 .text.TIM_SelectMasterSlaveMode
                0x00000000       0x18 ./system/src/stm32f4/stm32f4xx_tim.o
 .text.TIM_ETRConfig
                0x00000000       0x18 ./system/src/stm32f4/stm32f4xx_tim.o
 .text.TIM_SelectHallSensor
                0x00000000       0x1c ./system/src/stm32f4/stm32f4xx_tim.o
 .text.TIM_RemapConfig
                0x00000000        0x8 ./system/src/stm32f4/stm32f4xx_tim.o
 .text          0x00000000        0x0 ./system/src/stm32f4/stm32f4xx_usart.o
 .data          0x00000000        0x0 ./system/src/stm32f4/stm32f4xx_usart.o
 .bss           0x00000000        0x0 ./system/src/stm32f4/stm32f4xx_usart.o
 .text.USART_DeInit
                0x00000000       0xc8 ./system/src/stm32f4/stm32f4xx_usart.o
 .text.USART_Init
                0x00000000       0xc4 ./system/src/stm32f4/stm32f4xx_usart.o
 .text.USART_StructInit
                0x00000000       0x18 ./system/src/stm32f4/stm32f4xx_usart.o
 .text.USART_ClockInit
                0x00000000       0x24 ./system/src/stm32f4/stm32f4xx_usart.o
 .text.USART_ClockStructInit
                0x00000000        0xc ./system/src/stm32f4/stm32f4xx_usart.o
 .text.USART_Cmd
                0x00000000       0x1c ./system/src/stm32f4/stm32f4xx_usart.o
 .text.USART_SetPrescaler
                0x00000000       0x14 ./system/src/stm32f4/stm32f4xx_usart.o
 .text.USART_OverSampling8Cmd
                0x00000000       0x1c ./system/src/stm32f4/stm32f4xx_usart.o
 .text.USART_OneBitMethodCmd
                0x00000000       0x1c ./system/src/stm32f4/stm32f4xx_usart.o
 .text.USART_SendData
                0x00000000        0x8 ./system/src/stm32f4/stm32f4xx_usart.o
 .text.USART_ReceiveData
                0x00000000        0x8 ./system/src/stm32f4/stm32f4xx_usart.o
 .text.USART_SetAddress
                0x00000000       0x18 ./system/src/stm32f4/stm32f4xx_usart.o
 .text.USART_ReceiverWakeUpCmd
                0x00000000       0x1c ./system/src/stm32f4/stm32f4xx_usart.o
 .text.USART_WakeUpConfig
                0x00000000       0x18 ./system/src/stm32f4/stm32f4xx_usart.o
 .text.USART_LINBreakDetectLengthConfig
                0x00000000       0x18 ./system/src/stm32f4/stm32f4xx_usart.o
 .text.USART_LINCmd
                0x00000000       0x1c ./system/src/stm32f4/stm32f4xx_usart.o
 .text.USART_SendBreak
                0x00000000        0xc ./system/src/stm32f4/stm32f4xx_usart.o
 .text.USART_HalfDuplexCmd
                0x00000000       0x1c ./system/src/stm32f4/stm32f4xx_usart.o
 .text.USART_SetGuardTime
                0x00000000       0x14 ./system/src/stm32f4/stm32f4xx_usart.o
 .text.USART_SmartCardCmd
                0x00000000       0x1c ./system/src/stm32f4/stm32f4xx_usart.o
 .text.USART_SmartCardNACKCmd
                0x00000000       0x1c ./system/src/stm32f4/stm32f4xx_usart.o
 .text.USART_IrDAConfig
                0x00000000       0x18 ./system/src/stm32f4/stm32f4xx_usart.o
 .text.USART_IrDACmd
                0x00000000       0x1c ./system/src/stm32f4/stm32f4xx_usart.o
 .text.USART_DMACmd
                0x00000000       0x14 ./system/src/stm32f4/stm32f4xx_usart.o
 .text.USART_ITConfig
                0x00000000       0x3c ./system/src/stm32f4/stm32f4xx_usart.o
 .text.USART_GetFlagStatus
                0x00000000        0xc ./system/src/stm32f4/stm32f4xx_usart.o
 .text.USART_ClearFlag
                0x00000000        0x8 ./system/src/stm32f4/stm32f4xx_usart.o
 .text.USART_GetITStatus
                0x00000000       0x4c ./system/src/stm32f4/stm32f4xx_usart.o
 .text.USART_ClearITPendingBit
                0x00000000       0x10 ./system/src/stm32f4/stm32f4xx_usart.o
 .debug_info    0x00000000      0xb1b ./system/src/stm32f4/stm32f4xx_usart.o
 .debug_abbrev  0x00000000      0x1ed ./system/src/stm32f4/stm32f4xx_usart.o
 .debug_loc     0x00000000      0x8e5 ./system/src/stm32f4/stm32f4xx_usart.o
 .debug_aranges
                0x00000000      0x100 ./system/src/stm32f4/stm32f4xx_usart.o
 .debug_ranges  0x00000000       0xf0 ./system/src/stm32f4/stm32f4xx_usart.o
 .debug_line    0x00000000      0x43c ./system/src/stm32f4/stm32f4xx_usart.o
 .debug_str     0x00000000      0x72b ./system/src/stm32f4/stm32f4xx_usart.o
 .comment       0x00000000       0x71 ./system/src/stm32f4/stm32f4xx_usart.o
 .debug_frame   0x00000000      0x264 ./system/src/stm32f4/stm32f4xx_usart.o
 .ARM.attributes
                0x00000000       0x39 ./system/src/stm32f4/stm32f4xx_usart.o
 .text          0x00000000        0x0 ./system/src/stm32f4/stm32f4xx_wwdg.o
 .data          0x00000000        0x0 ./system/src/stm32f4/stm32f4xx_wwdg.o
 .bss           0x00000000        0x0 ./system/src/stm32f4/stm32f4xx_wwdg.o
 .text.WWDG_DeInit
                0x00000000       0x1c ./system/src/stm32f4/stm32f4xx_wwdg.o
 .text.WWDG_SetPrescaler
                0x00000000       0x14 ./system/src/stm32f4/stm32f4xx_wwdg.o
 .text.WWDG_SetWindowValue
                0x00000000       0x28 ./system/src/stm32f4/stm32f4xx_wwdg.o
 .text.WWDG_EnableIT
                0x00000000        0xc ./system/src/stm32f4/stm32f4xx_wwdg.o
 .text.WWDG_SetCounter
                0x00000000       0x10 ./system/src/stm32f4/stm32f4xx_wwdg.o
 .text.WWDG_Enable
                0x00000000       0x10 ./system/src/stm32f4/stm32f4xx_wwdg.o
 .text.WWDG_GetFlagStatus
                0x00000000       0x10 ./system/src/stm32f4/stm32f4xx_wwdg.o
 .text.WWDG_ClearFlag
                0x00000000        0xc ./system/src/stm32f4/stm32f4xx_wwdg.o
 .debug_info    0x00000000      0x281 ./system/src/stm32f4/stm32f4xx_wwdg.o
 .debug_abbrev  0x00000000      0x178 ./system/src/stm32f4/stm32f4xx_wwdg.o
 .debug_loc     0x00000000       0xd1 ./system/src/stm32f4/stm32f4xx_wwdg.o
 .debug_aranges
                0x00000000       0x58 ./system/src/stm32f4/stm32f4xx_wwdg.o
 .debug_ranges  0x00000000       0x48 ./system/src/stm32f4/stm32f4xx_wwdg.o
 .debug_line    0x00000000      0x1a7 ./system/src/stm32f4/stm32f4xx_wwdg.o
 .debug_str     0x00000000      0x305 ./system/src/stm32f4/stm32f4xx_wwdg.o
 .comment       0x00000000       0x71 ./system/src/stm32f4/stm32f4xx_wwdg.o
 .debug_frame   0x00000000       0xa4 ./system/src/stm32f4/stm32f4xx_wwdg.o
 .ARM.attributes
                0x00000000       0x39 ./system/src/stm32f4/stm32f4xx_wwdg.o
 .text          0x00000000        0x0 ./system/src/newlib/_cxx.o
 .data          0x00000000        0x0 ./system/src/newlib/_cxx.o
 .bss           0x00000000        0x0 ./system/src/newlib/_cxx.o
 .text._ZN9__gnu_cxx27__verbose_terminate_handlerEv
                0x00000000        0x8 ./system/src/newlib/_cxx.o
 .text.__cxa_pure_virtual
                0x00000000        0x8 ./system/src/newlib/_cxx.o
 .debug_info    0x00000000      0x593 ./system/src/newlib/_cxx.o
 .debug_abbrev  0x00000000      0x1a4 ./system/src/newlib/_cxx.o
 .debug_aranges
                0x00000000       0x28 ./system/src/newlib/_cxx.o
 .debug_ranges  0x00000000       0x18 ./system/src/newlib/_cxx.o
 .debug_line    0x00000000      0x15c ./system/src/newlib/_cxx.o
 .debug_str     0x00000000      0x3b5 ./system/src/newlib/_cxx.o
 .comment       0x00000000       0x71 ./system/src/newlib/_cxx.o
 .debug_frame   0x00000000       0x40 ./system/src/newlib/_cxx.o
 .ARM.attributes
                0x00000000       0x39 ./system/src/newlib/_cxx.o
 .text          0x00000000        0x0 ./system/src/newlib/_exit.o
 .data          0x00000000        0x0 ./system/src/newlib/_exit.o
 .bss           0x00000000        0x0 ./system/src/newlib/_exit.o
 .text.abort    0x00000000        0x8 ./system/src/newlib/_exit.o
 .text          0x00000000        0x0 ./system/src/newlib/_sbrk.o
 .data          0x00000000        0x0 ./system/src/newlib/_sbrk.o
 .bss           0x00000000        0x0 ./system/src/newlib/_sbrk.o
 .text          0x00000000        0x0 ./system/src/newlib/_startup.o
 .data          0x00000000        0x0 ./system/src/newlib/_startup.o
 .bss           0x00000000        0x0 ./system/src/newlib/_startup.o
 .text.__initialize_data
                0x00000000       0x14 ./system/src/newlib/_startup.o
 .text.__initialize_bss
                0x00000000       0x10 ./system/src/newlib/_startup.o
 .text.__run_init_array
                0x00000000       0x48 ./system/src/newlib/_startup.o
 .text.__run_fini_array
                0x00000000       0x24 ./system/src/newlib/_startup.o
 .text          0x00000000        0x0 ./system/src/newlib/_syscalls.o
 .data          0x00000000        0x0 ./system/src/newlib/_syscalls.o
 .bss           0x00000000        0x0 ./system/src/newlib/_syscalls.o
 .text.raise    0x00000000       0x10 ./system/src/newlib/_syscalls.o
 .text.kill     0x00000000       0x10 ./system/src/newlib/_syscalls.o
 .bss.__dso_handle
                0x00000000        0x4 ./system/src/newlib/_syscalls.o
 .text          0x00000000        0x0 ./system/src/newlib/assert.o
 .data          0x00000000        0x0 ./system/src/newlib/assert.o
 .bss           0x00000000        0x0 ./system/src/newlib/assert.o
 .text.__assert_func
                0x00000000        0x8 ./system/src/newlib/assert.o
 .debug_info    0x00000000      0x10b ./system/src/newlib/assert.o
 .debug_abbrev  0x00000000       0xa6 ./system/src/newlib/assert.o
 .debug_loc     0x00000000       0x84 ./system/src/newlib/assert.o
 .debug_aranges
                0x00000000       0x20 ./system/src/newlib/assert.o
 .debug_ranges  0x00000000       0x10 ./system/src/newlib/assert.o
 .debug_line    0x00000000       0xb9 ./system/src/newlib/assert.o
 .debug_str     0x00000000      0x223 ./system/src/newlib/assert.o
 .comment       0x00000000       0x71 ./system/src/newlib/assert.o
 .debug_frame   0x00000000       0x28 ./system/src/newlib/assert.o
 .ARM.attributes
                0x00000000       0x39 ./system/src/newlib/assert.o
 .text          0x00000000        0x0 ./system/src/diag/Trace.o
 .data          0x00000000        0x0 ./system/src/diag/Trace.o
 .bss           0x00000000        0x0 ./system/src/diag/Trace.o
 .debug_line    0x00000000        0x0 ./system/src/diag/Trace.o
 .debug_str     0x00000000      0x140 ./system/src/diag/Trace.o
 .comment       0x00000000       0x71 ./system/src/diag/Trace.o
 .ARM.attributes
                0x00000000       0x39 ./system/src/diag/Trace.o
 .text          0x00000000        0x0 ./system/src/diag/trace_impl.o
 .data          0x00000000        0x0 ./system/src/diag/trace_impl.o
 .bss           0x00000000        0x0 ./system/src/diag/trace_impl.o
 .debug_line    0x00000000        0x0 ./system/src/diag/trace_impl.o
 .debug_str     0x00000000      0x145 ./system/src/diag/trace_impl.o
 .comment       0x00000000       0x71 ./system/src/diag/trace_impl.o
 .ARM.attributes
                0x00000000       0x39 ./system/src/diag/trace_impl.o
 .text          0x00000000        0x0 ./system/src/cortexm/_initialize_hardware.o
 .data          0x00000000        0x0 ./system/src/cortexm/_initialize_hardware.o
 .bss           0x00000000        0x0 ./system/src/cortexm/_initialize_hardware.o
 .text          0x00000000        0x0 ./system/src/cortexm/_reset_hardware.o
 .data          0x00000000        0x0 ./system/src/cortexm/_reset_hardware.o
 .bss           0x00000000        0x0 ./system/src/cortexm/_reset_hardware.o
 .text          0x00000000        0x0 ./system/src/cortexm/exception_handlers.o
 .data          0x00000000        0x0 ./system/src/cortexm/exception_handlers.o
 .bss           0x00000000        0x0 ./system/src/cortexm/exception_handlers.o
 .text          0x00000000        0x0 ./system/src/cmsis/system_stm32f4xx.o
 .data          0x00000000        0x0 ./system/src/cmsis/system_stm32f4xx.o
 .bss           0x00000000        0x0 ./system/src/cmsis/system_stm32f4xx.o
 .text          0x00000000        0x0 ./system/src/cmsis/vectors_stm32f407xx.o
 .data          0x00000000        0x0 ./system/src/cmsis/vectors_stm32f407xx.o
 .bss           0x00000000        0x0 ./system/src/cmsis/vectors_stm32f407xx.o
 .text          0x00000000        0x0 ./src/ui/ui.o
 .data          0x00000000        0x0 ./src/ui/ui.o
 .bss           0x00000000        0x0 ./src/ui/ui.o
 .text.UiDriverShowFilter
                0x00000000       0x94 ./src/ui/ui.o
 .text.UiDriverUpdateFrequencyFast
                0x00000000       0x58 ./src/ui/ui.o
 .rodata.size_bands
                0x00000000       0x24 ./src/ui/ui.o
 .rodata.old_waterfall_rainbow
                0x00000000       0x82 ./src/ui/ui.o
 .rodata.q_tx_coeffs_plus
                0x00000000      0x164 ./src/ui/ui.o
 .rodata.iq_rx_am_6k_coeffs
                0x00000000      0x164 ./src/ui/ui.o
 .rodata.iq_rx_am_7k5_coeffs
                0x00000000      0x164 ./src/ui/ui.o
 .rodata.waterfall_cold_hot
                0x00000000       0x82 ./src/ui/ui.o
 .rodata.q_tx_coeffs
                0x00000000      0x164 ./src/ui/ui.o
 .rodata.waterfall_grey_inverse
                0x00000000       0x82 ./src/ui/ui.o
 .rodata.waterfall_grey
                0x00000000       0x82 ./src/ui/ui.o
 .rodata.iq_rx_am_5k_coeffs
                0x00000000      0x164 ./src/ui/ui.o
 .rodata.waterfall_blue
                0x00000000       0x82 ./src/ui/ui.o
 .rodata.i_tx_coeffs
                0x00000000      0x164 ./src/ui/ui.o
 .rodata.q_tx_coeffs_minus
                0x00000000      0x164 ./src/ui/ui.o
 .rodata.old_waterfall_cold_hot
                0x00000000       0x82 ./src/ui/ui.o
 .text          0x00000000        0x0 ./src/stdio/printf.o
 .data          0x00000000        0x0 ./src/stdio/printf.o
 .bss           0x00000000        0x0 ./src/stdio/printf.o
 .text.PrintChar
                0x00000000        0x4 ./src/stdio/printf.o
 .text.PutChar  0x00000000        0x8 ./src/stdio/printf.o
 .text.PutString
                0x00000000       0x24 ./src/stdio/printf.o
 .text.snprintf
                0x00000000       0x1c ./src/stdio/printf.o
 .text.vsprintf
                0x00000000        0xc ./src/stdio/printf.o
 .text.vprintf  0x00000000       0x14 ./src/stdio/printf.o
 .text.fprintf  0x00000000       0x1c ./src/stdio/printf.o
 .text.puts     0x00000000       0x28 ./src/stdio/printf.o
 .text.fputc    0x00000000       0x1c ./src/stdio/printf.o
 .text.fputs    0x00000000       0x44 ./src/stdio/printf.o
 .text          0x00000000        0x0 ./src/si570/ui_si570.o
 .data          0x00000000        0x0 ./src/si570/ui_si570.o
 .bss           0x00000000        0x0 ./src/si570/ui_si570.o
 .text.ui_si570_init_temp_sensor
                0x00000000       0x44 ./src/si570/ui_si570.o
 .text.ui_si570_conv_temp
                0x00000000       0x44 ./src/si570/ui_si570.o
 .text.ui_si570_read_temp
                0x00000000       0x2c ./src/si570/ui_si570.o
 .rodata.fdco_min
                0x00000000        0x4 ./src/si570/ui_si570.o
 .rodata.fdco_max
                0x00000000        0x4 ./src/si570/ui_si570.o
 .text          0x00000000        0x0 ./src/ili9341/tm_stm32f4_dma.o
 .data          0x00000000        0x0 ./src/ili9341/tm_stm32f4_dma.o
 .bss           0x00000000        0x0 ./src/ili9341/tm_stm32f4_dma.o
 .text.TM_DMA_ClearFlags
                0x00000000       0x58 ./src/ili9341/tm_stm32f4_dma.o
 .text.TM_DMA_ClearFlag
                0x00000000       0x60 ./src/ili9341/tm_stm32f4_dma.o
 .text.TM_DMA_GetFlags
                0x00000000       0x58 ./src/ili9341/tm_stm32f4_dma.o
 .text.TM_DMA_EnableInterrupts
                0x00000000       0xe4 ./src/ili9341/tm_stm32f4_dma.o
 .text.TM_DMA_DisableInterrupts
                0x00000000       0xdc ./src/ili9341/tm_stm32f4_dma.o
 .rodata.DMA_IRQs
                0x00000000       0x10 ./src/ili9341/tm_stm32f4_dma.o
 .text          0x00000000        0x0 ./src/ili9341/tm_stm32f4_fonts.o
 .data          0x00000000        0x0 ./src/ili9341/tm_stm32f4_fonts.o
 .bss           0x00000000        0x0 ./src/ili9341/tm_stm32f4_fonts.o
 .text.TM_FONTS_GetStringSize
                0x00000000       0x1c ./src/ili9341/tm_stm32f4_fonts.o
 .rodata.TM_Font16x26
                0x00000000     0x134c ./src/ili9341/tm_stm32f4_fonts.o
 .rodata.TM_Font7x10
                0x00000000      0x76c ./src/ili9341/tm_stm32f4_fonts.o
 .data.TM_Font_16x26
                0x00000000        0x8 ./src/ili9341/tm_stm32f4_fonts.o
 .data.TM_Font_7x10
                0x00000000        0x8 ./src/ili9341/tm_stm32f4_fonts.o
 .rodata.TM_Font11x18
                0x00000000      0xd5c ./src/ili9341/tm_stm32f4_fonts.o
 .data.TM_Font_11x18
                0x00000000        0x8 ./src/ili9341/tm_stm32f4_fonts.o
 .debug_info    0x00000000      0x261 ./src/ili9341/tm_stm32f4_fonts.o
 .debug_abbrev  0x00000000      0x11a ./src/ili9341/tm_stm32f4_fonts.o
 .debug_loc     0x00000000       0x5d ./src/ili9341/tm_stm32f4_fonts.o
 .debug_aranges
                0x00000000       0x20 ./src/ili9341/tm_stm32f4_fonts.o
 .debug_ranges  0x00000000       0x10 ./src/ili9341/tm_stm32f4_fonts.o
 .debug_line    0x00000000      0x150 ./src/ili9341/tm_stm32f4_fonts.o
 .debug_str     0x00000000      0x2d4 ./src/ili9341/tm_stm32f4_fonts.o
 .comment       0x00000000       0x71 ./src/ili9341/tm_stm32f4_fonts.o
 .debug_frame   0x00000000       0x2c ./src/ili9341/tm_stm32f4_fonts.o
 .ARM.attributes
                0x00000000       0x39 ./src/ili9341/tm_stm32f4_fonts.o
 .text          0x00000000        0x0 ./src/ili9341/tm_stm32f4_gpio.o
 .data          0x00000000        0x0 ./src/ili9341/tm_stm32f4_gpio.o
 .bss           0x00000000        0x0 ./src/ili9341/tm_stm32f4_gpio.o
 .text.TM_GPIO_DeInit
                0x00000000       0x58 ./src/ili9341/tm_stm32f4_gpio.o
 .text.TM_GPIO_SetPinAsInput
                0x00000000       0x2c ./src/ili9341/tm_stm32f4_gpio.o
 .text.TM_GPIO_SetPinAsOutput
                0x00000000       0x34 ./src/ili9341/tm_stm32f4_gpio.o
 .text.TM_GPIO_SetPinAsAnalog
                0x00000000       0x2c ./src/ili9341/tm_stm32f4_gpio.o
 .text.TM_GPIO_SetPinAsAlternate
                0x00000000       0x34 ./src/ili9341/tm_stm32f4_gpio.o
 .text.TM_GPIO_SetPullResistor
                0x00000000       0x30 ./src/ili9341/tm_stm32f4_gpio.o
 .text.TM_GPIO_Lock
                0x00000000       0x10 ./src/ili9341/tm_stm32f4_gpio.o
 .text.TM_GPIO_GetPinSource
                0x00000000       0x18 ./src/ili9341/tm_stm32f4_gpio.o
 .text.TM_GPIO_GetPortSource
                0x00000000       0x10 ./src/ili9341/tm_stm32f4_gpio.o
 .text.TM_GPIO_INT_EnableClock
                0x00000000       0x20 ./src/ili9341/tm_stm32f4_gpio.o
 .text.TM_GPIO_INT_DisableClock
                0x00000000       0x20 ./src/ili9341/tm_stm32f4_gpio.o
 .text.TM_GPIO_InitAlternate
                0x00000000       0x7c ./src/ili9341/tm_stm32f4_gpio.o
 .text.TM_GPIO_GetUsedPins
                0x00000000       0x18 ./src/ili9341/tm_stm32f4_gpio.o
 .text.TM_GPIO_GetFreePins
                0x00000000       0x1c ./src/ili9341/tm_stm32f4_gpio.o
 .text          0x00000000        0x0 ./src/ili9341/tm_stm32f4_spi.o
 .data          0x00000000        0x0 ./src/ili9341/tm_stm32f4_spi.o
 .bss           0x00000000        0x0 ./src/ili9341/tm_stm32f4_spi.o
 .text.TM_SPI_GetPrescalerFromMaxFrequency
                0x00000000       0x44 ./src/ili9341/tm_stm32f4_spi.o
 .text.TM_SPI_SetDataSize
                0x00000000       0x3c ./src/ili9341/tm_stm32f4_spi.o
 .text.TM_SPI_SendMulti
                0x00000000       0x3c ./src/ili9341/tm_stm32f4_spi.o
 .text.TM_SPI_WriteMulti
                0x00000000       0x30 ./src/ili9341/tm_stm32f4_spi.o
 .text.TM_SPI_ReadMulti
                0x00000000       0x38 ./src/ili9341/tm_stm32f4_spi.o
 .text.TM_SPI_SendMulti16
                0x00000000       0x40 ./src/ili9341/tm_stm32f4_spi.o
 .text.TM_SPI_WriteMulti16
                0x00000000       0x34 ./src/ili9341/tm_stm32f4_spi.o
 .text.TM_SPI_ReadMulti16
                0x00000000       0x38 ./src/ili9341/tm_stm32f4_spi.o
 .text.TM_SPI1_INT_InitPins
                0x00000000       0x60 ./src/ili9341/tm_stm32f4_spi.o
 .text.TM_SPI2_INT_InitPins
                0x00000000       0x8c ./src/ili9341/tm_stm32f4_spi.o
 .text.TM_SPI3_INT_InitPins
                0x00000000       0x64 ./src/ili9341/tm_stm32f4_spi.o
 .text.TM_SPIx_Init
                0x00000000       0xfc ./src/ili9341/tm_stm32f4_spi.o
 .text.TM_SPI_Init
                0x00000000       0x40 ./src/ili9341/tm_stm32f4_spi.o
 .text.TM_SPI_InitWithMode
                0x00000000       0x3c ./src/ili9341/tm_stm32f4_spi.o
 .text.TM_SPI_InitFull
                0x00000000       0x40 ./src/ili9341/tm_stm32f4_spi.o
 .debug_info    0x00000000      0xd70 ./src/ili9341/tm_stm32f4_spi.o
 .debug_abbrev  0x00000000      0x224 ./src/ili9341/tm_stm32f4_spi.o
 .debug_loc     0x00000000      0x6d2 ./src/ili9341/tm_stm32f4_spi.o
 .debug_aranges
                0x00000000       0x90 ./src/ili9341/tm_stm32f4_spi.o
 .debug_ranges  0x00000000       0x80 ./src/ili9341/tm_stm32f4_spi.o
 .debug_line    0x00000000      0x43e ./src/ili9341/tm_stm32f4_spi.o
 .debug_str     0x00000000      0x80c ./src/ili9341/tm_stm32f4_spi.o
 .comment       0x00000000       0x71 ./src/ili9341/tm_stm32f4_spi.o
 .debug_frame   0x00000000      0x204 ./src/ili9341/tm_stm32f4_spi.o
 .ARM.attributes
                0x00000000       0x39 ./src/ili9341/tm_stm32f4_spi.o
 .text          0x00000000        0x0 ./src/ili9341/tm_stm32f4_spi_dma.o
 .data          0x00000000        0x0 ./src/ili9341/tm_stm32f4_spi_dma.o
 .bss           0x00000000        0x0 ./src/ili9341/tm_stm32f4_spi_dma.o
 .text.TM_SPI_DMA_Init
                0x00000000       0x7c ./src/ili9341/tm_stm32f4_spi_dma.o
 .text.TM_SPI_DMA_InitWithStreamAndChannel
                0x00000000       0x3c ./src/ili9341/tm_stm32f4_spi_dma.o
 .text.TM_SPI_DMA_Deinit
                0x00000000       0x40 ./src/ili9341/tm_stm32f4_spi_dma.o
 .text.TM_SPI_DMA_Transmit
                0x00000000      0x128 ./src/ili9341/tm_stm32f4_spi_dma.o
 .text.TM_SPI_DMA_SendByte
                0x00000000       0x80 ./src/ili9341/tm_stm32f4_spi_dma.o
 .text.TM_SPI_DMA_SendHalfWord
                0x00000000       0x9c ./src/ili9341/tm_stm32f4_spi_dma.o
 .text.TM_SPI_DMA_Working
                0x00000000       0x48 ./src/ili9341/tm_stm32f4_spi_dma.o
 .text.TM_SPI_DMA_GetStreamTX
                0x00000000       0x34 ./src/ili9341/tm_stm32f4_spi_dma.o
 .text.TM_SPI_DMA_GetStreamRX
                0x00000000       0x34 ./src/ili9341/tm_stm32f4_spi_dma.o
 .text.TM_SPI_DMA_EnableInterrupts
                0x00000000       0x40 ./src/ili9341/tm_stm32f4_spi_dma.o
 .text.TM_SPI_DMA_DisableInterrupts
                0x00000000       0x40 ./src/ili9341/tm_stm32f4_spi_dma.o
 .bss.DMA_InitStruct
                0x00000000       0x3c ./src/ili9341/tm_stm32f4_spi_dma.o
 .data.SPI3_DMA_INT
                0x00000000       0x18 ./src/ili9341/tm_stm32f4_spi_dma.o
 .data.SPI1_DMA_INT
                0x00000000       0x18 ./src/ili9341/tm_stm32f4_spi_dma.o
 .data.SPI2_DMA_INT
                0x00000000       0x18 ./src/ili9341/tm_stm32f4_spi_dma.o
 .debug_info    0x00000000      0xbdf ./src/ili9341/tm_stm32f4_spi_dma.o
 .debug_abbrev  0x00000000      0x27f ./src/ili9341/tm_stm32f4_spi_dma.o
 .debug_loc     0x00000000      0x98c ./src/ili9341/tm_stm32f4_spi_dma.o
 .debug_aranges
                0x00000000       0x70 ./src/ili9341/tm_stm32f4_spi_dma.o
 .debug_ranges  0x00000000      0x198 ./src/ili9341/tm_stm32f4_spi_dma.o
 .debug_line    0x00000000      0x34f ./src/ili9341/tm_stm32f4_spi_dma.o
 .debug_str     0x00000000      0x69e ./src/ili9341/tm_stm32f4_spi_dma.o
 .comment       0x00000000       0x71 ./src/ili9341/tm_stm32f4_spi_dma.o
 .debug_frame   0x00000000      0x13c ./src/ili9341/tm_stm32f4_spi_dma.o
 .ARM.attributes
                0x00000000       0x39 ./src/ili9341/tm_stm32f4_spi_dma.o
 .text          0x00000000        0x0 ./src/i2c/mchf_hw_i2c.o
 .data          0x00000000        0x0 ./src/i2c/mchf_hw_i2c.o
 .bss           0x00000000        0x0 ./src/i2c/mchf_hw_i2c.o
 .text.mchf_hw_i2c_ReadData
                0x00000000      0x26c ./src/i2c/mchf_hw_i2c.o
 .text          0x00000000        0x0 ./src/hy28b/ui_lcd_hy28.o
 .data          0x00000000        0x0 ./src/hy28b/ui_lcd_hy28.o
 .bss           0x00000000        0x0 ./src/hy28b/ui_lcd_hy28.o
 .text.UiLcdHy28_Delay
                0x00000000        0x4 ./src/hy28b/ui_lcd_hy28.o
 .text.UiLcdHy28_SpiDeInit
                0x00000000       0x70 ./src/hy28b/ui_lcd_hy28.o
 .text.UiLcdHy28_ParallelInit
                0x00000000      0x140 ./src/hy28b/ui_lcd_hy28.o
 .text.UiLcdHy28_FSMCConfig
                0x00000000       0x5c ./src/hy28b/ui_lcd_hy28.o
 .text.UiLcdHy28_WriteDataSpiStart
                0x00000000        0x8 ./src/hy28b/ui_lcd_hy28.o
 .text.UiLcdHy28_WriteDataOnly
                0x00000000       0x1c ./src/hy28b/ui_lcd_hy28.o
 .text.UiLcdHy28_ReadReg
                0x00000000       0x30 ./src/hy28b/ui_lcd_hy28.o
 .text.UiLcdHy28_SetPoint
                0x00000000       0x30 ./src/hy28b/ui_lcd_hy28.o
 .text.UiLcdHy28_WriteRAM_Prepare
                0x00000000       0x1c ./src/hy28b/ui_lcd_hy28.o
 .text.UiLcdHy28_DrawColorPoint
                0x00000000       0x6c ./src/hy28b/ui_lcd_hy28.o
 .text.UiLcdHy28_DrawSpectrum
                0x00000000      0x214 ./src/hy28b/ui_lcd_hy28.o
 .text.UiLcdHy28_Test
                0x00000000        0x4 ./src/hy28b/ui_lcd_hy28.o
 .text          0x00000000        0x0 ./src/hy28b/ui_lcd_hy28_fonts.o
 .data          0x00000000        0x0 ./src/hy28b/ui_lcd_hy28_fonts.o
 .bss           0x00000000        0x0 ./src/hy28b/ui_lcd_hy28_fonts.o
 .text          0x00000000        0x0 ./src/encoder/ui_rotary.o
 .data          0x00000000        0x0 ./src/encoder/ui_rotary.o
 .bss           0x00000000        0x0 ./src/encoder/ui_rotary.o
 .text.UiRotaryFreqEncoderInit
                0x00000000       0x94 ./src/encoder/ui_rotary.o
 .text.UiRotaryEncoderOneInit
                0x00000000       0x94 ./src/encoder/ui_rotary.o
 .text          0x00000000        0x0 ./src/codec/audio.o
 .data          0x00000000        0x0 ./src/codec/audio.o
 .bss           0x00000000        0x0 ./src/codec/audio.o
 .rodata.IIR_10k_numStages
                0x00000000        0x2 ./src/codec/audio.o
 .rodata.IIR_3k6_numStages
                0x00000000        0x2 ./src/codec/audio.o
 .rodata.IIR_2k3_numStages
                0x00000000        0x2 ./src/codec/audio.o
 .rodata.IIR_300hz_numStages
                0x00000000        0x2 ./src/codec/audio.o
 .rodata.IIR_500hz_numStages
                0x00000000        0x2 ./src/codec/audio.o
 .rodata.IIR_1k8_numStages
                0x00000000        0x2 ./src/codec/audio.o
 .text          0x00000000        0x0 ./src/codec/codec.o
 .data          0x00000000        0x0 ./src/codec/codec.o
 .bss           0x00000000        0x0 ./src/codec/codec.o
 .text.Codec_TIMEOUT_UserCallback
                0x00000000        0x4 ./src/codec/codec.o
 .bss.OutputDev
                0x00000000        0x1 ./src/codec/codec.o
 .text          0x00000000        0x0 ./src/codec/cyclesleep.o
 .data          0x00000000        0x0 ./src/codec/cyclesleep.o
 .bss           0x00000000        0x0 ./src/codec/cyclesleep.o
 .text.get_sysclk
                0x00000000       0x14 ./src/codec/cyclesleep.o
 .text.cyccnt_enable
                0x00000000       0x3c ./src/codec/cyclesleep.o
 .text.cyclegoal
                0x00000000       0x10 ./src/codec/cyclesleep.o
 .text.cyclegoal_ms
                0x00000000       0x24 ./src/codec/cyclesleep.o
 .text.cyclecheck
                0x00000000       0x14 ./src/codec/cyclesleep.o
 .text.cyclesleep
                0x00000000       0x14 ./src/codec/cyclesleep.o
 .text.start_meas
                0x00000000       0x20 ./src/codec/cyclesleep.o
 .text.end_meas
                0x00000000       0x20 ./src/codec/cyclesleep.o
 .text.get_meas
                0x00000000       0x18 ./src/codec/cyclesleep.o
 .data.demcr    0x00000000        0x4 ./src/codec/cyclesleep.o
 .data.dwt_ctrl
                0x00000000        0x4 ./src/codec/cyclesleep.o
 .text          0x00000000        0x0 ./src/codec/i2s.o
 .data          0x00000000        0x0 ./src/codec/i2s.o
 .bss           0x00000000        0x0 ./src/codec/i2s.o
 .text          0x00000000        0x0 ./src/button/tm_stm32f4_button.o
 .data          0x00000000        0x0 ./src/button/tm_stm32f4_button.o
 .bss           0x00000000        0x0 ./src/button/tm_stm32f4_button.o
 .text.TM_BUTTON_SetPressTime
                0x00000000        0x8 ./src/button/tm_stm32f4_button.o
 .text          0x00000000        0x0 ./src/button/tm_stm32f4_delay.o
 .data          0x00000000        0x0 ./src/button/tm_stm32f4_delay.o
 .bss           0x00000000        0x0 ./src/button/tm_stm32f4_delay.o
 .text.TM_DELAY_EnableDelayTimer
                0x00000000       0x1c ./src/button/tm_stm32f4_delay.o
 .text.TM_DELAY_DisableDelayTimer
                0x00000000       0x10 ./src/button/tm_stm32f4_delay.o
 .text.TM_DELAY_TimerCreate
                0x00000000       0x48 ./src/button/tm_stm32f4_delay.o
 .text.TM_DELAY_TimerDelete
                0x00000000       0x6c ./src/button/tm_stm32f4_delay.o
 .text.TM_DELAY_TimerStop
                0x00000000        0x8 ./src/button/tm_stm32f4_delay.o
 .text.TM_DELAY_TimerStart
                0x00000000        0x8 ./src/button/tm_stm32f4_delay.o
 .text.TM_DELAY_TimerReset
                0x00000000        0x8 ./src/button/tm_stm32f4_delay.o
 .text.TM_DELAY_TimerAutoReload
                0x00000000        0x4 ./src/button/tm_stm32f4_delay.o
 .text.TM_DELAY_TimerAutoReloadValue
                0x00000000        0x4 ./src/button/tm_stm32f4_delay.o
 .bss.TM_TimingDelay
                0x00000000        0x4 ./src/button/tm_stm32f4_delay.o
 .text          0x00000000        0x0 ./src/button/tm_stm32f4_timer_properties.o
 .data          0x00000000        0x0 ./src/button/tm_stm32f4_timer_properties.o
 .bss           0x00000000        0x0 ./src/button/tm_stm32f4_timer_properties.o
 .text.TM_TIMER_PROPERTIES_GetTimerProperties
                0x00000000       0xbc ./src/button/tm_stm32f4_timer_properties.o
 .text.TM_TIMER_PROPERTIES_GenerateDataForWorkingFrequency
                0x00000000       0xa4 ./src/button/tm_stm32f4_timer_properties.o
 .text.TM_TIMER_PROPERTIES_EnableClock
                0x00000000      0x124 ./src/button/tm_stm32f4_timer_properties.o
 .text.TM_TIMER_PROPERTIES_DisableClock
                0x00000000      0x124 ./src/button/tm_stm32f4_timer_properties.o
 .debug_info    0x00000000      0x76e ./src/button/tm_stm32f4_timer_properties.o
 .debug_abbrev  0x00000000      0x174 ./src/button/tm_stm32f4_timer_properties.o
 .debug_loc     0x00000000      0x39e ./src/button/tm_stm32f4_timer_properties.o
 .debug_aranges
                0x00000000       0x38 ./src/button/tm_stm32f4_timer_properties.o
 .debug_ranges  0x00000000       0x28 ./src/button/tm_stm32f4_timer_properties.o
 .debug_line    0x00000000      0x239 ./src/button/tm_stm32f4_timer_properties.o
 .debug_str     0x00000000      0x597 ./src/button/tm_stm32f4_timer_properties.o
 .comment       0x00000000       0x71 ./src/button/tm_stm32f4_timer_properties.o
 .debug_frame   0x00000000       0x90 ./src/button/tm_stm32f4_timer_properties.o
 .ARM.attributes
                0x00000000       0x39 ./src/button/tm_stm32f4_timer_properties.o
 .text          0x00000000        0x0 ./src/main.o
 .data          0x00000000        0x0 ./src/main.o
 .bss           0x00000000        0x0 ./src/main.o
 .text.debug_init
                0x00000000       0xa0 ./src/main.o
 .text          0x00000000        0x0 C:\Users\itx\workspace\sdr\libs\libarm_cortexM4lf_math.a(arm_copy_q15.o)
 .data          0x00000000        0x0 C:\Users\itx\workspace\sdr\libs\libarm_cortexM4lf_math.a(arm_copy_q15.o)
 .bss           0x00000000        0x0 C:\Users\itx\workspace\sdr\libs\libarm_cortexM4lf_math.a(arm_copy_q15.o)
 .text          0x00000000        0x0 C:\Users\itx\workspace\sdr\libs\libarm_cortexM4lf_math.a(arm_copy_f32.o)
 .data          0x00000000        0x0 C:\Users\itx\workspace\sdr\libs\libarm_cortexM4lf_math.a(arm_copy_f32.o)
 .bss           0x00000000        0x0 C:\Users\itx\workspace\sdr\libs\libarm_cortexM4lf_math.a(arm_copy_f32.o)
 .text          0x00000000        0x0 C:\Users\itx\workspace\sdr\libs\libarm_cortexM4lf_math.a(arm_min_q15.o)
 .data          0x00000000        0x0 C:\Users\itx\workspace\sdr\libs\libarm_cortexM4lf_math.a(arm_min_q15.o)
 .bss           0x00000000        0x0 C:\Users\itx\workspace\sdr\libs\libarm_cortexM4lf_math.a(arm_min_q15.o)
 .text          0x00000000        0x0 C:\Users\itx\workspace\sdr\libs\libarm_cortexM4lf_math.a(arm_min_f32.o)
 .data          0x00000000        0x0 C:\Users\itx\workspace\sdr\libs\libarm_cortexM4lf_math.a(arm_min_f32.o)
 .bss           0x00000000        0x0 C:\Users\itx\workspace\sdr\libs\libarm_cortexM4lf_math.a(arm_min_f32.o)
 .text          0x00000000        0x0 C:\Users\itx\workspace\sdr\libs\libarm_cortexM4lf_math.a(arm_mean_q15.o)
 .data          0x00000000        0x0 C:\Users\itx\workspace\sdr\libs\libarm_cortexM4lf_math.a(arm_mean_q15.o)
 .bss           0x00000000        0x0 C:\Users\itx\workspace\sdr\libs\libarm_cortexM4lf_math.a(arm_mean_q15.o)
 .text          0x00000000        0x0 C:\Users\itx\workspace\sdr\libs\libarm_cortexM4lf_math.a(arm_mean_f32.o)
 .data          0x00000000        0x0 C:\Users\itx\workspace\sdr\libs\libarm_cortexM4lf_math.a(arm_mean_f32.o)
 .bss           0x00000000        0x0 C:\Users\itx\workspace\sdr\libs\libarm_cortexM4lf_math.a(arm_mean_f32.o)
 .text          0x00000000        0x0 C:\Users\itx\workspace\sdr\libs\libarm_cortexM4lf_math.a(arm_max_q15.o)
 .data          0x00000000        0x0 C:\Users\itx\workspace\sdr\libs\libarm_cortexM4lf_math.a(arm_max_q15.o)
 .bss           0x00000000        0x0 C:\Users\itx\workspace\sdr\libs\libarm_cortexM4lf_math.a(arm_max_q15.o)
 .text          0x00000000        0x0 C:\Users\itx\workspace\sdr\libs\libarm_cortexM4lf_math.a(arm_max_f32.o)
 .data          0x00000000        0x0 C:\Users\itx\workspace\sdr\libs\libarm_cortexM4lf_math.a(arm_max_f32.o)
 .bss           0x00000000        0x0 C:\Users\itx\workspace\sdr\libs\libarm_cortexM4lf_math.a(arm_max_f32.o)
 .text          0x00000000        0x0 C:\Users\itx\workspace\sdr\libs\libarm_cortexM4lf_math.a(arm_rfft_init_f32.o)
 .data          0x00000000        0x0 C:\Users\itx\workspace\sdr\libs\libarm_cortexM4lf_math.a(arm_rfft_init_f32.o)
 .bss           0x00000000        0x0 C:\Users\itx\workspace\sdr\libs\libarm_cortexM4lf_math.a(arm_rfft_init_f32.o)
 .text          0x00000000        0x0 C:\Users\itx\workspace\sdr\libs\libarm_cortexM4lf_math.a(arm_rfft_f32.o)
 .data          0x00000000        0x0 C:\Users\itx\workspace\sdr\libs\libarm_cortexM4lf_math.a(arm_rfft_f32.o)
 .bss           0x00000000        0x0 C:\Users\itx\workspace\sdr\libs\libarm_cortexM4lf_math.a(arm_rfft_f32.o)
 .text          0x00000000        0x0 C:\Users\itx\workspace\sdr\libs\libarm_cortexM4lf_math.a(arm_cfft_radix4_init_f32.o)
 .data          0x00000000        0x0 C:\Users\itx\workspace\sdr\libs\libarm_cortexM4lf_math.a(arm_cfft_radix4_init_f32.o)
 .bss           0x00000000        0x0 C:\Users\itx\workspace\sdr\libs\libarm_cortexM4lf_math.a(arm_cfft_radix4_init_f32.o)
 .text          0x00000000        0x0 C:\Users\itx\workspace\sdr\libs\libarm_cortexM4lf_math.a(arm_cfft_radix4_f32.o)
 .data          0x00000000        0x0 C:\Users\itx\workspace\sdr\libs\libarm_cortexM4lf_math.a(arm_cfft_radix4_f32.o)
 .bss           0x00000000        0x0 C:\Users\itx\workspace\sdr\libs\libarm_cortexM4lf_math.a(arm_cfft_radix4_f32.o)
 .text.arm_cfft_radix4_f32
                0x00000000       0x40 C:\Users\itx\workspace\sdr\libs\libarm_cortexM4lf_math.a(arm_cfft_radix4_f32.o)
 .text          0x00000000        0x0 C:\Users\itx\workspace\sdr\libs\libarm_cortexM4lf_math.a(arm_lms_norm_init_f32.o)
 .data          0x00000000        0x0 C:\Users\itx\workspace\sdr\libs\libarm_cortexM4lf_math.a(arm_lms_norm_init_f32.o)
 .bss           0x00000000        0x0 C:\Users\itx\workspace\sdr\libs\libarm_cortexM4lf_math.a(arm_lms_norm_init_f32.o)
 .text          0x00000000        0x0 C:\Users\itx\workspace\sdr\libs\libarm_cortexM4lf_math.a(arm_lms_norm_f32.o)
 .data          0x00000000        0x0 C:\Users\itx\workspace\sdr\libs\libarm_cortexM4lf_math.a(arm_lms_norm_f32.o)
 .bss           0x00000000        0x0 C:\Users\itx\workspace\sdr\libs\libarm_cortexM4lf_math.a(arm_lms_norm_f32.o)
 .text          0x00000000        0x0 C:\Users\itx\workspace\sdr\libs\libarm_cortexM4lf_math.a(arm_iir_lattice_f32.o)
 .data          0x00000000        0x0 C:\Users\itx\workspace\sdr\libs\libarm_cortexM4lf_math.a(arm_iir_lattice_f32.o)
 .bss           0x00000000        0x0 C:\Users\itx\workspace\sdr\libs\libarm_cortexM4lf_math.a(arm_iir_lattice_f32.o)
 .text          0x00000000        0x0 C:\Users\itx\workspace\sdr\libs\libarm_cortexM4lf_math.a(arm_fir_interpolate_f32.o)
 .data          0x00000000        0x0 C:\Users\itx\workspace\sdr\libs\libarm_cortexM4lf_math.a(arm_fir_interpolate_f32.o)
 .bss           0x00000000        0x0 C:\Users\itx\workspace\sdr\libs\libarm_cortexM4lf_math.a(arm_fir_interpolate_f32.o)
 .text          0x00000000        0x0 C:\Users\itx\workspace\sdr\libs\libarm_cortexM4lf_math.a(arm_fir_init_f32.o)
 .data          0x00000000        0x0 C:\Users\itx\workspace\sdr\libs\libarm_cortexM4lf_math.a(arm_fir_init_f32.o)
 .bss           0x00000000        0x0 C:\Users\itx\workspace\sdr\libs\libarm_cortexM4lf_math.a(arm_fir_init_f32.o)
 .text          0x00000000        0x0 C:\Users\itx\workspace\sdr\libs\libarm_cortexM4lf_math.a(arm_fir_f32.o)
 .data          0x00000000        0x0 C:\Users\itx\workspace\sdr\libs\libarm_cortexM4lf_math.a(arm_fir_f32.o)
 .bss           0x00000000        0x0 C:\Users\itx\workspace\sdr\libs\libarm_cortexM4lf_math.a(arm_fir_f32.o)
 .text          0x00000000        0x0 C:\Users\itx\workspace\sdr\libs\libarm_cortexM4lf_math.a(arm_fir_decimate_f32.o)
 .data          0x00000000        0x0 C:\Users\itx\workspace\sdr\libs\libarm_cortexM4lf_math.a(arm_fir_decimate_f32.o)
 .bss           0x00000000        0x0 C:\Users\itx\workspace\sdr\libs\libarm_cortexM4lf_math.a(arm_fir_decimate_f32.o)
 .text          0x00000000        0x0 C:\Users\itx\workspace\sdr\libs\libarm_cortexM4lf_math.a(arm_cmplx_mag_f32.o)
 .data          0x00000000        0x0 C:\Users\itx\workspace\sdr\libs\libarm_cortexM4lf_math.a(arm_cmplx_mag_f32.o)
 .bss           0x00000000        0x0 C:\Users\itx\workspace\sdr\libs\libarm_cortexM4lf_math.a(arm_cmplx_mag_f32.o)
 .text          0x00000000        0x0 C:\Users\itx\workspace\sdr\libs\libarm_cortexM4lf_math.a(arm_sin_f32.o)
 .data          0x00000000        0x0 C:\Users\itx\workspace\sdr\libs\libarm_cortexM4lf_math.a(arm_sin_f32.o)
 .bss           0x00000000        0x0 C:\Users\itx\workspace\sdr\libs\libarm_cortexM4lf_math.a(arm_sin_f32.o)
 .text          0x00000000        0x0 C:\Users\itx\workspace\sdr\libs\libarm_cortexM4lf_math.a(arm_cos_f32.o)
 .data          0x00000000        0x0 C:\Users\itx\workspace\sdr\libs\libarm_cortexM4lf_math.a(arm_cos_f32.o)
 .bss           0x00000000        0x0 C:\Users\itx\workspace\sdr\libs\libarm_cortexM4lf_math.a(arm_cos_f32.o)
 .text          0x00000000        0x0 C:\Users\itx\workspace\sdr\libs\libarm_cortexM4lf_math.a(arm_sub_f32.o)
 .data          0x00000000        0x0 C:\Users\itx\workspace\sdr\libs\libarm_cortexM4lf_math.a(arm_sub_f32.o)
 .bss           0x00000000        0x0 C:\Users\itx\workspace\sdr\libs\libarm_cortexM4lf_math.a(arm_sub_f32.o)
 .text          0x00000000        0x0 C:\Users\itx\workspace\sdr\libs\libarm_cortexM4lf_math.a(arm_scale_f32.o)
 .data          0x00000000        0x0 C:\Users\itx\workspace\sdr\libs\libarm_cortexM4lf_math.a(arm_scale_f32.o)
 .bss           0x00000000        0x0 C:\Users\itx\workspace\sdr\libs\libarm_cortexM4lf_math.a(arm_scale_f32.o)
 .text          0x00000000        0x0 C:\Users\itx\workspace\sdr\libs\libarm_cortexM4lf_math.a(arm_mult_f32.o)
 .data          0x00000000        0x0 C:\Users\itx\workspace\sdr\libs\libarm_cortexM4lf_math.a(arm_mult_f32.o)
 .bss           0x00000000        0x0 C:\Users\itx\workspace\sdr\libs\libarm_cortexM4lf_math.a(arm_mult_f32.o)
 .text          0x00000000        0x0 C:\Users\itx\workspace\sdr\libs\libarm_cortexM4lf_math.a(arm_add_f32.o)
 .data          0x00000000        0x0 C:\Users\itx\workspace\sdr\libs\libarm_cortexM4lf_math.a(arm_add_f32.o)
 .bss           0x00000000        0x0 C:\Users\itx\workspace\sdr\libs\libarm_cortexM4lf_math.a(arm_add_f32.o)
 .text          0x00000000        0x0 C:\Users\itx\workspace\sdr\libs\libarm_cortexM4lf_math.a(arm_common_tables.o)
 .data          0x00000000        0x0 C:\Users\itx\workspace\sdr\libs\libarm_cortexM4lf_math.a(arm_common_tables.o)
 .bss           0x00000000        0x0 C:\Users\itx\workspace\sdr\libs\libarm_cortexM4lf_math.a(arm_common_tables.o)
 .text          0x00000000        0x0 C:\Users\itx\workspace\sdr\libs\libm.a(lib_a-s_fabs.o)
 .data          0x00000000        0x0 C:\Users\itx\workspace\sdr\libs\libm.a(lib_a-s_fabs.o)
 .bss           0x00000000        0x0 C:\Users\itx\workspace\sdr\libs\libm.a(lib_a-s_fabs.o)
 .text          0x00000000        0x0 C:\Users\itx\workspace\sdr\libs\libm.a(lib_a-s_pow10.o)
 .data          0x00000000        0x0 C:\Users\itx\workspace\sdr\libs\libm.a(lib_a-s_pow10.o)
 .bss           0x00000000        0x0 C:\Users\itx\workspace\sdr\libs\libm.a(lib_a-s_pow10.o)
 .text          0x00000000        0x0 C:\Users\itx\workspace\sdr\libs\libm.a(lib_a-sf_ceil.o)
 .data          0x00000000        0x0 C:\Users\itx\workspace\sdr\libs\libm.a(lib_a-sf_ceil.o)
 .bss           0x00000000        0x0 C:\Users\itx\workspace\sdr\libs\libm.a(lib_a-sf_ceil.o)
 .text          0x00000000        0x0 C:\Users\itx\workspace\sdr\libs\libm.a(lib_a-sf_floor.o)
 .data          0x00000000        0x0 C:\Users\itx\workspace\sdr\libs\libm.a(lib_a-sf_floor.o)
 .bss           0x00000000        0x0 C:\Users\itx\workspace\sdr\libs\libm.a(lib_a-sf_floor.o)
 .text          0x00000000        0x0 C:\Users\itx\workspace\sdr\libs\libm.a(lib_a-sf_round.o)
 .data          0x00000000        0x0 C:\Users\itx\workspace\sdr\libs\libm.a(lib_a-sf_round.o)
 .bss           0x00000000        0x0 C:\Users\itx\workspace\sdr\libs\libm.a(lib_a-sf_round.o)
 .text          0x00000000        0x0 C:\Users\itx\workspace\sdr\libs\libm.a(lib_a-w_log10.o)
 .data          0x00000000        0x0 C:\Users\itx\workspace\sdr\libs\libm.a(lib_a-w_log10.o)
 .bss           0x00000000        0x0 C:\Users\itx\workspace\sdr\libs\libm.a(lib_a-w_log10.o)
 .text          0x00000000        0x0 C:\Users\itx\workspace\sdr\libs\libm.a(lib_a-w_pow.o)
 .data          0x00000000        0x0 C:\Users\itx\workspace\sdr\libs\libm.a(lib_a-w_pow.o)
 .bss           0x00000000        0x0 C:\Users\itx\workspace\sdr\libs\libm.a(lib_a-w_pow.o)
 .text          0x00000000        0x0 C:\Users\itx\workspace\sdr\libs\libm.a(lib_a-w_sqrt.o)
 .data          0x00000000        0x0 C:\Users\itx\workspace\sdr\libs\libm.a(lib_a-w_sqrt.o)
 .bss           0x00000000        0x0 C:\Users\itx\workspace\sdr\libs\libm.a(lib_a-w_sqrt.o)
 .text          0x00000000        0x0 C:\Users\itx\workspace\sdr\libs\libm.a(lib_a-wf_log10.o)
 .data          0x00000000        0x0 C:\Users\itx\workspace\sdr\libs\libm.a(lib_a-wf_log10.o)
 .bss           0x00000000        0x0 C:\Users\itx\workspace\sdr\libs\libm.a(lib_a-wf_log10.o)
 .text          0x00000000        0x0 C:\Users\itx\workspace\sdr\libs\libm.a(lib_a-wf_pow.o)
 .data          0x00000000        0x0 C:\Users\itx\workspace\sdr\libs\libm.a(lib_a-wf_pow.o)
 .bss           0x00000000        0x0 C:\Users\itx\workspace\sdr\libs\libm.a(lib_a-wf_pow.o)
 .text          0x00000000        0x0 C:\Users\itx\workspace\sdr\libs\libm.a(lib_a-wf_sqrt.o)
 .data          0x00000000        0x0 C:\Users\itx\workspace\sdr\libs\libm.a(lib_a-wf_sqrt.o)
 .bss           0x00000000        0x0 C:\Users\itx\workspace\sdr\libs\libm.a(lib_a-wf_sqrt.o)
 .text          0x00000000        0x0 C:\Users\itx\workspace\sdr\libs\libm.a(lib_a-e_log10.o)
 .data          0x00000000        0x0 C:\Users\itx\workspace\sdr\libs\libm.a(lib_a-e_log10.o)
 .bss           0x00000000        0x0 C:\Users\itx\workspace\sdr\libs\libm.a(lib_a-e_log10.o)
 .text          0x00000000        0x0 C:\Users\itx\workspace\sdr\libs\libm.a(lib_a-e_pow.o)
 .data          0x00000000        0x0 C:\Users\itx\workspace\sdr\libs\libm.a(lib_a-e_pow.o)
 .bss           0x00000000        0x0 C:\Users\itx\workspace\sdr\libs\libm.a(lib_a-e_pow.o)
 .text          0x00000000        0x0 C:\Users\itx\workspace\sdr\libs\libm.a(lib_a-e_sqrt.o)
 .data          0x00000000        0x0 C:\Users\itx\workspace\sdr\libs\libm.a(lib_a-e_sqrt.o)
 .bss           0x00000000        0x0 C:\Users\itx\workspace\sdr\libs\libm.a(lib_a-e_sqrt.o)
 .text          0x00000000        0x0 C:\Users\itx\workspace\sdr\libs\libm.a(lib_a-ef_log10.o)
 .data          0x00000000        0x0 C:\Users\itx\workspace\sdr\libs\libm.a(lib_a-ef_log10.o)
 .bss           0x00000000        0x0 C:\Users\itx\workspace\sdr\libs\libm.a(lib_a-ef_log10.o)
 .text          0x00000000        0x0 C:\Users\itx\workspace\sdr\libs\libm.a(lib_a-ef_pow.o)
 .data          0x00000000        0x0 C:\Users\itx\workspace\sdr\libs\libm.a(lib_a-ef_pow.o)
 .bss           0x00000000        0x0 C:\Users\itx\workspace\sdr\libs\libm.a(lib_a-ef_pow.o)
 .text          0x00000000        0x0 C:\Users\itx\workspace\sdr\libs\libm.a(lib_a-ef_sqrt.o)
 .data          0x00000000        0x0 C:\Users\itx\workspace\sdr\libs\libm.a(lib_a-ef_sqrt.o)
 .bss           0x00000000        0x0 C:\Users\itx\workspace\sdr\libs\libm.a(lib_a-ef_sqrt.o)
 .text          0x00000000        0x0 C:\Users\itx\workspace\sdr\libs\libm.a(lib_a-s_finite.o)
 .data          0x00000000        0x0 C:\Users\itx\workspace\sdr\libs\libm.a(lib_a-s_finite.o)
 .bss           0x00000000        0x0 C:\Users\itx\workspace\sdr\libs\libm.a(lib_a-s_finite.o)
 .text          0x00000000        0x0 C:\Users\itx\workspace\sdr\libs\libm.a(lib_a-s_fpclassify.o)
 .data          0x00000000        0x0 C:\Users\itx\workspace\sdr\libs\libm.a(lib_a-s_fpclassify.o)
 .bss           0x00000000        0x0 C:\Users\itx\workspace\sdr\libs\libm.a(lib_a-s_fpclassify.o)
 .text          0x00000000        0x0 C:\Users\itx\workspace\sdr\libs\libm.a(lib_a-s_lib_ver.o)
 .data          0x00000000        0x0 C:\Users\itx\workspace\sdr\libs\libm.a(lib_a-s_lib_ver.o)
 .bss           0x00000000        0x0 C:\Users\itx\workspace\sdr\libs\libm.a(lib_a-s_lib_ver.o)
 .text          0x00000000        0x0 C:\Users\itx\workspace\sdr\libs\libm.a(lib_a-s_matherr.o)
 .data          0x00000000        0x0 C:\Users\itx\workspace\sdr\libs\libm.a(lib_a-s_matherr.o)
 .bss           0x00000000        0x0 C:\Users\itx\workspace\sdr\libs\libm.a(lib_a-s_matherr.o)
 .text          0x00000000        0x0 C:\Users\itx\workspace\sdr\libs\libm.a(lib_a-s_nan.o)
 .data          0x00000000        0x0 C:\Users\itx\workspace\sdr\libs\libm.a(lib_a-s_nan.o)
 .bss           0x00000000        0x0 C:\Users\itx\workspace\sdr\libs\libm.a(lib_a-s_nan.o)
 .text          0x00000000        0x0 C:\Users\itx\workspace\sdr\libs\libm.a(lib_a-s_rint.o)
 .data          0x00000000        0x0 C:\Users\itx\workspace\sdr\libs\libm.a(lib_a-s_rint.o)
 .bss           0x00000000        0x0 C:\Users\itx\workspace\sdr\libs\libm.a(lib_a-s_rint.o)
 .text          0x00000000        0x0 C:\Users\itx\workspace\sdr\libs\libm.a(lib_a-s_scalbn.o)
 .data          0x00000000        0x0 C:\Users\itx\workspace\sdr\libs\libm.a(lib_a-s_scalbn.o)
 .bss           0x00000000        0x0 C:\Users\itx\workspace\sdr\libs\libm.a(lib_a-s_scalbn.o)
 .text          0x00000000        0x0 C:\Users\itx\workspace\sdr\libs\libm.a(lib_a-sf_fabs.o)
 .data          0x00000000        0x0 C:\Users\itx\workspace\sdr\libs\libm.a(lib_a-sf_fabs.o)
 .bss           0x00000000        0x0 C:\Users\itx\workspace\sdr\libs\libm.a(lib_a-sf_fabs.o)
 .text          0x00000000        0x0 C:\Users\itx\workspace\sdr\libs\libm.a(lib_a-sf_finite.o)
 .data          0x00000000        0x0 C:\Users\itx\workspace\sdr\libs\libm.a(lib_a-sf_finite.o)
 .bss           0x00000000        0x0 C:\Users\itx\workspace\sdr\libs\libm.a(lib_a-sf_finite.o)
 .text          0x00000000        0x0 C:\Users\itx\workspace\sdr\libs\libm.a(lib_a-sf_fpclassify.o)
 .data          0x00000000        0x0 C:\Users\itx\workspace\sdr\libs\libm.a(lib_a-sf_fpclassify.o)
 .bss           0x00000000        0x0 C:\Users\itx\workspace\sdr\libs\libm.a(lib_a-sf_fpclassify.o)
 .text          0x00000000        0x0 C:\Users\itx\workspace\sdr\libs\libm.a(lib_a-sf_nan.o)
 .data          0x00000000        0x0 C:\Users\itx\workspace\sdr\libs\libm.a(lib_a-sf_nan.o)
 .bss           0x00000000        0x0 C:\Users\itx\workspace\sdr\libs\libm.a(lib_a-sf_nan.o)
 .text          0x00000000        0x0 C:\Users\itx\workspace\sdr\libs\libm.a(lib_a-sf_scalbn.o)
 .data          0x00000000        0x0 C:\Users\itx\workspace\sdr\libs\libm.a(lib_a-sf_scalbn.o)
 .bss           0x00000000        0x0 C:\Users\itx\workspace\sdr\libs\libm.a(lib_a-sf_scalbn.o)
 .text          0x00000000        0x0 C:\Users\itx\workspace\sdr\libs\libm.a(lib_a-e_log.o)
 .data          0x00000000        0x0 C:\Users\itx\workspace\sdr\libs\libm.a(lib_a-e_log.o)
 .bss           0x00000000        0x0 C:\Users\itx\workspace\sdr\libs\libm.a(lib_a-e_log.o)
 .text          0x00000000        0x0 C:\Users\itx\workspace\sdr\libs\libm.a(lib_a-ef_log.o)
 .data          0x00000000        0x0 C:\Users\itx\workspace\sdr\libs\libm.a(lib_a-ef_log.o)
 .bss           0x00000000        0x0 C:\Users\itx\workspace\sdr\libs\libm.a(lib_a-ef_log.o)
 .text          0x00000000        0x0 C:\Users\itx\workspace\sdr\libs\libm.a(lib_a-s_copysign.o)
 .data          0x00000000        0x0 C:\Users\itx\workspace\sdr\libs\libm.a(lib_a-s_copysign.o)
 .bss           0x00000000        0x0 C:\Users\itx\workspace\sdr\libs\libm.a(lib_a-s_copysign.o)
 .text          0x00000000        0x0 C:\Users\itx\workspace\sdr\libs\libm.a(lib_a-sf_copysign.o)
 .data          0x00000000        0x0 C:\Users\itx\workspace\sdr\libs\libm.a(lib_a-sf_copysign.o)
 .bss           0x00000000        0x0 C:\Users\itx\workspace\sdr\libs\libm.a(lib_a-sf_copysign.o)
 .data          0x00000000        0x0 d:/armtc/armgcc/4.9 2015q3/bin/../lib/gcc/arm-none-eabi/4.9.3/armv7e-m/fpu\libgcc.a(_arm_addsubdf3.o)
 .bss           0x00000000        0x0 d:/armtc/armgcc/4.9 2015q3/bin/../lib/gcc/arm-none-eabi/4.9.3/armv7e-m/fpu\libgcc.a(_arm_addsubdf3.o)
 .data          0x00000000        0x0 d:/armtc/armgcc/4.9 2015q3/bin/../lib/gcc/arm-none-eabi/4.9.3/armv7e-m/fpu\libgcc.a(_arm_muldivdf3.o)
 .bss           0x00000000        0x0 d:/armtc/armgcc/4.9 2015q3/bin/../lib/gcc/arm-none-eabi/4.9.3/armv7e-m/fpu\libgcc.a(_arm_muldivdf3.o)
 .data          0x00000000        0x0 d:/armtc/armgcc/4.9 2015q3/bin/../lib/gcc/arm-none-eabi/4.9.3/armv7e-m/fpu\libgcc.a(_arm_cmpdf2.o)
 .bss           0x00000000        0x0 d:/armtc/armgcc/4.9 2015q3/bin/../lib/gcc/arm-none-eabi/4.9.3/armv7e-m/fpu\libgcc.a(_arm_cmpdf2.o)
 .data          0x00000000        0x0 d:/armtc/armgcc/4.9 2015q3/bin/../lib/gcc/arm-none-eabi/4.9.3/armv7e-m/fpu\libgcc.a(_arm_fixunsdfsi.o)
 .bss           0x00000000        0x0 d:/armtc/armgcc/4.9 2015q3/bin/../lib/gcc/arm-none-eabi/4.9.3/armv7e-m/fpu\libgcc.a(_arm_fixunsdfsi.o)
 .data          0x00000000        0x0 d:/armtc/armgcc/4.9 2015q3/bin/../lib/gcc/arm-none-eabi/4.9.3/armv7e-m/fpu\libgcc.a(_arm_truncdfsf2.o)
 .bss           0x00000000        0x0 d:/armtc/armgcc/4.9 2015q3/bin/../lib/gcc/arm-none-eabi/4.9.3/armv7e-m/fpu\libgcc.a(_arm_truncdfsf2.o)
 .text          0x00000000        0x0 d:/armtc/armgcc/4.9 2015q3/bin/../lib/gcc/arm-none-eabi/4.9.3/../../../../arm-none-eabi/lib/armv7e-m/fpu\libg_nano.a(lib_a-errno.o)
 .data          0x00000000        0x0 d:/armtc/armgcc/4.9 2015q3/bin/../lib/gcc/arm-none-eabi/4.9.3/../../../../arm-none-eabi/lib/armv7e-m/fpu\libg_nano.a(lib_a-errno.o)
 .bss           0x00000000        0x0 d:/armtc/armgcc/4.9 2015q3/bin/../lib/gcc/arm-none-eabi/4.9.3/../../../../arm-none-eabi/lib/armv7e-m/fpu\libg_nano.a(lib_a-errno.o)
 .text          0x00000000        0x0 d:/armtc/armgcc/4.9 2015q3/bin/../lib/gcc/arm-none-eabi/4.9.3/../../../../arm-none-eabi/lib/armv7e-m/fpu\libg_nano.a(lib_a-malloc.o)
 .data          0x00000000        0x0 d:/armtc/armgcc/4.9 2015q3/bin/../lib/gcc/arm-none-eabi/4.9.3/../../../../arm-none-eabi/lib/armv7e-m/fpu\libg_nano.a(lib_a-malloc.o)
 .bss           0x00000000        0x0 d:/armtc/armgcc/4.9 2015q3/bin/../lib/gcc/arm-none-eabi/4.9.3/../../../../arm-none-eabi/lib/armv7e-m/fpu\libg_nano.a(lib_a-malloc.o)
 .text.free     0x00000000       0x10 d:/armtc/armgcc/4.9 2015q3/bin/../lib/gcc/arm-none-eabi/4.9.3/../../../../arm-none-eabi/lib/armv7e-m/fpu\libg_nano.a(lib_a-malloc.o)
 .text          0x00000000        0x0 d:/armtc/armgcc/4.9 2015q3/bin/../lib/gcc/arm-none-eabi/4.9.3/../../../../arm-none-eabi/lib/armv7e-m/fpu\libg_nano.a(lib_a-memcmp.o)
 .data          0x00000000        0x0 d:/armtc/armgcc/4.9 2015q3/bin/../lib/gcc/arm-none-eabi/4.9.3/../../../../arm-none-eabi/lib/armv7e-m/fpu\libg_nano.a(lib_a-memcmp.o)
 .bss           0x00000000        0x0 d:/armtc/armgcc/4.9 2015q3/bin/../lib/gcc/arm-none-eabi/4.9.3/../../../../arm-none-eabi/lib/armv7e-m/fpu\libg_nano.a(lib_a-memcmp.o)
 .text          0x00000000        0x0 d:/armtc/armgcc/4.9 2015q3/bin/../lib/gcc/arm-none-eabi/4.9.3/../../../../arm-none-eabi/lib/armv7e-m/fpu\libg_nano.a(lib_a-memset.o)
 .data          0x00000000        0x0 d:/armtc/armgcc/4.9 2015q3/bin/../lib/gcc/arm-none-eabi/4.9.3/../../../../arm-none-eabi/lib/armv7e-m/fpu\libg_nano.a(lib_a-memset.o)
 .bss           0x00000000        0x0 d:/armtc/armgcc/4.9 2015q3/bin/../lib/gcc/arm-none-eabi/4.9.3/../../../../arm-none-eabi/lib/armv7e-m/fpu\libg_nano.a(lib_a-memset.o)
 .text          0x00000000        0x0 d:/armtc/armgcc/4.9 2015q3/bin/../lib/gcc/arm-none-eabi/4.9.3/../../../../arm-none-eabi/lib/armv7e-m/fpu\libg_nano.a(lib_a-nano-freer.o)
 .data          0x00000000        0x0 d:/armtc/armgcc/4.9 2015q3/bin/../lib/gcc/arm-none-eabi/4.9.3/../../../../arm-none-eabi/lib/armv7e-m/fpu\libg_nano.a(lib_a-nano-freer.o)
 .bss           0x00000000        0x0 d:/armtc/armgcc/4.9 2015q3/bin/../lib/gcc/arm-none-eabi/4.9.3/../../../../arm-none-eabi/lib/armv7e-m/fpu\libg_nano.a(lib_a-nano-freer.o)
 .text._free_r  0x00000000       0x88 d:/armtc/armgcc/4.9 2015q3/bin/../lib/gcc/arm-none-eabi/4.9.3/../../../../arm-none-eabi/lib/armv7e-m/fpu\libg_nano.a(lib_a-nano-freer.o)
 .debug_frame   0x00000000       0x2c d:/armtc/armgcc/4.9 2015q3/bin/../lib/gcc/arm-none-eabi/4.9.3/../../../../arm-none-eabi/lib/armv7e-m/fpu\libg_nano.a(lib_a-nano-freer.o)
 .ARM.attributes
                0x00000000       0x34 d:/armtc/armgcc/4.9 2015q3/bin/../lib/gcc/arm-none-eabi/4.9.3/../../../../arm-none-eabi/lib/armv7e-m/fpu\libg_nano.a(lib_a-nano-freer.o)
 .text          0x00000000        0x0 d:/armtc/armgcc/4.9 2015q3/bin/../lib/gcc/arm-none-eabi/4.9.3/../../../../arm-none-eabi/lib/armv7e-m/fpu\libg_nano.a(lib_a-nano-mallocr.o)
 .data          0x00000000        0x0 d:/armtc/armgcc/4.9 2015q3/bin/../lib/gcc/arm-none-eabi/4.9.3/../../../../arm-none-eabi/lib/armv7e-m/fpu\libg_nano.a(lib_a-nano-mallocr.o)
 .bss           0x00000000        0x0 d:/armtc/armgcc/4.9 2015q3/bin/../lib/gcc/arm-none-eabi/4.9.3/../../../../arm-none-eabi/lib/armv7e-m/fpu\libg_nano.a(lib_a-nano-mallocr.o)
 .text          0x00000000        0x0 d:/armtc/armgcc/4.9 2015q3/bin/../lib/gcc/arm-none-eabi/4.9.3/../../../../arm-none-eabi/lib/armv7e-m/fpu\libg_nano.a(lib_a-sbrkr.o)
 .data          0x00000000        0x0 d:/armtc/armgcc/4.9 2015q3/bin/../lib/gcc/arm-none-eabi/4.9.3/../../../../arm-none-eabi/lib/armv7e-m/fpu\libg_nano.a(lib_a-sbrkr.o)
 .bss           0x00000000        0x0 d:/armtc/armgcc/4.9 2015q3/bin/../lib/gcc/arm-none-eabi/4.9.3/../../../../arm-none-eabi/lib/armv7e-m/fpu\libg_nano.a(lib_a-sbrkr.o)
 .text          0x00000000        0x0 d:/armtc/armgcc/4.9 2015q3/bin/../lib/gcc/arm-none-eabi/4.9.3/../../../../arm-none-eabi/lib/armv7e-m/fpu\libg_nano.a(lib_a-strcpy.o)
 .data          0x00000000        0x0 d:/armtc/armgcc/4.9 2015q3/bin/../lib/gcc/arm-none-eabi/4.9.3/../../../../arm-none-eabi/lib/armv7e-m/fpu\libg_nano.a(lib_a-strcpy.o)
 .bss           0x00000000        0x0 d:/armtc/armgcc/4.9 2015q3/bin/../lib/gcc/arm-none-eabi/4.9.3/../../../../arm-none-eabi/lib/armv7e-m/fpu\libg_nano.a(lib_a-strcpy.o)
 .text          0x00000000        0x0 d:/armtc/armgcc/4.9 2015q3/bin/../lib/gcc/arm-none-eabi/4.9.3/../../../../arm-none-eabi/lib/armv7e-m/fpu\libg_nano.a(lib_a-strlen.o)
 .data          0x00000000        0x0 d:/armtc/armgcc/4.9 2015q3/bin/../lib/gcc/arm-none-eabi/4.9.3/../../../../arm-none-eabi/lib/armv7e-m/fpu\libg_nano.a(lib_a-strlen.o)
 .bss           0x00000000        0x0 d:/armtc/armgcc/4.9 2015q3/bin/../lib/gcc/arm-none-eabi/4.9.3/../../../../arm-none-eabi/lib/armv7e-m/fpu\libg_nano.a(lib_a-strlen.o)

Memory Configuration

Name             Origin             Length             Attributes
RAM              0x20000000         0x00020000         xrw
CCMRAM           0x10000000         0x00010000         xrw
FLASH            0x08000000         0x00100000         xr
FLASHB1          0x00000000         0x00000000         xr
EXTMEMB0         0x00000000         0x00000000         xr
EXTMEMB1         0x00000000         0x00000000         xr
EXTMEMB2         0x00000000         0x00000000         xr
EXTMEMB3         0x00000000         0x00000000         xr
MEMORY_ARRAY     0x20002000         0x00000020         xrw
*default*        0x00000000         0xffffffff

Linker script and memory map

LOAD ./system/src/stm32f4/misc.o
LOAD ./system/src/stm32f4/stm32f4xx_adc.o
LOAD ./system/src/stm32f4/stm32f4xx_dac.o
LOAD ./system/src/stm32f4/stm32f4xx_dma.o
LOAD ./system/src/stm32f4/stm32f4xx_exti.o
LOAD ./system/src/stm32f4/stm32f4xx_flash.o
LOAD ./system/src/stm32f4/stm32f4xx_fsmc.o
LOAD ./system/src/stm32f4/stm32f4xx_gpio.o
LOAD ./system/src/stm32f4/stm32f4xx_i2c.o
LOAD ./system/src/stm32f4/stm32f4xx_pwr.o
LOAD ./system/src/stm32f4/stm32f4xx_rcc.o
LOAD ./system/src/stm32f4/stm32f4xx_rtc.o
LOAD ./system/src/stm32f4/stm32f4xx_spi.o
LOAD ./system/src/stm32f4/stm32f4xx_syscfg.o
LOAD ./system/src/stm32f4/stm32f4xx_tim.o
LOAD ./system/src/stm32f4/stm32f4xx_usart.o
LOAD ./system/src/stm32f4/stm32f4xx_wwdg.o
LOAD ./system/src/newlib/_cxx.o
LOAD ./system/src/newlib/_exit.o
LOAD ./system/src/newlib/_sbrk.o
LOAD ./system/src/newlib/_startup.o
LOAD ./system/src/newlib/_syscalls.o
LOAD ./system/src/newlib/assert.o
LOAD ./system/src/diag/Trace.o
LOAD ./system/src/diag/trace_impl.o
LOAD ./system/src/cortexm/_initialize_hardware.o
LOAD ./system/src/cortexm/_reset_hardware.o
LOAD ./system/src/cortexm/exception_handlers.o
LOAD ./system/src/cmsis/system_stm32f4xx.o
LOAD ./system/src/cmsis/vectors_stm32f407xx.o
LOAD ./src/ui/ui.o
LOAD ./src/stdio/printf.o
LOAD ./src/si570/ui_si570.o
LOAD ./src/ili9341/tm_stm32f4_dma.o
LOAD ./src/ili9341/tm_stm32f4_fonts.o
LOAD ./src/ili9341/tm_stm32f4_gpio.o
LOAD ./src/ili9341/tm_stm32f4_spi.o
LOAD ./src/ili9341/tm_stm32f4_spi_dma.o
LOAD ./src/i2c/mchf_hw_i2c.o
LOAD ./src/hy28b/ui_lcd_hy28.o
LOAD ./src/hy28b/ui_lcd_hy28_fonts.o
LOAD ./src/encoder/ui_rotary.o
LOAD ./src/codec/audio.o
LOAD ./src/codec/codec.o
LOAD ./src/codec/cyclesleep.o
LOAD ./src/codec/i2s.o
LOAD ./src/button/tm_stm32f4_button.o
LOAD ./src/button/tm_stm32f4_delay.o
LOAD ./src/button/tm_stm32f4_timer_properties.o
LOAD ./src/main.o
LOAD C:\Users\itx\workspace\sdr\libs\libarm_cortexM4lf_math.a
LOAD d:/armtc/armgcc/4.9 2015q3/bin/../lib/gcc/arm-none-eabi/4.9.3/../../../../arm-none-eabi/lib/armv7e-m/fpu\libstdc++_nano.a
LOAD C:\Users\itx\workspace\sdr\libs\libm.a
START GROUP
LOAD d:/armtc/armgcc/4.9 2015q3/bin/../lib/gcc/arm-none-eabi/4.9.3/armv7e-m/fpu\libgcc.a
LOAD d:/armtc/armgcc/4.9 2015q3/bin/../lib/gcc/arm-none-eabi/4.9.3/../../../../arm-none-eabi/lib/armv7e-m/fpu\libg_nano.a
LOAD d:/armtc/armgcc/4.9 2015q3/bin/../lib/gcc/arm-none-eabi/4.9.3/../../../../arm-none-eabi/lib/armv7e-m/fpu\libc_nano.a
END GROUP
START GROUP
LOAD d:/armtc/armgcc/4.9 2015q3/bin/../lib/gcc/arm-none-eabi/4.9.3/armv7e-m/fpu\libgcc.a
LOAD d:/armtc/armgcc/4.9 2015q3/bin/../lib/gcc/arm-none-eabi/4.9.3/../../../../arm-none-eabi/lib/armv7e-m/fpu\libc_nano.a
END GROUP
                0x20020000                __stack = (ORIGIN (RAM) + 0x20000)
                0x20020000                _estack = __stack
                0x00000400                __Main_Stack_Size = 0x400
                0x00000400                PROVIDE (_Main_Stack_Size, __Main_Stack_Size)
                0x2001fc00                __Main_Stack_Limit = (__stack - __Main_Stack_Size)
                0x2001fc00                PROVIDE (_Main_Stack_Limit, __Main_Stack_Limit)
                0x00000100                _Minimum_Stack_Size = 0x100
                0x20013c84                PROVIDE (_Heap_Begin, _end_noinit)
                0x2001fc00                PROVIDE (_Heap_Limit, (__stack - __Main_Stack_Size))

.isr_vector     0x08000000      0x338
 FILL mask 0xff
                0x08000000                __vectors_start = ABSOLUTE (.)
                0x08000000                __vectors_start__ = ABSOLUTE (.)
 *(.isr_vector)
 .isr_vector    0x08000000      0x188 ./system/src/cmsis/vectors_stm32f407xx.o
                0x08000000                __isr_vectors
 *(.cfmconfig)
 *(.after_vectors .after_vectors.*)
 .after_vectors
                0x08000188      0x138 ./system/src/newlib/_startup.o
                0x08000188                _start
 .after_vectors
                0x080002c0       0x74 ./system/src/cortexm/exception_handlers.o
                0x080002c0                Reset_Handler
                0x080002c4                NMI_Handler
                0x080002c8                HardFault_Handler
                0x080002dc                HardFault_Handler_C
                0x080002e0                MemManage_Handler
                0x080002e4                BusFault_Handler
                0x080002f8                BusFault_Handler_C
                0x080002fc                UsageFault_Handler
                0x08000310                UsageFault_Handler_C
                0x08000314                SVC_Handler
                0x08000318                DebugMon_Handler
                0x0800031c                PendSV_Handler
 .after_vectors
                0x08000334        0x4 ./system/src/cmsis/vectors_stm32f407xx.o
                0x08000334                RTC_Alarm_IRQHandler
                0x08000334                HASH_RNG_IRQHandler
                0x08000334                EXTI2_IRQHandler
                0x08000334                TIM8_CC_IRQHandler
                0x08000334                TIM1_CC_IRQHandler
                0x08000334                PVD_IRQHandler
                0x08000334                SDIO_IRQHandler
                0x08000334                TAMP_STAMP_IRQHandler
                0x08000334                CAN2_RX1_IRQHandler
                0x08000334                EXTI3_IRQHandler
                0x08000334                TIM8_TRG_COM_TIM14_IRQHandler
                0x08000334                TIM1_UP_TIM10_IRQHandler
                0x08000334                TIM8_UP_TIM13_IRQHandler
                0x08000334                I2C3_ER_IRQHandler
                0x08000334                EXTI0_IRQHandler
                0x08000334                I2C2_EV_IRQHandler
                0x08000334                CAN1_RX0_IRQHandler
                0x08000334                FPU_IRQHandler
                0x08000334                OTG_HS_WKUP_IRQHandler
                0x08000334                CAN2_SCE_IRQHandler
                0x08000334                SPI1_IRQHandler
                0x08000334                TIM6_DAC_IRQHandler
                0x08000334                TIM1_BRK_TIM9_IRQHandler
                0x08000334                DCMI_IRQHandler
                0x08000334                CAN2_RX0_IRQHandler
                0x08000334                USART6_IRQHandler
                0x08000334                USART3_IRQHandler
                0x08000334                CAN1_RX1_IRQHandler
                0x08000334                UART5_IRQHandler
                0x08000334                TIM4_IRQHandler
                0x08000334                I2C1_EV_IRQHandler
                0x08000334                UART4_IRQHandler
                0x08000334                TIM3_IRQHandler
                0x08000334                RCC_IRQHandler
                0x08000334                TIM8_BRK_TIM12_IRQHandler
                0x08000334                Default_Handler
                0x08000334                EXTI15_10_IRQHandler
                0x08000334                ADC_IRQHandler
                0x08000334                TIM7_IRQHandler
                0x08000334                CAN2_TX_IRQHandler
                0x08000334                TIM5_IRQHandler
                0x08000334                I2C3_EV_IRQHandler
                0x08000334                EXTI9_5_IRQHandler
                0x08000334                RTC_WKUP_IRQHandler
                0x08000334                ETH_WKUP_IRQHandler
                0x08000334                SPI2_IRQHandler
                0x08000334                OTG_HS_EP1_IN_IRQHandler
                0x08000334                CAN1_TX_IRQHandler
                0x08000334                EXTI4_IRQHandler
                0x08000334                ETH_IRQHandler
                0x08000334                OTG_HS_EP1_OUT_IRQHandler
                0x08000334                WWDG_IRQHandler
                0x08000334                TIM2_IRQHandler
                0x08000334                OTG_FS_WKUP_IRQHandler
                0x08000334                TIM1_TRG_COM_TIM11_IRQHandler
                0x08000334                OTG_HS_IRQHandler
                0x08000334                EXTI1_IRQHandler
                0x08000334                USART2_IRQHandler
                0x08000334                I2C2_ER_IRQHandler
                0x08000334                CAN1_SCE_IRQHandler
                0x08000334                FLASH_IRQHandler
                0x08000334                USART1_IRQHandler
                0x08000334                OTG_FS_IRQHandler
                0x08000334                SPI3_IRQHandler
                0x08000334                I2C1_ER_IRQHandler
                0x08000334                FMC_IRQHandler

.inits          0x08000338       0x28
                0x08000338                __data_regions_array_start = .
                0x08000338        0x4 LONG 0x801d6d8 LOADADDR (.data)
                0x0800033c        0x4 LONG 0x20000000 ADDR (.data)
                0x08000340        0x4 LONG 0x20000468 (ADDR (.data) + SIZEOF (.data))
                0x08000344        0x4 LONG 0x801d6d8 LOADADDR (.data_CCMRAM)
                0x08000348        0x4 LONG 0x10000000 ADDR (.data_CCMRAM)
                0x0800034c        0x4 LONG 0x10000000 (ADDR (.data_CCMRAM) + SIZEOF (.data_CCMRAM))
                0x08000350                __data_regions_array_end = .
                0x08000350                __bss_regions_array_start = .
                0x08000350        0x4 LONG 0x20000468 ADDR (.bss)
                0x08000354        0x4 LONG 0x20013c84 (ADDR (.bss) + SIZEOF (.bss))
                0x08000358        0x4 LONG 0x10000000 ADDR (.bss_CCMRAM)
                0x0800035c        0x4 LONG 0x10000000 (ADDR (.bss_CCMRAM) + SIZEOF (.bss_CCMRAM))
                0x08000360                __bss_regions_array_end = .
 *(.init)
 *(.fini)
                0x08000360                . = ALIGN (0x4)
                0x08000360                PROVIDE (__preinit_array_start, .)
 *(.preinit_array_sysinit .preinit_array_sysinit.*)
 *(.preinit_array_platform .preinit_array_platform.*)
 *(.preinit_array .preinit_array.*)
                0x08000360                PROVIDE (__preinit_array_end, .)
                0x08000360                . = ALIGN (0x4)
                0x08000360                PROVIDE (__init_array_start, .)
 *(SORT(.init_array.*))
 *(.init_array)
                0x08000360                PROVIDE (__init_array_end, .)
                0x08000360                . = ALIGN (0x4)
                0x08000360                PROVIDE (__fini_array_start, .)
 *(SORT(.fini_array.*))
 *(.fini_array)
                0x08000360                PROVIDE (__fini_array_end, .)

.flashtext
 *(.flashtext .flashtext.*)

.text           0x08000360    0x1d378
 *(.text .text.*)
 .text.DMA_DeInit
                0x08000360      0x130 ./system/src/stm32f4/stm32f4xx_dma.o
                0x08000360                DMA_DeInit
 .text.DMA_Init
                0x08000490       0x70 ./system/src/stm32f4/stm32f4xx_dma.o
                0x08000490                DMA_Init
 .text.DMA_Cmd  0x08000500       0x14 ./system/src/stm32f4/stm32f4xx_dma.o
                0x08000500                DMA_Cmd
 .text.DMA_GetFlagStatus
                0x08000514       0x3c ./system/src/stm32f4/stm32f4xx_dma.o
                0x08000514                DMA_GetFlagStatus
 .text.DMA_ClearFlag
                0x08000550       0x34 ./system/src/stm32f4/stm32f4xx_dma.o
                0x08000550                DMA_ClearFlag
 .text.DMA_ITConfig
                0x08000584       0x40 ./system/src/stm32f4/stm32f4xx_dma.o
                0x08000584                DMA_ITConfig
 .text.GPIO_Init
                0x080005c4       0xa8 ./system/src/stm32f4/stm32f4xx_gpio.o
                0x080005c4                GPIO_Init
 .text.GPIO_SetBits
                0x0800066c        0x4 ./system/src/stm32f4/stm32f4xx_gpio.o
                0x0800066c                GPIO_SetBits
 .text.GPIO_ResetBits
                0x08000670        0x4 ./system/src/stm32f4/stm32f4xx_gpio.o
                0x08000670                GPIO_ResetBits
 .text.GPIO_ToggleBits
                0x08000674        0x8 ./system/src/stm32f4/stm32f4xx_gpio.o
                0x08000674                GPIO_ToggleBits
 .text.GPIO_PinAFConfig
                0x0800067c       0x28 ./system/src/stm32f4/stm32f4xx_gpio.o
                0x0800067c                GPIO_PinAFConfig
 .text.I2C_DeInit
                0x080006a4       0x6c ./system/src/stm32f4/stm32f4xx_i2c.o
                0x080006a4                I2C_DeInit
 .text.I2C_Init
                0x08000710       0xe8 ./system/src/stm32f4/stm32f4xx_i2c.o
                0x08000710                I2C_Init
 .text.I2C_Cmd  0x080007f8       0x1c ./system/src/stm32f4/stm32f4xx_i2c.o
                0x080007f8                I2C_Cmd
 .text.I2C_GenerateSTART
                0x08000814       0x1c ./system/src/stm32f4/stm32f4xx_i2c.o
                0x08000814                I2C_GenerateSTART
 .text.I2C_GenerateSTOP
                0x08000830       0x1c ./system/src/stm32f4/stm32f4xx_i2c.o
                0x08000830                I2C_GenerateSTOP
 .text.I2C_Send7bitAddress
                0x0800084c       0x18 ./system/src/stm32f4/stm32f4xx_i2c.o
                0x0800084c                I2C_Send7bitAddress
 .text.I2C_AcknowledgeConfig
                0x08000864       0x1c ./system/src/stm32f4/stm32f4xx_i2c.o
                0x08000864                I2C_AcknowledgeConfig
 .text.I2C_SoftwareResetCmd
                0x08000880       0x1c ./system/src/stm32f4/stm32f4xx_i2c.o
                0x08000880                I2C_SoftwareResetCmd
 .text.I2C_SendData
                0x0800089c        0x4 ./system/src/stm32f4/stm32f4xx_i2c.o
                0x0800089c                I2C_SendData
 .text.I2C_ReceiveData
                0x080008a0        0x8 ./system/src/stm32f4/stm32f4xx_i2c.o
                0x080008a0                I2C_ReceiveData
 .text.I2C_CheckEvent
                0x080008a8       0x1c ./system/src/stm32f4/stm32f4xx_i2c.o
                0x080008a8                I2C_CheckEvent
 .text.I2C_GetFlagStatus
                0x080008c4       0x38 ./system/src/stm32f4/stm32f4xx_i2c.o
                0x080008c4                I2C_GetFlagStatus
 .text.I2C_ClearFlag
                0x080008fc        0x8 ./system/src/stm32f4/stm32f4xx_i2c.o
                0x080008fc                I2C_ClearFlag
 .text.RCC_MCO2Config
                0x08000904       0x14 ./system/src/stm32f4/stm32f4xx_rcc.o
                0x08000904                RCC_MCO2Config
 .text.RCC_GetClocksFreq
                0x08000918       0x98 ./system/src/stm32f4/stm32f4xx_rcc.o
                0x08000918                RCC_GetClocksFreq
 .text.RCC_AHB1PeriphClockCmd
                0x080009b0       0x18 ./system/src/stm32f4/stm32f4xx_rcc.o
                0x080009b0                RCC_AHB1PeriphClockCmd
 .text.RCC_APB1PeriphClockCmd
                0x080009c8       0x18 ./system/src/stm32f4/stm32f4xx_rcc.o
                0x080009c8                RCC_APB1PeriphClockCmd
 .text.RCC_APB1PeriphResetCmd
                0x080009e0       0x18 ./system/src/stm32f4/stm32f4xx_rcc.o
                0x080009e0                RCC_APB1PeriphResetCmd
 .text.RCC_APB2PeriphResetCmd
                0x080009f8       0x18 ./system/src/stm32f4/stm32f4xx_rcc.o
                0x080009f8                RCC_APB2PeriphResetCmd
 .text.SPI_I2S_DeInit
                0x08000a10       0x6c ./system/src/stm32f4/stm32f4xx_spi.o
                0x08000a10                SPI_I2S_DeInit
 .text.SPI_Init
                0x08000a7c       0x50 ./system/src/stm32f4/stm32f4xx_spi.o
                0x08000a7c                SPI_Init
 .text.I2S_Init
                0x08000acc       0xf0 ./system/src/stm32f4/stm32f4xx_spi.o
                0x08000acc                I2S_Init
 .text.SPI_Cmd  0x08000bbc       0x1c ./system/src/stm32f4/stm32f4xx_spi.o
                0x08000bbc                SPI_Cmd
 .text.I2S_Cmd  0x08000bd8       0x1c ./system/src/stm32f4/stm32f4xx_spi.o
                0x08000bd8                I2S_Cmd
 .text.I2S_FullDuplexConfig
                0x08000bf4       0x48 ./system/src/stm32f4/stm32f4xx_spi.o
                0x08000bf4                I2S_FullDuplexConfig
 .text.SPI_I2S_ReceiveData
                0x08000c3c        0x8 ./system/src/stm32f4/stm32f4xx_spi.o
                0x08000c3c                SPI_I2S_ReceiveData
 .text.SPI_I2S_SendData
                0x08000c44        0x4 ./system/src/stm32f4/stm32f4xx_spi.o
                0x08000c44                SPI_I2S_SendData
 .text.SPI_I2S_DMACmd
                0x08000c48       0x14 ./system/src/stm32f4/stm32f4xx_spi.o
                0x08000c48                SPI_I2S_DMACmd
 .text.SPI_I2S_GetFlagStatus
                0x08000c5c        0xc ./system/src/stm32f4/stm32f4xx_spi.o
                0x08000c5c                SPI_I2S_GetFlagStatus
 .text.TIM_TimeBaseInit
                0x08000c68       0x98 ./system/src/stm32f4/stm32f4xx_tim.o
                0x08000c68                TIM_TimeBaseInit
 .text.TIM_GetCounter
                0x08000d00        0x4 ./system/src/stm32f4/stm32f4xx_tim.o
                0x08000d00                TIM_GetCounter
 .text.TIM_Cmd  0x08000d04       0x1c ./system/src/stm32f4/stm32f4xx_tim.o
                0x08000d04                TIM_Cmd
 .text.TIM_EncoderInterfaceConfig
                0x08000d20       0x40 ./system/src/stm32f4/stm32f4xx_tim.o
                0x08000d20                TIM_EncoderInterfaceConfig
 .text._exit    0x08000d60        0x8 ./system/src/newlib/_exit.o
                0x08000d60                _exit
 .text._sbrk    0x08000d68       0x40 ./system/src/newlib/_sbrk.o
                0x08000d68                _sbrk
 .text.__initialize_args
                0x08000da8       0x10 ./system/src/newlib/_syscalls.o
                0x08000da8                __initialize_args
 .text.__initialize_hardware_early
                0x08000db8       0x24 ./system/src/cortexm/_initialize_hardware.o
                0x08000db8                __initialize_hardware_early
 .text.__initialize_hardware
                0x08000ddc        0x4 ./system/src/cortexm/_initialize_hardware.o
                0x08000ddc                __initialize_hardware
 .text.__reset_hardware
                0x08000de0       0x24 ./system/src/cortexm/_reset_hardware.o
                0x08000de0                __reset_hardware
 .text.SystemInit
                0x08000e04      0x130 ./system/src/cmsis/system_stm32f4xx.o
                0x08000e04                SystemInit
 .text.SystemCoreClockUpdate
                0x08000f34       0x78 ./system/src/cmsis/system_stm32f4xx.o
                0x08000f34                SystemCoreClockUpdate
 .text.UiDriverChangeBandFilter
                0x08000fac       0x68 ./src/ui/ui.o
 *fill*         0x08001014        0x4 
 .text.UiCalcRFGain
                0x08001018       0x58 ./src/ui/ui.o
                0x08001018                UiCalcRFGain
 .text.UiCalcRxPhaseAdj
                0x08001070      0x278 ./src/ui/ui.o
                0x08001070                UiCalcRxPhaseAdj
 .text.UiCalcRxIqGainAdj
                0x080012e8       0x70 ./src/ui/ui.o
                0x080012e8                UiCalcRxIqGainAdj
 .text.UiCalcNB_AGC
                0x08001358       0x90 ./src/ui/ui.o
                0x08001358                UiCalcNB_AGC
 .text.UiDriverCreateFunctionButtons
                0x080013e8       0xf0 ./src/ui/ui.o
                0x080013e8                UiDriverCreateFunctionButtons
 .text.UiDriverChangeAfGain
                0x080014d8       0x84 ./src/ui/ui.o
                0x080014d8                UiDriverChangeAfGain
 .text.UiDriverChangeCodecGain
                0x0800155c       0xa8 ./src/ui/ui.o
                0x0800155c                UiDriverChangeCodecGain
 .text.UiDriverChangeRfGain
                0x08001604       0xa8 ./src/ui/ui.o
                0x08001604                UiDriverChangeRfGain
 .text.UiDriverCheckFrequencyEncoder
                0x080016ac       0x64 ./src/ui/ui.o
                0x080016ac                UiDriverCheckFrequencyEncoder
 .text.UiDriverChangeSigProc
                0x08001710      0x138 ./src/ui/ui.o
                0x08001710                UiDriverChangeSigProc
 .text.UiDriverCheckEncoderTwo
                0x08001848      0x218 ./src/ui/ui.o
                0x08001848                UiDriverCheckEncoderTwo
 .text.UiDriverClearSpectrumDisplay
                0x08001a60       0x4c ./src/ui/ui.o
                0x08001a60                UiDriverClearSpectrumDisplay
 .text.UiDriverChangeDSPMode
                0x08001aac      0x120 ./src/ui/ui.o
                0x08001aac                UiDriverChangeDSPMode
 .text.UiDriverHandleSmeter
                0x08001bcc      0x3b0 ./src/ui/ui.o
                0x08001bcc                UiDriverHandleSmeter
 *fill*         0x08001f7c        0x4 
 .text.UiDriverFFTWindowFunction
                0x08001f80      0x4a4 ./src/ui/ui.o
                0x08001f80                UiDriverFFTWindowFunction
 .text.UiDriverInitSpectrumDisplay
                0x08002424      0x150 ./src/ui/ui.o
                0x08002424                UiDriverInitSpectrumDisplay
 .text.UiDriverInitFrequency
                0x08002574       0x9c ./src/ui/ui.o
                0x08002574                UiDriverInitFrequency
 .text.UiDriverDisplayFilterBW
                0x08002610      0x24c ./src/ui/ui.o
                0x08002610                UiDriverDisplayFilterBW
 .text.UiDriverChangeFilter
                0x0800285c      0x128 ./src/ui/ui.o
                0x0800285c                UiDriverChangeFilter
 .text.UiDriverUpdateLcdFreq
                0x08002984      0x27c ./src/ui/ui.o
                0x08002984                UiDriverUpdateLcdFreq
 .text.UiDriverShowStep
                0x08002c00      0x144 ./src/ui/ui.o
                0x08002c00                UiDriverShowStep
 .text.UiDriverChangeTunningStep
                0x08002d44       0x30 ./src/ui/ui.o
                0x08002d44                UiDriverChangeTunningStep
 .text.UiDriverShowBand
                0x08002d74      0x134 ./src/ui/ui.o
                0x08002d74                UiDriverShowBand
 .text.UiDriverShowMode
                0x08002ea8       0xb4 ./src/ui/ui.o
                0x08002ea8                UiDriverShowMode
 .text.UiDriverChangeBand
                0x08002f5c       0x98 ./src/ui/ui.o
                0x08002f5c                UiDriverChangeBand
 .text.UiDrawSpectrumScopeFrequencyBarText
                0x08002ff4      0x3ec ./src/ui/ui.o
                0x08002ff4                UiDrawSpectrumScopeFrequencyBarText
 .text.UiDriverCreateSpectrumScope
                0x080033e0      0x32c ./src/ui/ui.o
                0x080033e0                UiDriverCreateSpectrumScope
 *fill*         0x0800370c        0x4 
 .text.UiDriverReDrawSpectrumDisplay
                0x08003710      0x6c8 ./src/ui/ui.o
                0x08003710                UiDriverReDrawSpectrumDisplay
 .text.UiDriverReDrawWaterfallDisplay
                0x08003dd8      0x6f4 ./src/ui/ui.o
                0x08003dd8                UiDriverReDrawWaterfallDisplay
 .text.UiInitSpectrumScopeWaterfall
                0x080044cc       0x18 ./src/ui/ui.o
                0x080044cc                UiInitSpectrumScopeWaterfall
 .text.UiDriverUpdateFrequency
                0x080044e4       0xc0 ./src/ui/ui.o
                0x080044e4                UiDriverUpdateFrequency
 .text.UiDriverCreateDesktop
                0x080045a4      0x47c ./src/ui/ui.o
                0x080045a4                UiDriverCreateDesktop
 .text.ui_driver_init
                0x08004a20       0x58 ./src/ui/ui.o
                0x08004a20                ui_driver_init
 .text.PutUnsignedInt
                0x08004a78       0x54 ./src/stdio/printf.o
                0x08004a78                PutUnsignedInt
 .text.PutSignedInt
                0x08004acc       0x9c ./src/stdio/printf.o
                0x08004acc                PutSignedInt
 .text.PutHexa  0x08004b68       0x68 ./src/stdio/printf.o
                0x08004b68                PutHexa
 .text.vsnprintf
                0x08004bd0      0x178 ./src/stdio/printf.o
                0x08004bd0                vsnprintf
 .text.vfprintf
                0x08004d48       0x58 ./src/stdio/printf.o
                0x08004d48                vfprintf
 .text.printf   0x08004da0       0x28 ./src/stdio/printf.o
                0x08004da0                printf
 .text.sprintf  0x08004dc8       0x20 ./src/stdio/printf.o
                0x08004dc8                sprintf
 .text.ui_si570_verify_frequency
                0x08004de8       0x40 ./src/si570/ui_si570.o
 .text.ui_si570_large_frequency_change
                0x08004e28       0xc0 ./src/si570/ui_si570.o
 .text.ui_si570_is_large_change
                0x08004ee8       0x6c ./src/si570/ui_si570.o
 .text.ui_si570_get_configuration
                0x08004f54      0x174 ./src/si570/ui_si570.o
                0x08004f54                ui_si570_get_configuration
 .text.ui_si570_set_frequency
                0x080050c8      0x27c ./src/si570/ui_si570.o
                0x080050c8                ui_si570_set_frequency
 *fill*         0x08005344        0x4 
 .text.ui_si570_calc_startupfrequency
                0x08005348      0x1e0 ./src/si570/ui_si570.o
                0x08005348                ui_si570_calc_startupfrequency
 .text.TM_DMA_TransferCompleteHandler
                0x08005528        0x4 ./src/ili9341/tm_stm32f4_dma.o
                0x08005528                TM_DMA_TransferCompleteHandler
 .text.TM_DMA_HalfTransferCompleteHandler
                0x0800552c        0x4 ./src/ili9341/tm_stm32f4_dma.o
                0x0800552c                TM_DMA_HalfTransferCompleteHandler
 .text.TM_DMA_TransferErrorHandler
                0x08005530        0x4 ./src/ili9341/tm_stm32f4_dma.o
                0x08005530                TM_DMA_TransferErrorHandler
 .text.TM_DMA_DirectModeErrorHandler
                0x08005534        0x4 ./src/ili9341/tm_stm32f4_dma.o
                0x08005534                TM_DMA_DirectModeErrorHandler
 .text.TM_DMA_FIFOErrorHandler
                0x08005538        0x4 ./src/ili9341/tm_stm32f4_dma.o
                0x08005538                TM_DMA_FIFOErrorHandler
 .text.TM_DMA_INT_ProcessInterrupt
                0x0800553c      0x10c ./src/ili9341/tm_stm32f4_dma.o
 .text.DMA1_Stream0_IRQHandler
                0x08005648        0xc ./src/ili9341/tm_stm32f4_dma.o
                0x08005648                DMA1_Stream0_IRQHandler
 .text.DMA1_Stream1_IRQHandler
                0x08005654        0xc ./src/ili9341/tm_stm32f4_dma.o
                0x08005654                DMA1_Stream1_IRQHandler
 .text.DMA1_Stream2_IRQHandler
                0x08005660        0xc ./src/ili9341/tm_stm32f4_dma.o
                0x08005660                DMA1_Stream2_IRQHandler
 .text.DMA1_Stream4_IRQHandler
                0x0800566c        0xc ./src/ili9341/tm_stm32f4_dma.o
                0x0800566c                DMA1_Stream4_IRQHandler
 .text.DMA1_Stream5_IRQHandler
                0x08005678        0xc ./src/ili9341/tm_stm32f4_dma.o
                0x08005678                DMA1_Stream5_IRQHandler
 .text.DMA1_Stream6_IRQHandler
                0x08005684        0xc ./src/ili9341/tm_stm32f4_dma.o
                0x08005684                DMA1_Stream6_IRQHandler
 .text.DMA1_Stream7_IRQHandler
                0x08005690        0xc ./src/ili9341/tm_stm32f4_dma.o
                0x08005690                DMA1_Stream7_IRQHandler
 .text.DMA2_Stream0_IRQHandler
                0x0800569c        0xc ./src/ili9341/tm_stm32f4_dma.o
                0x0800569c                DMA2_Stream0_IRQHandler
 .text.DMA2_Stream1_IRQHandler
                0x080056a8        0xc ./src/ili9341/tm_stm32f4_dma.o
                0x080056a8                DMA2_Stream1_IRQHandler
 .text.DMA2_Stream2_IRQHandler
                0x080056b4        0xc ./src/ili9341/tm_stm32f4_dma.o
                0x080056b4                DMA2_Stream2_IRQHandler
 .text.DMA2_Stream3_IRQHandler
                0x080056c0        0xc ./src/ili9341/tm_stm32f4_dma.o
                0x080056c0                DMA2_Stream3_IRQHandler
 .text.DMA2_Stream4_IRQHandler
                0x080056cc        0xc ./src/ili9341/tm_stm32f4_dma.o
                0x080056cc                DMA2_Stream4_IRQHandler
 .text.DMA2_Stream5_IRQHandler
                0x080056d8        0xc ./src/ili9341/tm_stm32f4_dma.o
                0x080056d8                DMA2_Stream5_IRQHandler
 .text.DMA2_Stream6_IRQHandler
                0x080056e4        0xc ./src/ili9341/tm_stm32f4_dma.o
                0x080056e4                DMA2_Stream6_IRQHandler
 .text.DMA2_Stream7_IRQHandler
                0x080056f0        0xc ./src/ili9341/tm_stm32f4_dma.o
                0x080056f0                DMA2_Stream7_IRQHandler
 .text.TM_GPIO_INT_Init
                0x080056fc       0xb4 ./src/ili9341/tm_stm32f4_gpio.o
                0x080056fc                TM_GPIO_INT_Init
 .text.TM_GPIO_Init
                0x080057b0       0x40 ./src/ili9341/tm_stm32f4_gpio.o
                0x080057b0                TM_GPIO_Init
 .text.mchf_hw_i2c_init
                0x080057f0       0x9c ./src/i2c/mchf_hw_i2c.o
                0x080057f0                mchf_hw_i2c_init
 .text.mchf_hw_i2c_reset
                0x0800588c       0x44 ./src/i2c/mchf_hw_i2c.o
                0x0800588c                mchf_hw_i2c_reset
 .text.mchf_hw_i2c_WriteRegister
                0x080058d0      0x11c ./src/i2c/mchf_hw_i2c.o
                0x080058d0                mchf_hw_i2c_WriteRegister
 .text.mchf_hw_i2c_WriteBlock
                0x080059ec      0x138 ./src/i2c/mchf_hw_i2c.o
                0x080059ec                mchf_hw_i2c_WriteBlock
 .text.mchf_hw_i2c_ReadRegister
                0x08005b24      0x1a8 ./src/i2c/mchf_hw_i2c.o
                0x08005b24                mchf_hw_i2c_ReadRegister
 .text.UiLcdHy28_BacklightInit
                0x08005ccc       0x30 ./src/hy28b/ui_lcd_hy28.o
                0x08005ccc                UiLcdHy28_BacklightInit
 .text.UiLcdHy28_SpiInit
                0x08005cfc      0x108 ./src/hy28b/ui_lcd_hy28.o
                0x08005cfc                UiLcdHy28_SpiInit
 .text.UiLcdHy28_Reset
                0x08005e04       0x24 ./src/hy28b/ui_lcd_hy28.o
                0x08005e04                UiLcdHy28_Reset
 .text.UiLcdHy28_SendByteSpi
                0x08005e28       0x34 ./src/hy28b/ui_lcd_hy28.o
                0x08005e28                UiLcdHy28_SendByteSpi
 .text.UiLcdHy28_WriteDataOnly.part.1
                0x08005e5c       0x14 ./src/hy28b/ui_lcd_hy28.o
 .text.UiLcdHy28_ReadByteSpi
                0x08005e70       0x48 ./src/hy28b/ui_lcd_hy28.o
                0x08005e70                UiLcdHy28_ReadByteSpi
 .text.UiLcdHy28_WriteIndexSpi
                0x08005eb8       0x38 ./src/hy28b/ui_lcd_hy28.o
                0x08005eb8                UiLcdHy28_WriteIndexSpi
 .text.UiLcdHy28_WriteRAM_Prepare.part.4
                0x08005ef0       0x28 ./src/hy28b/ui_lcd_hy28.o
 .text.UiLcdHy28_WriteDataSpi
                0x08005f18       0x38 ./src/hy28b/ui_lcd_hy28.o
                0x08005f18                UiLcdHy28_WriteDataSpi
 .text.UiLcdHy28_ReadDataSpi
                0x08005f50       0x40 ./src/hy28b/ui_lcd_hy28.o
                0x08005f50                UiLcdHy28_ReadDataSpi
 .text.UiLcdHy28_WriteReg
                0x08005f90       0x34 ./src/hy28b/ui_lcd_hy28.o
                0x08005f90                UiLcdHy28_WriteReg
 .text.UiLcdHy28_LcdClear
                0x08005fc4       0x94 ./src/hy28b/ui_lcd_hy28.o
                0x08005fc4                UiLcdHy28_LcdClear
 .text.UiLcdHy28_DrawStraightLine
                0x08006058      0x100 ./src/hy28b/ui_lcd_hy28.o
                0x08006058                UiLcdHy28_DrawStraightLine
 .text.UiLcdHy28_DrawHorizLineWithGrad
                0x08006158       0xbc ./src/hy28b/ui_lcd_hy28.o
                0x08006158                UiLcdHy28_DrawHorizLineWithGrad
 .text.UiLcdHy28_DrawEmptyRect
                0x08006214       0x54 ./src/hy28b/ui_lcd_hy28.o
                0x08006214                UiLcdHy28_DrawEmptyRect
 .text.UiLcdHy28_DrawBottomButton
                0x08006268       0x44 ./src/hy28b/ui_lcd_hy28.o
                0x08006268                UiLcdHy28_DrawBottomButton
 .text.UiLcdHy28_DrawFullRect
                0x080062ac       0xf4 ./src/hy28b/ui_lcd_hy28.o
                0x080062ac                UiLcdHy28_DrawFullRect
 .text.UiLcdHy28_OpenBulkWrite
                0x080063a0       0x6c ./src/hy28b/ui_lcd_hy28.o
                0x080063a0                UiLcdHy28_OpenBulkWrite
 .text.UiLcdHy28_BulkWrite
                0x0800640c       0x38 ./src/hy28b/ui_lcd_hy28.o
                0x0800640c                UiLcdHy28_BulkWrite
 .text.UiLcdHy28_CloseBulkWrite
                0x08006444       0x54 ./src/hy28b/ui_lcd_hy28.o
                0x08006444                UiLcdHy28_CloseBulkWrite
 .text.UiLcdHy28_DrawChar
                0x08006498      0x27c ./src/hy28b/ui_lcd_hy28.o
                0x08006498                UiLcdHy28_DrawChar
 .text.UiLcdHy28_PrintText
                0x08006714       0xbc ./src/hy28b/ui_lcd_hy28.o
                0x08006714                UiLcdHy28_PrintText
 .text.UiLcdHy28_DrawSpectrum_Interleaved
                0x080067d0      0x4dc ./src/hy28b/ui_lcd_hy28.o
                0x080067d0                UiLcdHy28_DrawSpectrum_Interleaved
 .text.UiLcdHy28_InitA
                0x08006cac      0x580 ./src/hy28b/ui_lcd_hy28.o
                0x08006cac                UiLcdHy28_InitA
 .text.UiLcdHy28_Init
                0x0800722c       0xb0 ./src/hy28b/ui_lcd_hy28.o
                0x0800722c                UiLcdHy28_Init
 .text.UiLcdHy28_ShowStartUpScreen
                0x080072dc      0x10c ./src/hy28b/ui_lcd_hy28.o
                0x080072dc                UiLcdHy28_ShowStartUpScreen
 .text.UiRotaryEncoderTwoInit
                0x080073e8       0x98 ./src/encoder/ui_rotary.o
                0x080073e8                UiRotaryEncoderTwoInit
 .text.UiRotaryEncoderThreeInit
                0x08007480       0x8c ./src/encoder/ui_rotary.o
                0x08007480                UiRotaryEncoderThreeInit
 .text.audio_rx_freq_conv
                0x0800750c      0x15c ./src/codec/audio.o
 .text.audio_driver_set_rx_audio_filter
                0x08007668      0x504 ./src/codec/audio.o
                0x08007668                audio_driver_set_rx_audio_filter
 *fill*         0x08007b6c        0x4 
 .text.Audio_Init
                0x08007b70      0x1e0 ./src/codec/audio.o
                0x08007b70                Audio_Init
 .text.I2S_RX_CallBack
                0x08007d50      0xdcc ./src/codec/audio.o
                0x08007d50                I2S_RX_CallBack
 .text.Codec_WriteRegister
                0x08008b1c       0xec ./src/codec/codec.o
                0x08008b1c                Codec_WriteRegister
 .text.Codec_Volume
                0x08008c08       0x20 ./src/codec/codec.o
                0x08008c08                Codec_Volume
 .text.Codec_Reset
                0x08008c28       0xa8 ./src/codec/codec.o
                0x08008c28                Codec_Reset
 .text.Codec_Line_Gain_Adj
                0x08008cd0        0xc ./src/codec/codec.o
                0x08008cd0                Codec_Line_Gain_Adj
 .text.Codec_CtrlInterface_Init
                0x08008cdc       0x60 ./src/codec/codec.o
                0x08008cdc                Codec_CtrlInterface_Init
 .text.Codec_AudioInterface_Init
                0x08008d3c       0x50 ./src/codec/codec.o
                0x08008d3c                Codec_AudioInterface_Init
 .text.Codec_GPIO_Init
                0x08008d8c       0xe4 ./src/codec/codec.o
                0x08008d8c                Codec_GPIO_Init
 .text.Codec_Init
                0x08008e70       0x20 ./src/codec/codec.o
                0x08008e70                Codec_Init
 .text.delay    0x08008e90       0x2c ./src/codec/cyclesleep.o
                0x08008e90                delay
 .text.I2S_Block_Init
                0x08008ebc      0x104 ./src/codec/i2s.o
                0x08008ebc                I2S_Block_Init
 .text.I2S_Block_PlayRec
                0x08008fc0       0x90 ./src/codec/i2s.o
                0x08008fc0                I2S_Block_PlayRec
 .text.DMA1_Stream3_IRQHandler
                0x08009050       0x78 ./src/codec/i2s.o
                0x08009050                DMA1_Stream3_IRQHandler
 .text.TM_BUTTON_Init
                0x080090c8       0x80 ./src/button/tm_stm32f4_button.o
                0x080090c8                TM_BUTTON_Init
 .text.TM_BUTTON_INT_CheckButton
                0x08009148       0x84 ./src/button/tm_stm32f4_button.o
                0x08009148                TM_BUTTON_INT_CheckButton
 .text.TM_BUTTON_Update
                0x080091cc       0x24 ./src/button/tm_stm32f4_button.o
                0x080091cc                TM_BUTTON_Update
 .text.SysTick_Handler
                0x080091f0       0x68 ./src/button/tm_stm32f4_delay.o
                0x080091f0                SysTick_Handler
 .text.TM_DELAY_Init
                0x08009258       0x60 ./src/button/tm_stm32f4_delay.o
                0x08009258                TM_DELAY_Init
 .text.BUTTON1_EventHandler
                0x080092b8       0x50 ./src/main.o
                0x080092b8                BUTTON1_EventHandler
 .text.BUTTON2_EventHandler
                0x08009308       0x40 ./src/main.o
                0x08009308                BUTTON2_EventHandler
 .text.BUTTON3_EventHandler
                0x08009348       0x54 ./src/main.o
                0x08009348                BUTTON3_EventHandler
 .text.BUTTON4_EventHandler
                0x0800939c       0x20 ./src/main.o
                0x0800939c                BUTTON4_EventHandler
 .text.BUTTON5_EventHandler
                0x080093bc      0x114 ./src/main.o
                0x080093bc                BUTTON5_EventHandler
 .text.BUTTON6_EventHandler
                0x080094d0       0x44 ./src/main.o
                0x080094d0                BUTTON6_EventHandler
 .text.BUTTON7_EventHandler
                0x08009514       0x2c ./src/main.o
                0x08009514                BUTTON7_EventHandler
 .text.BUTTON8_EventHandler
                0x08009540       0xc0 ./src/main.o
                0x08009540                BUTTON8_EventHandler
 .text.radio_init
                0x08009600      0x100 ./src/main.o
                0x08009600                radio_init
 .text.InitBoard
                0x08009700      0x17c ./src/main.o
                0x08009700                InitBoard
 .text.startup.main
                0x0800987c       0x38 ./src/main.o
                0x0800987c                main
 .text.arm_copy_q15
                0x080098b4      0x21c C:\Users\itx\workspace\sdr\libs\libarm_cortexM4lf_math.a(arm_copy_q15.o)
                0x080098b4                arm_copy_q15
 .text.arm_copy_f32
                0x08009ad0      0x158 C:\Users\itx\workspace\sdr\libs\libarm_cortexM4lf_math.a(arm_copy_f32.o)
                0x08009ad0                arm_copy_f32
 .text.arm_min_q15
                0x08009c28       0xe4 C:\Users\itx\workspace\sdr\libs\libarm_cortexM4lf_math.a(arm_min_q15.o)
                0x08009c28                arm_min_q15
 .text.arm_min_f32
                0x08009d0c      0x15c C:\Users\itx\workspace\sdr\libs\libarm_cortexM4lf_math.a(arm_min_f32.o)
                0x08009d0c                arm_min_f32
 .text.arm_mean_q15
                0x08009e68      0x194 C:\Users\itx\workspace\sdr\libs\libarm_cortexM4lf_math.a(arm_mean_q15.o)
                0x08009e68                arm_mean_q15
 .text.arm_mean_f32
                0x08009ffc      0x1c8 C:\Users\itx\workspace\sdr\libs\libarm_cortexM4lf_math.a(arm_mean_f32.o)
                0x08009ffc                arm_mean_f32
 .text.arm_max_q15
                0x0800a1c4       0xe4 C:\Users\itx\workspace\sdr\libs\libarm_cortexM4lf_math.a(arm_max_q15.o)
                0x0800a1c4                arm_max_q15
 .text.arm_max_f32
                0x0800a2a8      0x15c C:\Users\itx\workspace\sdr\libs\libarm_cortexM4lf_math.a(arm_max_f32.o)
                0x0800a2a8                arm_max_f32
 .text.arm_rfft_init_f32
                0x0800a404       0x78 C:\Users\itx\workspace\sdr\libs\libarm_cortexM4lf_math.a(arm_rfft_init_f32.o)
                0x0800a404                arm_rfft_init_f32
 .text.arm_split_rfft_f32
                0x0800a47c      0x218 C:\Users\itx\workspace\sdr\libs\libarm_cortexM4lf_math.a(arm_rfft_f32.o)
                0x0800a47c                arm_split_rfft_f32
 .text.arm_split_rifft_f32
                0x0800a694      0x160 C:\Users\itx\workspace\sdr\libs\libarm_cortexM4lf_math.a(arm_rfft_f32.o)
                0x0800a694                arm_split_rifft_f32
 .text.arm_rfft_f32
                0x0800a7f4       0x88 C:\Users\itx\workspace\sdr\libs\libarm_cortexM4lf_math.a(arm_rfft_f32.o)
                0x0800a7f4                arm_rfft_f32
 .text.arm_cfft_radix4_init_f32
                0x0800a87c       0x94 C:\Users\itx\workspace\sdr\libs\libarm_cortexM4lf_math.a(arm_cfft_radix4_init_f32.o)
                0x0800a87c                arm_cfft_radix4_init_f32
 .text.arm_radix4_butterfly_f32
                0x0800a910      0x3b0 C:\Users\itx\workspace\sdr\libs\libarm_cortexM4lf_math.a(arm_cfft_radix4_f32.o)
                0x0800a910                arm_radix4_butterfly_f32
 .text.arm_radix4_butterfly_inverse_f32
                0x0800acc0      0x3d0 C:\Users\itx\workspace\sdr\libs\libarm_cortexM4lf_math.a(arm_cfft_radix4_f32.o)
                0x0800acc0                arm_radix4_butterfly_inverse_f32
 .text.arm_bitreversal_f32
                0x0800b090       0xfc C:\Users\itx\workspace\sdr\libs\libarm_cortexM4lf_math.a(arm_cfft_radix4_f32.o)
                0x0800b090                arm_bitreversal_f32
 .text.arm_lms_norm_init_f32
                0x0800b18c       0x38 C:\Users\itx\workspace\sdr\libs\libarm_cortexM4lf_math.a(arm_lms_norm_init_f32.o)
                0x0800b18c                arm_lms_norm_init_f32
 .text.arm_lms_norm_f32
                0x0800b1c4      0x620 C:\Users\itx\workspace\sdr\libs\libarm_cortexM4lf_math.a(arm_lms_norm_f32.o)
                0x0800b1c4                arm_lms_norm_f32
 .text.arm_iir_lattice_f32
                0x0800b7e4      0x3e0 C:\Users\itx\workspace\sdr\libs\libarm_cortexM4lf_math.a(arm_iir_lattice_f32.o)
                0x0800b7e4                arm_iir_lattice_f32
 .text.arm_fir_interpolate_f32
                0x0800bbc4      0x44c C:\Users\itx\workspace\sdr\libs\libarm_cortexM4lf_math.a(arm_fir_interpolate_f32.o)
                0x0800bbc4                arm_fir_interpolate_f32
 .text.arm_fir_init_f32
                0x0800c010       0x24 C:\Users\itx\workspace\sdr\libs\libarm_cortexM4lf_math.a(arm_fir_init_f32.o)
                0x0800c010                arm_fir_init_f32
 .text.arm_fir_f32
                0x0800c034      0x498 C:\Users\itx\workspace\sdr\libs\libarm_cortexM4lf_math.a(arm_fir_f32.o)
                0x0800c034                arm_fir_f32
 .text.arm_fir_decimate_f32
                0x0800c4cc      0x3e0 C:\Users\itx\workspace\sdr\libs\libarm_cortexM4lf_math.a(arm_fir_decimate_f32.o)
                0x0800c4cc                arm_fir_decimate_f32
 .text.arm_cmplx_mag_f32
                0x0800c8ac      0x3b8 C:\Users\itx\workspace\sdr\libs\libarm_cortexM4lf_math.a(arm_cmplx_mag_f32.o)
                0x0800c8ac                arm_cmplx_mag_f32
 .text.arm_sin_f32
                0x0800cc64       0xd0 C:\Users\itx\workspace\sdr\libs\libarm_cortexM4lf_math.a(arm_sin_f32.o)
                0x0800cc64                arm_sin_f32
 .text.arm_cos_f32
                0x0800cd34       0xd0 C:\Users\itx\workspace\sdr\libs\libarm_cortexM4lf_math.a(arm_cos_f32.o)
                0x0800cd34                arm_cos_f32
 .text.arm_sub_f32
                0x0800ce04      0x214 C:\Users\itx\workspace\sdr\libs\libarm_cortexM4lf_math.a(arm_sub_f32.o)
                0x0800ce04                arm_sub_f32
 .text.arm_scale_f32
                0x0800d018      0x274 C:\Users\itx\workspace\sdr\libs\libarm_cortexM4lf_math.a(arm_scale_f32.o)
                0x0800d018                arm_scale_f32
 .text.arm_mult_f32
                0x0800d28c      0x214 C:\Users\itx\workspace\sdr\libs\libarm_cortexM4lf_math.a(arm_mult_f32.o)
                0x0800d28c                arm_mult_f32
 .text.arm_add_f32
                0x0800d4a0      0x214 C:\Users\itx\workspace\sdr\libs\libarm_cortexM4lf_math.a(arm_add_f32.o)
                0x0800d4a0                arm_add_f32
 .text.fabs     0x0800d6b4       0x14 C:\Users\itx\workspace\sdr\libs\libm.a(lib_a-s_fabs.o)
                0x0800d6b4                fabs
 .text.pow10    0x0800d6c8       0x18 C:\Users\itx\workspace\sdr\libs\libm.a(lib_a-s_pow10.o)
                0x0800d6c8                pow10
 .text.ceilf    0x0800d6e0       0x94 C:\Users\itx\workspace\sdr\libs\libm.a(lib_a-sf_ceil.o)
                0x0800d6e0                ceilf
 .text.floorf   0x0800d774       0x9c C:\Users\itx\workspace\sdr\libs\libm.a(lib_a-sf_floor.o)
                0x0800d774                floorf
 .text.roundf   0x0800d810       0x5c C:\Users\itx\workspace\sdr\libs\libm.a(lib_a-sf_round.o)
                0x0800d810                roundf
 .text.log10    0x0800d86c      0x10c C:\Users\itx\workspace\sdr\libs\libm.a(lib_a-w_log10.o)
                0x0800d86c                log10
 .text.pow      0x0800d978      0x370 C:\Users\itx\workspace\sdr\libs\libm.a(lib_a-w_pow.o)
                0x0800d978                pow
 .text.sqrt     0x0800dce8       0xbc C:\Users\itx\workspace\sdr\libs\libm.a(lib_a-w_sqrt.o)
                0x0800dce8                sqrt
 .text.log10f   0x0800dda4       0xf8 C:\Users\itx\workspace\sdr\libs\libm.a(lib_a-wf_log10.o)
                0x0800dda4                log10f
 .text.powf     0x0800de9c      0x39c C:\Users\itx\workspace\sdr\libs\libm.a(lib_a-wf_pow.o)
                0x0800de9c                powf
 .text.sqrtf    0x0800e238       0xb4 C:\Users\itx\workspace\sdr\libs\libm.a(lib_a-wf_sqrt.o)
                0x0800e238                sqrtf
 *fill*         0x0800e2ec        0x4 
 .text.__ieee754_log10
                0x0800e2f0      0x138 C:\Users\itx\workspace\sdr\libs\libm.a(lib_a-e_log10.o)
                0x0800e2f0                __ieee754_log10
 .text.__ieee754_pow
                0x0800e428      0xb90 C:\Users\itx\workspace\sdr\libs\libm.a(lib_a-e_pow.o)
                0x0800e428                __ieee754_pow
 .text.__ieee754_sqrt
                0x0800efb8      0x1c4 C:\Users\itx\workspace\sdr\libs\libm.a(lib_a-e_sqrt.o)
                0x0800efb8                __ieee754_sqrt
 .text.__ieee754_log10f
                0x0800f17c       0xbc C:\Users\itx\workspace\sdr\libs\libm.a(lib_a-ef_log10.o)
                0x0800f17c                __ieee754_log10f
 .text.__ieee754_powf
                0x0800f238      0x600 C:\Users\itx\workspace\sdr\libs\libm.a(lib_a-ef_pow.o)
                0x0800f238                __ieee754_powf
 .text.__ieee754_sqrtf
                0x0800f838       0x9c C:\Users\itx\workspace\sdr\libs\libm.a(lib_a-ef_sqrt.o)
                0x0800f838                __ieee754_sqrtf
 .text.finite   0x0800f8d4       0x14 C:\Users\itx\workspace\sdr\libs\libm.a(lib_a-s_finite.o)
                0x0800f8d4                finite
 .text.__fpclassifyd
                0x0800f8e8       0x70 C:\Users\itx\workspace\sdr\libs\libm.a(lib_a-s_fpclassify.o)
                0x0800f8e8                __fpclassifyd
 .text.matherr  0x0800f958        0x4 C:\Users\itx\workspace\sdr\libs\libm.a(lib_a-s_matherr.o)
                0x0800f958                matherr
 *fill*         0x0800f95c        0x4 
 .text.nan      0x0800f960       0x10 C:\Users\itx\workspace\sdr\libs\libm.a(lib_a-s_nan.o)
                0x0800f960                nan
 .text.rint     0x0800f970      0x124 C:\Users\itx\workspace\sdr\libs\libm.a(lib_a-s_rint.o)
                0x0800f970                rint
 *fill*         0x0800fa94        0x4 
 .text.scalbn   0x0800fa98      0x120 C:\Users\itx\workspace\sdr\libs\libm.a(lib_a-s_scalbn.o)
                0x0800fa98                scalbn
 .text.fabsf    0x0800fbb8       0x10 C:\Users\itx\workspace\sdr\libs\libm.a(lib_a-sf_fabs.o)
                0x0800fbb8                fabsf
 .text.finitef  0x0800fbc8       0x14 C:\Users\itx\workspace\sdr\libs\libm.a(lib_a-sf_finite.o)
                0x0800fbc8                finitef
 .text.__fpclassifyf
                0x0800fbdc       0x5c C:\Users\itx\workspace\sdr\libs\libm.a(lib_a-sf_fpclassify.o)
                0x0800fbdc                __fpclassifyf
 .text.nanf     0x0800fc38        0xc C:\Users\itx\workspace\sdr\libs\libm.a(lib_a-sf_nan.o)
                0x0800fc38                nanf
 .text.scalbnf  0x0800fc44       0xcc C:\Users\itx\workspace\sdr\libs\libm.a(lib_a-sf_scalbn.o)
                0x0800fc44                scalbnf
 .text.__ieee754_log
                0x0800fd10      0x428 C:\Users\itx\workspace\sdr\libs\libm.a(lib_a-e_log.o)
                0x0800fd10                __ieee754_log
 .text.__ieee754_logf
                0x08010138      0x204 C:\Users\itx\workspace\sdr\libs\libm.a(lib_a-ef_log.o)
                0x08010138                __ieee754_logf
 .text.copysign
                0x0801033c       0x24 C:\Users\itx\workspace\sdr\libs\libm.a(lib_a-s_copysign.o)
                0x0801033c                copysign
 .text.copysignf
                0x08010360       0x18 C:\Users\itx\workspace\sdr\libs\libm.a(lib_a-sf_copysign.o)
                0x08010360                copysignf
 .text          0x08010378      0x370 d:/armtc/armgcc/4.9 2015q3/bin/../lib/gcc/arm-none-eabi/4.9.3/armv7e-m/fpu\libgcc.a(_arm_addsubdf3.o)
                0x08010378                __aeabi_drsub
                0x08010380                __aeabi_dsub
                0x08010380                __subdf3
                0x08010384                __aeabi_dadd
                0x08010384                __adddf3
                0x080105fc                __floatunsidf
                0x080105fc                __aeabi_ui2d
                0x0801061c                __floatsidf
                0x0801061c                __aeabi_i2d
                0x08010640                __aeabi_f2d
                0x08010640                __extendsfdf2
                0x0801067c                __floatundidf
                0x0801067c                __aeabi_ul2d
                0x0801068c                __floatdidf
                0x0801068c                __aeabi_l2d
 .text          0x080106e8      0x424 d:/armtc/armgcc/4.9 2015q3/bin/../lib/gcc/arm-none-eabi/4.9.3/armv7e-m/fpu\libgcc.a(_arm_muldivdf3.o)
                0x080106e8                __aeabi_dmul
                0x080106e8                __muldf3
                0x0801093c                __divdf3
                0x0801093c                __aeabi_ddiv
 .text          0x08010b0c      0x110 d:/armtc/armgcc/4.9 2015q3/bin/../lib/gcc/arm-none-eabi/4.9.3/armv7e-m/fpu\libgcc.a(_arm_cmpdf2.o)
                0x08010b0c                __gtdf2
                0x08010b0c                __gedf2
                0x08010b14                __ltdf2
                0x08010b14                __ledf2
                0x08010b1c                __nedf2
                0x08010b1c                __eqdf2
                0x08010b1c                __cmpdf2
                0x08010b98                __aeabi_cdrcmple
                0x08010ba8                __aeabi_cdcmpeq
                0x08010ba8                __aeabi_cdcmple
                0x08010bb8                __aeabi_dcmpeq
                0x08010bcc                __aeabi_dcmplt
                0x08010be0                __aeabi_dcmple
                0x08010bf4                __aeabi_dcmpge
                0x08010c08                __aeabi_dcmpgt
 .text          0x08010c1c       0x40 d:/armtc/armgcc/4.9 2015q3/bin/../lib/gcc/arm-none-eabi/4.9.3/armv7e-m/fpu\libgcc.a(_arm_fixunsdfsi.o)
                0x08010c1c                __aeabi_d2uiz
                0x08010c1c                __fixunsdfsi
 .text          0x08010c5c       0xa0 d:/armtc/armgcc/4.9 2015q3/bin/../lib/gcc/arm-none-eabi/4.9.3/armv7e-m/fpu\libgcc.a(_arm_truncdfsf2.o)
                0x08010c5c                __truncdfsf2
                0x08010c5c                __aeabi_d2f
 .text.__errno  0x08010cfc        0xc d:/armtc/armgcc/4.9 2015q3/bin/../lib/gcc/arm-none-eabi/4.9.3/../../../../arm-none-eabi/lib/armv7e-m/fpu\libg_nano.a(lib_a-errno.o)
                0x08010cfc                __errno
 .text.malloc   0x08010d08       0x10 d:/armtc/armgcc/4.9 2015q3/bin/../lib/gcc/arm-none-eabi/4.9.3/../../../../arm-none-eabi/lib/armv7e-m/fpu\libg_nano.a(lib_a-malloc.o)
                0x08010d08                malloc
 .text.memcmp   0x08010d18       0x20 d:/armtc/armgcc/4.9 2015q3/bin/../lib/gcc/arm-none-eabi/4.9.3/../../../../arm-none-eabi/lib/armv7e-m/fpu\libg_nano.a(lib_a-memcmp.o)
                0x08010d18                memcmp
 .text.memset   0x08010d38       0x10 d:/armtc/armgcc/4.9 2015q3/bin/../lib/gcc/arm-none-eabi/4.9.3/../../../../arm-none-eabi/lib/armv7e-m/fpu\libg_nano.a(lib_a-memset.o)
                0x08010d38                memset
 .text._malloc_r
                0x08010d48       0xac d:/armtc/armgcc/4.9 2015q3/bin/../lib/gcc/arm-none-eabi/4.9.3/../../../../arm-none-eabi/lib/armv7e-m/fpu\libg_nano.a(lib_a-nano-mallocr.o)
                0x08010d48                _malloc_r
 .text._sbrk_r  0x08010df4       0x20 d:/armtc/armgcc/4.9 2015q3/bin/../lib/gcc/arm-none-eabi/4.9.3/../../../../arm-none-eabi/lib/armv7e-m/fpu\libg_nano.a(lib_a-sbrkr.o)
                0x08010df4                _sbrk_r
 .text.strcpy   0x08010e14       0x10 d:/armtc/armgcc/4.9 2015q3/bin/../lib/gcc/arm-none-eabi/4.9.3/../../../../arm-none-eabi/lib/armv7e-m/fpu\libg_nano.a(lib_a-strcpy.o)
                0x08010e14                strcpy
 .text.strlen   0x08010e24       0x10 d:/armtc/armgcc/4.9 2015q3/bin/../lib/gcc/arm-none-eabi/4.9.3/../../../../arm-none-eabi/lib/armv7e-m/fpu\libg_nano.a(lib_a-strlen.o)
                0x08010e24                strlen
 *(.rodata .rodata.* .constdata .constdata.*)
 .rodata.APBAHBPrescTable
                0x08010e34       0x10 ./system/src/stm32f4/stm32f4xx_rcc.o
                0x08010e34                APBAHBPrescTable
 .rodata.q_rx_3k6_coeffs_minus
                0x08010e44      0x164 ./src/ui/ui.o
                0x08010e44                q_rx_3k6_coeffs_minus
 .rodata.S_Meter_Cal
                0x08010fa8       0x84 ./src/ui/ui.o
                0x08010fa8                S_Meter_Cal
 .rodata.CSWTCH.55
                0x0801102c       0x14 ./src/ui/ui.o
 .rodata.q_rx_10k_coeffs_plus
                0x08011040      0x164 ./src/ui/ui.o
                0x08011040                q_rx_10k_coeffs_plus
 .rodata.iq_rx_am_2k3_coeffs
                0x080111a4      0x164 ./src/ui/ui.o
                0x080111a4                iq_rx_am_2k3_coeffs
 .rodata.q_rx_3k6_coeffs_plus
                0x08011308      0x164 ./src/ui/ui.o
                0x08011308                q_rx_3k6_coeffs_plus
 .rodata.iq_rx_am_3k6_coeffs
                0x0801146c      0x164 ./src/ui/ui.o
                0x0801146c                iq_rx_am_3k6_coeffs
 .rodata.q_rx_3k6_coeffs
                0x080115d0      0x164 ./src/ui/ui.o
                0x080115d0                q_rx_3k6_coeffs
 .rodata.waterfall_rainbow
                0x08011734       0x82 ./src/ui/ui.o
                0x08011734                waterfall_rainbow
 *fill*         0x080117b6        0x2 
 .rodata.CSWTCH.57
                0x080117b8       0x10 ./src/ui/ui.o
 .rodata.q_rx_10k_coeffs_minus
                0x080117c8      0x164 ./src/ui/ui.o
                0x080117c8                q_rx_10k_coeffs_minus
 .rodata.str1.4
                0x0801192c      0x1cb ./src/ui/ui.o
                                0x1d3 (size before relaxing)
 *fill*         0x08011af7        0x1 
 .rodata.i_rx_10k_coeffs
                0x08011af8      0x164 ./src/ui/ui.o
                0x08011af8                i_rx_10k_coeffs
 .rodata.tune_bands
                0x08011c5c       0x24 ./src/ui/ui.o
                0x08011c5c                tune_bands
 .rodata.tune_steps
                0x08011c80       0x18 ./src/ui/ui.o
                0x08011c80                tune_steps
 .rodata.CSWTCH.54
                0x08011c98       0x24 ./src/ui/ui.o
 .rodata.i_rx_3k6_coeffs
                0x08011cbc      0x164 ./src/ui/ui.o
                0x08011cbc                i_rx_3k6_coeffs
 .rodata.CSWTCH.56
                0x08011e20       0x14 ./src/ui/ui.o
 .rodata.q_rx_10k_coeffs
                0x08011e34      0x164 ./src/ui/ui.o
                0x08011e34                q_rx_10k_coeffs
 .rodata.iq_rx_am_10k_coeffs
                0x08011f98      0x164 ./src/ui/ui.o
                0x08011f98                iq_rx_am_10k_coeffs
 .rodata        0x080120fc       0x3c ./src/si570/ui_si570.o
 .rodata.hs_div
                0x08012138        0x6 ./src/si570/ui_si570.o
                0x08012138                hs_div
 *fill*         0x0801213e        0x2 
 .rodata.DMA_Flags_Bit_Pos
                0x08012140        0x4 ./src/ili9341/tm_stm32f4_dma.o
 .rodata.str1.4
                0x08012144       0xd9 ./src/hy28b/ui_lcd_hy28.o
 *fill*         0x0801221d        0x3 
 .rodata.GL_Font12x12
                0x08012220        0x8 ./src/hy28b/ui_lcd_hy28_fonts.o
                0x08012220                GL_Font12x12
 .rodata.GL_Font8x12_bold
                0x08012228        0x8 ./src/hy28b/ui_lcd_hy28_fonts.o
                0x08012228                GL_Font8x12_bold
 .rodata.GL_ASCII8x12_bold_Table
                0x08012230     0x1500 ./src/hy28b/ui_lcd_hy28_fonts.o
                0x08012230                GL_ASCII8x12_bold_Table
 .rodata.GL_Font16x24
                0x08013730        0x8 ./src/hy28b/ui_lcd_hy28_fonts.o
                0x08013730                GL_Font16x24
 .rodata.GL_Font8x12
                0x08013738        0x8 ./src/hy28b/ui_lcd_hy28_fonts.o
                0x08013738                GL_Font8x12
 .rodata.GL_ASCII16x24_Table
                0x08013740     0x11d0 ./src/hy28b/ui_lcd_hy28_fonts.o
                0x08013740                GL_ASCII16x24_Table
 .rodata.GL_ASCII8x12_Table
                0x08014910      0x900 ./src/hy28b/ui_lcd_hy28_fonts.o
                0x08014910                GL_ASCII8x12_Table
 .rodata.GL_Font8x8
                0x08015210        0x8 ./src/hy28b/ui_lcd_hy28_fonts.o
                0x08015210                GL_Font8x8
 .rodata.GL_ASCII12x12_Table
                0x08015218      0x900 ./src/hy28b/ui_lcd_hy28_fonts.o
                0x08015218                GL_ASCII12x12_Table
 .rodata.GL_ASCII8x8_Table
                0x08015b18      0x600 ./src/hy28b/ui_lcd_hy28_fonts.o
                0x08015b18                GL_ASCII8x8_Table
 .rodata.IIR_3k6_pvCoeffs
                0x08016118       0x2c ./src/codec/audio.o
                0x08016118                IIR_3k6_pvCoeffs
 .rodata.IIR_2k3_1k712_pkCoeffs
                0x08016144       0x28 ./src/codec/audio.o
                0x08016144                IIR_2k3_1k712_pkCoeffs
 .rodata.IIR_500hz_650_pkCoeffs
                0x0801616c       0x28 ./src/codec/audio.o
                0x0801616c                IIR_500hz_650_pkCoeffs
 .rodata.FirRxDecimateMinLPF
                0x08016194       0x10 ./src/codec/audio.o
                0x08016194                FirRxDecimateMinLPF
 .rodata.IIR_1k8_1k725_pkCoeffs
                0x080161a4       0x28 ./src/codec/audio.o
                0x080161a4                IIR_1k8_1k725_pkCoeffs
 .rodata.IIR_2k3_1k412_pvCoeffs
                0x080161cc       0x2c ./src/codec/audio.o
                0x080161cc                IIR_2k3_1k412_pvCoeffs
 .rodata.IIR_300hz_900_pkCoeffs
                0x080161f8       0x28 ./src/codec/audio.o
                0x080161f8                IIR_300hz_900_pkCoeffs
 .rodata.IIR_2k3_1k562_pkCoeffs
                0x08016220       0x28 ./src/codec/audio.o
                0x08016220                IIR_2k3_1k562_pkCoeffs
 .rodata.IIR_300hz_850_pvCoeffs
                0x08016248       0x2c ./src/codec/audio.o
                0x08016248                IIR_300hz_850_pvCoeffs
 .rodata.IIR_300hz_900_pvCoeffs
                0x08016274       0x2c ./src/codec/audio.o
                0x08016274                IIR_300hz_900_pvCoeffs
 .rodata.IIR_2k3_1k412_pkCoeffs
                0x080162a0       0x28 ./src/codec/audio.o
                0x080162a0                IIR_2k3_1k412_pkCoeffs
 .rodata.IIR_300hz_650_pvCoeffs
                0x080162c8       0x2c ./src/codec/audio.o
                0x080162c8                IIR_300hz_650_pvCoeffs
 .rodata.IIR_300hz_700_pvCoeffs
                0x080162f4       0x2c ./src/codec/audio.o
                0x080162f4                IIR_300hz_700_pvCoeffs
 .rodata.IIR_300hz_850_pkCoeffs
                0x08016320       0x28 ./src/codec/audio.o
                0x08016320                IIR_300hz_850_pkCoeffs
 .rodata.IIR_300hz_650_pkCoeffs
                0x08016348       0x28 ./src/codec/audio.o
                0x08016348                IIR_300hz_650_pkCoeffs
 .rodata.IIR_300hz_700_pkCoeffs
                0x08016370       0x28 ./src/codec/audio.o
                0x08016370                IIR_300hz_700_pkCoeffs
 .rodata.IIR_1k8_1k275_pvCoeffs
                0x08016398       0x2c ./src/codec/audio.o
                0x08016398                IIR_1k8_1k275_pvCoeffs
 .rodata.IIR_500hz_950_pkCoeffs
                0x080163c4       0x28 ./src/codec/audio.o
                0x080163c4                IIR_500hz_950_pkCoeffs
 .rodata.IIR_300hz_500_pkCoeffs
                0x080163ec       0x28 ./src/codec/audio.o
                0x080163ec                IIR_300hz_500_pkCoeffs
 .rodata.IIR_1k8_1k125_pvCoeffs
                0x08016414       0x2c ./src/codec/audio.o
                0x08016414                IIR_1k8_1k125_pvCoeffs
 .rodata.IIR_300hz_500_pvCoeffs
                0x08016440       0x2c ./src/codec/audio.o
                0x08016440                IIR_300hz_500_pvCoeffs
 .rodata.IIR_1k8_1k275_pkCoeffs
                0x0801646c       0x28 ./src/codec/audio.o
                0x0801646c                IIR_1k8_1k275_pkCoeffs
 .rodata.IIR_10k_pvCoeffs
                0x08016494       0x24 ./src/codec/audio.o
                0x08016494                IIR_10k_pvCoeffs
 .rodata.IIR_500hz_750_pkCoeffs
                0x080164b8       0x28 ./src/codec/audio.o
                0x080164b8                IIR_500hz_750_pkCoeffs
 .rodata.IIR_1k8_1k125_pkCoeffs
                0x080164e0       0x28 ./src/codec/audio.o
                0x080164e0                IIR_1k8_1k125_pkCoeffs
 .rodata.IIR_500hz_750_pvCoeffs
                0x08016508       0x2c ./src/codec/audio.o
                0x08016508                IIR_500hz_750_pvCoeffs
 .rodata.FirRxInterpolate
                0x08016534       0x40 ./src/codec/audio.o
                0x08016534                FirRxInterpolate
 .rodata.IIR_2k3_1k275_pkCoeffs
                0x08016574       0x28 ./src/codec/audio.o
                0x08016574                IIR_2k3_1k275_pkCoeffs
 .rodata.IIR_2k3_1k562_pvCoeffs
                0x0801659c       0x2c ./src/codec/audio.o
                0x0801659c                IIR_2k3_1k562_pvCoeffs
 .rodata.IIR_500hz_550_pvCoeffs
                0x080165c8       0x2c ./src/codec/audio.o
                0x080165c8                IIR_500hz_550_pvCoeffs
 .rodata.FirRxInterpolate10KHZ
                0x080165f4       0x40 ./src/codec/audio.o
                0x080165f4                FirRxInterpolate10KHZ
 .rodata.IIR_2k3_1k275_pvCoeffs
                0x08016634       0x2c ./src/codec/audio.o
                0x08016634                IIR_2k3_1k275_pvCoeffs
 .rodata.IIR_1k8_1k575_pvCoeffs
                0x08016660       0x2c ./src/codec/audio.o
                0x08016660                IIR_1k8_1k575_pvCoeffs
 .rodata.IIR_3k6_pkCoeffs
                0x0801668c       0x28 ./src/codec/audio.o
                0x0801668c                IIR_3k6_pkCoeffs
 .rodata.IIR_300hz_950_pvCoeffs
                0x080166b4       0x2c ./src/codec/audio.o
                0x080166b4                IIR_300hz_950_pvCoeffs
 .rodata.IIR_500hz_550_pkCoeffs
                0x080166e0       0x28 ./src/codec/audio.o
                0x080166e0                IIR_500hz_550_pkCoeffs
 .rodata.FirRxDecimate
                0x08016708       0x10 ./src/codec/audio.o
                0x08016708                FirRxDecimate
 .rodata.IIR_300hz_800_pvCoeffs
                0x08016718       0x2c ./src/codec/audio.o
                0x08016718                IIR_300hz_800_pvCoeffs
 .rodata.IIR_1k8_1k575_pkCoeffs
                0x08016744       0x28 ./src/codec/audio.o
                0x08016744                IIR_1k8_1k575_pkCoeffs
 .rodata.IIR_300hz_950_pkCoeffs
                0x0801676c       0x28 ./src/codec/audio.o
                0x0801676c                IIR_300hz_950_pkCoeffs
 .rodata.IIR_300hz_800_pkCoeffs
                0x08016794       0x28 ./src/codec/audio.o
                0x08016794                IIR_300hz_800_pkCoeffs
 .rodata.IIR_300hz_750_pkCoeffs
                0x080167bc       0x28 ./src/codec/audio.o
                0x080167bc                IIR_300hz_750_pkCoeffs
 .rodata.IIR_1k8_1k425_pvCoeffs
                0x080167e4       0x2c ./src/codec/audio.o
                0x080167e4                IIR_1k8_1k425_pvCoeffs
 .rodata.IIR_500hz_950_pvCoeffs
                0x08016810       0x2c ./src/codec/audio.o
                0x08016810                IIR_500hz_950_pvCoeffs
 .rodata.IIR_300hz_750_pvCoeffs
                0x0801683c       0x2c ./src/codec/audio.o
                0x0801683c                IIR_300hz_750_pvCoeffs
 .rodata.IIR_300hz_550_pvCoeffs
                0x08016868       0x2c ./src/codec/audio.o
                0x08016868                IIR_300hz_550_pvCoeffs
 .rodata.IIR_300hz_600_pvCoeffs
                0x08016894       0x2c ./src/codec/audio.o
                0x08016894                IIR_300hz_600_pvCoeffs
 .rodata.IIR_1k8_1k425_pkCoeffs
                0x080168c0       0x28 ./src/codec/audio.o
                0x080168c0                IIR_1k8_1k425_pkCoeffs
 .rodata.IIR_500hz_850_pkCoeffs
                0x080168e8       0x28 ./src/codec/audio.o
                0x080168e8                IIR_500hz_850_pkCoeffs
 .rodata.IIR_300hz_550_pkCoeffs
                0x08016910       0x28 ./src/codec/audio.o
                0x08016910                IIR_300hz_550_pkCoeffs
 .rodata.IIR_300hz_600_pkCoeffs
                0x08016938       0x28 ./src/codec/audio.o
                0x08016938                IIR_300hz_600_pkCoeffs
 .rodata.IIR_500hz_850_pvCoeffs
                0x08016960       0x2c ./src/codec/audio.o
                0x08016960                IIR_500hz_850_pvCoeffs
 .rodata.IIR_2k3_1k712_pvCoeffs
                0x0801698c       0x2c ./src/codec/audio.o
                0x0801698c                IIR_2k3_1k712_pvCoeffs
 .rodata.IIR_500hz_650_pvCoeffs
                0x080169b8       0x2c ./src/codec/audio.o
                0x080169b8                IIR_500hz_650_pvCoeffs
 .rodata.IIR_10k_pkCoeffs
                0x080169e4       0x20 ./src/codec/audio.o
                0x080169e4                IIR_10k_pkCoeffs
 .rodata.IIR_1k8_1k725_pvCoeffs
                0x08016a04       0x2c ./src/codec/audio.o
                0x08016a04                IIR_1k8_1k725_pvCoeffs
 .rodata.str1.4
                0x08016a30       0x86 ./src/main.o
 *fill*         0x08016ab6        0x2 
 .rodata        0x08016ab8     0x4000 C:\Users\itx\workspace\sdr\libs\libarm_cortexM4lf_math.a(arm_rfft_init_f32.o)
 .rodata        0x0801aab8     0x2000 C:\Users\itx\workspace\sdr\libs\libarm_cortexM4lf_math.a(arm_cfft_radix4_init_f32.o)
 .rodata        0x0801cab8      0x40c C:\Users\itx\workspace\sdr\libs\libarm_cortexM4lf_math.a(arm_sin_f32.o)
 .rodata        0x0801cec4      0x40c C:\Users\itx\workspace\sdr\libs\libarm_cortexM4lf_math.a(arm_cos_f32.o)
 .rodata        0x0801d2d0      0x380 C:\Users\itx\workspace\sdr\libs\libarm_cortexM4lf_math.a(arm_common_tables.o)
                0x0801d2d0                armRecipTableQ31
                0x0801d3d0                armRecipTableQ15
                0x0801d450                armBitRevTable
 .rodata.str1.4
                0x0801d650        0x6 C:\Users\itx\workspace\sdr\libs\libm.a(lib_a-w_log10.o)
                                  0xc (size before relaxing)
 *fill*         0x0801d656        0x2 
 .rodata.str1.4
                0x0801d658        0x4 C:\Users\itx\workspace\sdr\libs\libm.a(lib_a-w_pow.o)
 .rodata.str1.4
                0x0801d65c        0x5 C:\Users\itx\workspace\sdr\libs\libm.a(lib_a-w_sqrt.o)
                                  0x8 (size before relaxing)
 *fill*         0x0801d661        0x3 
 .rodata.str1.4
                0x0801d664        0x7 C:\Users\itx\workspace\sdr\libs\libm.a(lib_a-wf_log10.o)
                                  0xc (size before relaxing)
 *fill*         0x0801d66b        0x1 
 .rodata.str1.4
                0x0801d66c        0x5 C:\Users\itx\workspace\sdr\libs\libm.a(lib_a-wf_pow.o)
                                  0x8 (size before relaxing)
 *fill*         0x0801d671        0x3 
 .rodata.str1.4
                0x0801d674        0x8 C:\Users\itx\workspace\sdr\libs\libm.a(lib_a-wf_sqrt.o)
 *fill*         0x0801d67c        0x4 
 .rodata.dp_h   0x0801d680       0x10 C:\Users\itx\workspace\sdr\libs\libm.a(lib_a-e_pow.o)
 .rodata.dp_l   0x0801d690       0x10 C:\Users\itx\workspace\sdr\libs\libm.a(lib_a-e_pow.o)
 .rodata.bp     0x0801d6a0       0x10 C:\Users\itx\workspace\sdr\libs\libm.a(lib_a-e_pow.o)
 .rodata.str1.4
                0x00000000        0x4 C:\Users\itx\workspace\sdr\libs\libm.a(lib_a-e_pow.o)
 .rodata.dp_h   0x0801d6b0        0x8 C:\Users\itx\workspace\sdr\libs\libm.a(lib_a-ef_pow.o)
 .rodata.dp_l   0x0801d6b8        0x8 C:\Users\itx\workspace\sdr\libs\libm.a(lib_a-ef_pow.o)
 .rodata.bp     0x0801d6c0        0x8 C:\Users\itx\workspace\sdr\libs\libm.a(lib_a-ef_pow.o)
 .rodata.str1.4
                0x00000000        0x4 C:\Users\itx\workspace\sdr\libs\libm.a(lib_a-ef_pow.o)
 .rodata.TWO52  0x0801d6c8       0x10 C:\Users\itx\workspace\sdr\libs\libm.a(lib_a-s_rint.o)
 *(vtable)
 *(.eh_frame*)
 *(.glue_7)
 .glue_7        0x00000000        0x0 linker stubs
 *(.glue_7t)
 .glue_7t       0x00000000        0x0 linker stubs

.vfp11_veneer   0x0801d6d8        0x0
 .vfp11_veneer  0x00000000        0x0 linker stubs

.v4_bx          0x0801d6d8        0x0
 .v4_bx         0x00000000        0x0 linker stubs

.iplt           0x0801d6d8        0x0
 .iplt          0x00000000        0x0 ./system/src/stm32f4/misc.o

.rel.dyn        0x0801d6d8        0x0
 .rel.iplt      0x00000000        0x0 ./system/src/stm32f4/misc.o

.ARM.extab
 *(.ARM.extab* .gnu.linkonce.armextab.*)
                0x0801d6d8                . = ALIGN (0x4)
                0x0801d6d8                __exidx_start = .

.ARM.exidx
 *(.ARM.exidx* .gnu.linkonce.armexidx.*)
                0x0801d6d8                __exidx_end = .
                0x0801d6d8                . = ALIGN (0x4)
                0x0801d6d8                _etext = .
                0x0801d6d8                __etext = .

.data_CCMRAM    0x10000000        0x0 load address 0x0801d6d8
 FILL mask 0xff
 *(.data.CCMRAM .data.CCMRAM.*)
                0x10000000                . = ALIGN (0x4)
                0x0801d6d8                _sidata = LOADADDR (.data)

.data           0x20000000      0x468 load address 0x0801d6d8
 FILL mask 0xff
                0x20000000                _sdata = .
                0x20000000                __data_start__ = .
 *(.data_begin .data_begin.*)
 .data_begin    0x20000000        0x4 ./system/src/newlib/_startup.o
 *(.data .data.*)
 .data.argv.4161
                0x20000004        0x8 ./system/src/newlib/_syscalls.o
 .data.AHBPrescTable
                0x2000000c       0x10 ./system/src/cmsis/system_stm32f4xx.o
                0x2000000c                AHBPrescTable
 .data.SystemCoreClock
                0x2000001c        0x4 ./system/src/cmsis/system_stm32f4xx.o
                0x2000001c                SystemCoreClock
 .data.auto_rfg.11131
                0x20000020        0x4 ./src/ui/ui.o
 .data._impure_ptr
                0x20000024        0x4 ./src/stdio/printf.o
                0x20000024                _impure_ptr
 .data.r        0x20000028      0x428 ./src/stdio/printf.o
                0x20000028                r
 .data.I2C1_Timeout
                0x20000450        0x4 ./src/i2c/mchf_hw_i2c.o
                0x20000450                I2C1_Timeout
 .data.delbuf_outptr.10984
                0x20000454        0x1 ./src/codec/audio.o
 *fill*         0x20000455        0x3 
 .data.CODECTimeout
                0x20000458        0x4 ./src/codec/codec.o
                0x20000458                CODECTimeout
 .data.dwt_cyccnt
                0x2000045c        0x4 ./src/codec/cyclesleep.o
                0x2000045c                dwt_cyccnt
 .data.__fdlib_version
                0x20000460        0x1 C:\Users\itx\workspace\sdr\libs\libm.a(lib_a-s_lib_ver.o)
                0x20000460                __fdlib_version
 *(.data_end .data_end.*)
 *fill*         0x20000461        0x3 
 .data_end      0x20000464        0x4 ./system/src/newlib/_startup.o
                0x20000468                . = ALIGN (0x4)
                0x20000468                _edata = .
                0x20000468                __data_end__ = .

.igot.plt       0x20000468        0x0 load address 0x0801db40
 .igot.plt      0x00000000        0x0 ./system/src/stm32f4/misc.o

.bss_CCMRAM     0x10000000        0x0
 *(.bss.CCMRAM .bss.CCMRAM.*)

.bss            0x20000468    0x1381c
                0x20000468                __bss_start__ = .
                0x20000468                _sbss = .
 *(.bss_begin .bss_begin.*)
 .bss_begin     0x20000468        0x4 ./system/src/newlib/_startup.o
 *(.bss .bss.*)
 .bss.current_heap_end.3862
                0x2000046c        0x4 ./system/src/newlib/_sbrk.o
 .bss.name.4160
                0x20000470        0x1 ./system/src/newlib/_syscalls.o
 *fill*         0x20000471        0x1 
 .bss.rfg_timer.11132
                0x20000472        0x2 ./src/ui/ui.o
 .bss.step_line.11381
                0x20000474        0x4 ./src/ui/ui.o
 .bss.clip_indicate.11130
                0x20000478        0x4 ./src/ui/ui.o
 .bss.FirState_I
                0x2000047c      0x200 ./src/ui/ui.o
 .bss.FirState_Q
                0x2000067c      0x200 ./src/ui/ui.o
 .bss.GPIO_UsedPins
                0x2000087c       0x16 ./src/ili9341/tm_stm32f4_gpio.o
 .bss.nb_delay.10988
                0x20000892        0x1 ./src/codec/audio.o
 *fill*         0x20000893        0x1 
 .bss.agc_delay_inbuf.10999
                0x20000894        0x4 ./src/codec/audio.o
 .bss.agc_var.10997
                0x20000898        0x4 ./src/codec/audio.o
 .bss.flag.11010
                0x2000089c        0x4 ./src/codec/audio.o
 .bss.INTERPOLATE_RX
                0x200008a0        0xc ./src/codec/audio.o
 .bss.lms1_inbuf.11030
                0x200008ac        0x4 ./src/codec/audio.o
 .bss.iir_rx_state
                0x200008b0       0xc0 ./src/codec/audio.o
 .bss.lcd_dim_prescale.11075
                0x20000970        0x1 ./src/codec/audio.o
 .bss.delbuf_inptr.10983
                0x20000971        0x1 ./src/codec/audio.o
 .bss.lcd_dim.11074
                0x20000972        0x1 ./src/codec/audio.o
 *fill*         0x20000973        0x1 
 .bss.agc_delay_outbuf.11000
                0x20000974        0x4 ./src/codec/audio.o
 .bss.nb_agc.10989
                0x20000978        0x4 ./src/codec/audio.o
 .bss.max_signal.11021
                0x2000097c        0x4 ./src/codec/audio.o
 .bss.agc_calc.10996
                0x20000980        0x4 ./src/codec/audio.o
 .bss.lms1_outbuf.11031
                0x20000984        0x4 ./src/codec/audio.o
 .bss.lms2_outbuf.11033
                0x20000988        0x4 ./src/codec/audio.o
 .bss.lms2_inbuf.11032
                0x2000098c        0x4 ./src/codec/audio.o
 .bss.IIR_PreFilter
                0x20000990       0x10 ./src/codec/audio.o
 .bss.i.10998   0x200009a0        0x4 ./src/codec/audio.o
 .bss.DECIMATE_RX
                0x200009a4        0xc ./src/codec/audio.o
 .bss.delay_buf.10982
                0x200009b0       0x44 ./src/codec/audio.o
 .bss.Buttons   0x200009f4       0x2c ./src/button/tm_stm32f4_button.o
 .bss.CustomTimers
                0x20000a20       0x18 ./src/button/tm_stm32f4_delay.o
 .bss.TM_DELAY_Initialized
                0x20000a38        0x1 ./src/button/tm_stm32f4_delay.o
                0x20000a38                TM_DELAY_Initialized
 *fill*         0x20000a39        0x3 
 .bss.TM_Time   0x20000a3c        0x4 ./src/button/tm_stm32f4_delay.o
                0x20000a3c                TM_Time
 .bss.TM_Time2  0x20000a40        0x4 ./src/button/tm_stm32f4_delay.o
                0x20000a40                TM_Time2
 .bss.__malloc_sbrk_start
                0x20000a44        0x4 d:/armtc/armgcc/4.9 2015q3/bin/../lib/gcc/arm-none-eabi/4.9.3/../../../../arm-none-eabi/lib/armv7e-m/fpu\libg_nano.a(lib_a-nano-mallocr.o)
                0x20000a44                __malloc_sbrk_start
 .bss.__malloc_free_list
                0x20000a48        0x4 d:/armtc/armgcc/4.9 2015q3/bin/../lib/gcc/arm-none-eabi/4.9.3/../../../../arm-none-eabi/lib/armv7e-m/fpu\libg_nano.a(lib_a-nano-mallocr.o)
                0x20000a48                __malloc_free_list
 *(COMMON)
 COMMON         0x20000a4c        0x4 ./system/src/newlib/_syscalls.o
                0x20000a4c                errno
 COMMON         0x20000a50       0x84 ./src/ui/ui.o
                0x20000a50                band_decod_mode
                0x20000a78                band_filter_mode
                0x20000aa0                band_dial_value
                0x20000ac8                ews
 *fill*         0x20000ad4        0x4 
 COMMON         0x20000ad8       0x22 ./src/si570/ui_si570.o
                0x20000ad8                os
                0x20000af8                si570_address
 *fill*         0x20000afa        0x2 
 COMMON         0x20000afc       0xae ./src/hy28b/ui_lcd_hy28.o
                0x20000afc                ts
                0x20000ba4                lcd_cs_pio
                0x20000ba8                lcd_cs
 *fill*         0x20000baa        0x2 
 COMMON         0x20000bac    0x129e8 ./src/codec/audio.o
                0x20000bac                FIR_A
                0x20000bb8                right_buffer
                0x20000bf8                left_buffer
                0x20000c38                osc_i
                0x20000d38                lms1StateF32
                0x20001038                lms2StateF32
                0x20001338                lms1_instance
                0x20001348                errsig2
                0x2000144c                lms2_nr_delay
                0x2000248c                interpState
                0x2000254c                mono_buffer
                0x2000258c                errsig1
                0x20002690                FIR_Q
                0x2000269c                lms1NormCoeff_f32
                0x2000299c                lms2NormCoeff_f32
                0x20002c9c                osc_q
                0x20002d9c                sd
                0x20011a90                result
                0x20011b94                agc_delay
                0x200120d4                lms1Norm_instance
                0x200120ec                FIR_I
                0x200120f8                decimState
                0x200121b8                sm
                0x200121cc                lms1_nr_delay
                0x20012a0c                firState_A
                0x20012acc                lms2Norm_instance
                0x20012ae4                ads
                0x20013584                lms2_instance
 COMMON         0x20013594       0x10 ./src/codec/cyclesleep.o
                0x20013594                tot_cyc
                0x20013598                s_tot
                0x2001359c                DelayCyc1s
                0x200135a0                act_cyc
 COMMON         0x200135a4       0x84 ./src/codec/i2s.o
                0x200135a4                rxbuf
                0x200135a8                DMA_InitStructure2
                0x200135e4                szbuf
                0x200135e8                DMA_InitStructure
                0x20013624                txbuf
 COMMON         0x20013628        0x4 ./src/button/tm_stm32f4_delay.o
                0x20013628                mult
 COMMON         0x2001362c      0x654 ./src/main.o
                0x2001362c                rx_buffer
                0x2001372c                tx_buffer
                0x2001382c                df
                0x20013870                fc
 *(.bss_end .bss_end.*)
 .bss_end       0x20013c80        0x4 ./system/src/newlib/_startup.o
                0x20013c84                . = ALIGN (0x4)
                0x20013c84                __bss_end__ = .
                0x20013c84                _ebss = .

.noinit_CCMRAM
 *(.noinit.CCMRAM .noinit.CCMRAM.*)

.noinit         0x20013c84        0x0
                0x20013c84                _noinit = .
 *(.noinit .noinit.*)
                0x20013c84                . = ALIGN (0x4)
                0x20013c84                _end_noinit = .
                0x20013c84                PROVIDE (end, _end_noinit)
                0x20013c84                PROVIDE (_end, _end_noinit)
                0x20013c84                PROVIDE (__end, _end_noinit)
                0x20013c84                PROVIDE (__end__, _end_noinit)

._check_stack   0x20013c84      0x100
                0x20013d84                . = (. + _Minimum_Stack_Size)
 *fill*         0x20013c84      0x100 

.b1text
 *(.b1text)
 *(.b1rodata)
 *(.b1rodata.*)

.eb0text
 *(.eb0text)
 *(.eb0rodata)
 *(.eb0rodata.*)

.eb1text
 *(.eb1text)
 *(.eb1rodata)
 *(.eb1rodata.*)

.eb2text
 *(.eb2text)
 *(.eb2rodata)
 *(.eb2rodata.*)

.eb3text
 *(.eb3text)
 *(.eb3rodata)
 *(.eb3rodata.*)

.stab
 *(.stab)

.stabstr
 *(.stabstr)

.stab.excl
 *(.stab.excl)

.stab.exclstr
 *(.stab.exclstr)

.stab.index
 *(.stab.index)

.stab.indexstr
 *(.stab.indexstr)

.comment        0x00000000       0xa0
 *(.comment)
 .comment       0x00000000       0x70 ./system/src/stm32f4/stm32f4xx_dma.o
                                 0x71 (size before relaxing)
 .comment       0x00000000       0x71 ./system/src/stm32f4/stm32f4xx_gpio.o
 .comment       0x00000000       0x71 ./system/src/stm32f4/stm32f4xx_i2c.o
 .comment       0x00000000       0x71 ./system/src/stm32f4/stm32f4xx_rcc.o
 .comment       0x00000000       0x71 ./system/src/stm32f4/stm32f4xx_spi.o
 .comment       0x00000000       0x71 ./system/src/stm32f4/stm32f4xx_tim.o
 .comment       0x00000000       0x71 ./system/src/newlib/_exit.o
 .comment       0x00000000       0x71 ./system/src/newlib/_sbrk.o
 .comment       0x00000000       0x71 ./system/src/newlib/_startup.o
 .comment       0x00000000       0x71 ./system/src/newlib/_syscalls.o
 .comment       0x00000000       0x71 ./system/src/cortexm/_initialize_hardware.o
 .comment       0x00000000       0x71 ./system/src/cortexm/_reset_hardware.o
 .comment       0x00000000       0x71 ./system/src/cortexm/exception_handlers.o
 .comment       0x00000000       0x71 ./system/src/cmsis/system_stm32f4xx.o
 .comment       0x00000000       0x71 ./system/src/cmsis/vectors_stm32f407xx.o
 .comment       0x00000000       0x71 ./src/ui/ui.o
 .comment       0x00000000       0x71 ./src/stdio/printf.o
 .comment       0x00000000       0x71 ./src/si570/ui_si570.o
 .comment       0x00000000       0x71 ./src/ili9341/tm_stm32f4_dma.o
 .comment       0x00000000       0x71 ./src/ili9341/tm_stm32f4_gpio.o
 .comment       0x00000000       0x71 ./src/i2c/mchf_hw_i2c.o
 .comment       0x00000000       0x71 ./src/hy28b/ui_lcd_hy28.o
 .comment       0x00000000       0x71 ./src/hy28b/ui_lcd_hy28_fonts.o
 .comment       0x00000000       0x71 ./src/encoder/ui_rotary.o
 .comment       0x00000000       0x71 ./src/codec/audio.o
 .comment       0x00000000       0x71 ./src/codec/codec.o
 .comment       0x00000000       0x71 ./src/codec/cyclesleep.o
 .comment       0x00000000       0x71 ./src/codec/i2s.o
 .comment       0x00000000       0x71 ./src/button/tm_stm32f4_button.o
 .comment       0x00000000       0x71 ./src/button/tm_stm32f4_delay.o
 .comment       0x00000000       0x71 ./src/main.o
 .comment       0x00000070       0x30 C:\Users\itx\workspace\sdr\libs\libarm_cortexM4lf_math.a(arm_copy_q15.o)
                                 0x31 (size before relaxing)
 .comment       0x00000000       0x31 C:\Users\itx\workspace\sdr\libs\libarm_cortexM4lf_math.a(arm_copy_f32.o)
 .comment       0x00000000       0x31 C:\Users\itx\workspace\sdr\libs\libarm_cortexM4lf_math.a(arm_min_q15.o)
 .comment       0x00000000       0x31 C:\Users\itx\workspace\sdr\libs\libarm_cortexM4lf_math.a(arm_min_f32.o)
 .comment       0x00000000       0x31 C:\Users\itx\workspace\sdr\libs\libarm_cortexM4lf_math.a(arm_mean_q15.o)
 .comment       0x00000000       0x31 C:\Users\itx\workspace\sdr\libs\libarm_cortexM4lf_math.a(arm_mean_f32.o)
 .comment       0x00000000       0x31 C:\Users\itx\workspace\sdr\libs\libarm_cortexM4lf_math.a(arm_max_q15.o)
 .comment       0x00000000       0x31 C:\Users\itx\workspace\sdr\libs\libarm_cortexM4lf_math.a(arm_max_f32.o)
 .comment       0x00000000       0x31 C:\Users\itx\workspace\sdr\libs\libarm_cortexM4lf_math.a(arm_rfft_init_f32.o)
 .comment       0x00000000       0x31 C:\Users\itx\workspace\sdr\libs\libarm_cortexM4lf_math.a(arm_rfft_f32.o)
 .comment       0x00000000       0x31 C:\Users\itx\workspace\sdr\libs\libarm_cortexM4lf_math.a(arm_cfft_radix4_init_f32.o)
 .comment       0x00000000       0x31 C:\Users\itx\workspace\sdr\libs\libarm_cortexM4lf_math.a(arm_cfft_radix4_f32.o)
 .comment       0x00000000       0x31 C:\Users\itx\workspace\sdr\libs\libarm_cortexM4lf_math.a(arm_lms_norm_init_f32.o)
 .comment       0x00000000       0x31 C:\Users\itx\workspace\sdr\libs\libarm_cortexM4lf_math.a(arm_lms_norm_f32.o)
 .comment       0x00000000       0x31 C:\Users\itx\workspace\sdr\libs\libarm_cortexM4lf_math.a(arm_iir_lattice_f32.o)
 .comment       0x00000000       0x31 C:\Users\itx\workspace\sdr\libs\libarm_cortexM4lf_math.a(arm_fir_interpolate_f32.o)
 .comment       0x00000000       0x31 C:\Users\itx\workspace\sdr\libs\libarm_cortexM4lf_math.a(arm_fir_init_f32.o)
 .comment       0x00000000       0x31 C:\Users\itx\workspace\sdr\libs\libarm_cortexM4lf_math.a(arm_fir_f32.o)
 .comment       0x00000000       0x31 C:\Users\itx\workspace\sdr\libs\libarm_cortexM4lf_math.a(arm_fir_decimate_f32.o)
 .comment       0x00000000       0x31 C:\Users\itx\workspace\sdr\libs\libarm_cortexM4lf_math.a(arm_cmplx_mag_f32.o)
 .comment       0x00000000       0x31 C:\Users\itx\workspace\sdr\libs\libarm_cortexM4lf_math.a(arm_sin_f32.o)
 .comment       0x00000000       0x31 C:\Users\itx\workspace\sdr\libs\libarm_cortexM4lf_math.a(arm_cos_f32.o)
 .comment       0x00000000       0x31 C:\Users\itx\workspace\sdr\libs\libarm_cortexM4lf_math.a(arm_sub_f32.o)
 .comment       0x00000000       0x31 C:\Users\itx\workspace\sdr\libs\libarm_cortexM4lf_math.a(arm_scale_f32.o)
 .comment       0x00000000       0x31 C:\Users\itx\workspace\sdr\libs\libarm_cortexM4lf_math.a(arm_mult_f32.o)
 .comment       0x00000000       0x31 C:\Users\itx\workspace\sdr\libs\libarm_cortexM4lf_math.a(arm_add_f32.o)
 .comment       0x00000000       0x31 C:\Users\itx\workspace\sdr\libs\libarm_cortexM4lf_math.a(arm_common_tables.o)

.ARM.attributes
                0x00000000       0x3b
 .ARM.attributes
                0x00000000       0x39 ./system/src/stm32f4/stm32f4xx_dma.o
 .ARM.attributes
                0x00000039       0x39 ./system/src/stm32f4/stm32f4xx_gpio.o
 .ARM.attributes
                0x00000072       0x39 ./system/src/stm32f4/stm32f4xx_i2c.o
 .ARM.attributes
                0x000000ab       0x39 ./system/src/stm32f4/stm32f4xx_rcc.o
 .ARM.attributes
                0x000000e4       0x39 ./system/src/stm32f4/stm32f4xx_spi.o
 .ARM.attributes
                0x0000011d       0x39 ./system/src/stm32f4/stm32f4xx_tim.o
 .ARM.attributes
                0x00000156       0x39 ./system/src/newlib/_exit.o
 .ARM.attributes
                0x0000018f       0x39 ./system/src/newlib/_sbrk.o
 .ARM.attributes
                0x000001c8       0x39 ./system/src/newlib/_startup.o
 .ARM.attributes
                0x00000201       0x39 ./system/src/newlib/_syscalls.o
 .ARM.attributes
                0x0000023a       0x39 ./system/src/cortexm/_initialize_hardware.o
 .ARM.attributes
                0x00000273       0x39 ./system/src/cortexm/_reset_hardware.o
 .ARM.attributes
                0x000002ac       0x39 ./system/src/cortexm/exception_handlers.o
 .ARM.attributes
                0x000002e5       0x39 ./system/src/cmsis/system_stm32f4xx.o
 .ARM.attributes
                0x0000031e       0x39 ./system/src/cmsis/vectors_stm32f407xx.o
 .ARM.attributes
                0x00000357       0x39 ./src/ui/ui.o
 .ARM.attributes
                0x00000390       0x39 ./src/stdio/printf.o
 .ARM.attributes
                0x000003c9       0x39 ./src/si570/ui_si570.o
 .ARM.attributes
                0x00000402       0x39 ./src/ili9341/tm_stm32f4_dma.o
 .ARM.attributes
                0x0000043b       0x39 ./src/ili9341/tm_stm32f4_gpio.o
 .ARM.attributes
                0x00000474       0x39 ./src/i2c/mchf_hw_i2c.o
 .ARM.attributes
                0x000004ad       0x39 ./src/hy28b/ui_lcd_hy28.o
 .ARM.attributes
                0x000004e6       0x39 ./src/hy28b/ui_lcd_hy28_fonts.o
 .ARM.attributes
                0x0000051f       0x39 ./src/encoder/ui_rotary.o
 .ARM.attributes
                0x00000558       0x39 ./src/codec/audio.o
 .ARM.attributes
                0x00000591       0x39 ./src/codec/codec.o
 .ARM.attributes
                0x000005ca       0x39 ./src/codec/cyclesleep.o
 .ARM.attributes
                0x00000603       0x39 ./src/codec/i2s.o
 .ARM.attributes
                0x0000063c       0x39 ./src/button/tm_stm32f4_button.o
 .ARM.attributes
                0x00000675       0x39 ./src/button/tm_stm32f4_delay.o
 .ARM.attributes
                0x000006ae       0x39 ./src/main.o
 .ARM.attributes
                0x000006e7       0x3b C:\Users\itx\workspace\sdr\libs\libarm_cortexM4lf_math.a(arm_copy_q15.o)
 .ARM.attributes
                0x00000722       0x3b C:\Users\itx\workspace\sdr\libs\libarm_cortexM4lf_math.a(arm_copy_f32.o)
 .ARM.attributes
                0x0000075d       0x3b C:\Users\itx\workspace\sdr\libs\libarm_cortexM4lf_math.a(arm_min_q15.o)
 .ARM.attributes
                0x00000798       0x3b C:\Users\itx\workspace\sdr\libs\libarm_cortexM4lf_math.a(arm_min_f32.o)
 .ARM.attributes
                0x000007d3       0x3b C:\Users\itx\workspace\sdr\libs\libarm_cortexM4lf_math.a(arm_mean_q15.o)
 .ARM.attributes
                0x0000080e       0x3b C:\Users\itx\workspace\sdr\libs\libarm_cortexM4lf_math.a(arm_mean_f32.o)
 .ARM.attributes
                0x00000849       0x3b C:\Users\itx\workspace\sdr\libs\libarm_cortexM4lf_math.a(arm_max_q15.o)
 .ARM.attributes
                0x00000884       0x3b C:\Users\itx\workspace\sdr\libs\libarm_cortexM4lf_math.a(arm_max_f32.o)
 .ARM.attributes
                0x000008bf       0x3b C:\Users\itx\workspace\sdr\libs\libarm_cortexM4lf_math.a(arm_rfft_init_f32.o)
 .ARM.attributes
                0x000008fa       0x3b C:\Users\itx\workspace\sdr\libs\libarm_cortexM4lf_math.a(arm_rfft_f32.o)
 .ARM.attributes
                0x00000935       0x3b C:\Users\itx\workspace\sdr\libs\libarm_cortexM4lf_math.a(arm_cfft_radix4_init_f32.o)
 .ARM.attributes
                0x00000970       0x3b C:\Users\itx\workspace\sdr\libs\libarm_cortexM4lf_math.a(arm_cfft_radix4_f32.o)
 .ARM.attributes
                0x000009ab       0x3b C:\Users\itx\workspace\sdr\libs\libarm_cortexM4lf_math.a(arm_lms_norm_init_f32.o)
 .ARM.attributes
                0x000009e6       0x3b C:\Users\itx\workspace\sdr\libs\libarm_cortexM4lf_math.a(arm_lms_norm_f32.o)
 .ARM.attributes
                0x00000a21       0x3b C:\Users\itx\workspace\sdr\libs\libarm_cortexM4lf_math.a(arm_iir_lattice_f32.o)
 .ARM.attributes
                0x00000a5c       0x3b C:\Users\itx\workspace\sdr\libs\libarm_cortexM4lf_math.a(arm_fir_interpolate_f32.o)
 .ARM.attributes
                0x00000a97       0x3b C:\Users\itx\workspace\sdr\libs\libarm_cortexM4lf_math.a(arm_fir_init_f32.o)
 .ARM.attributes
                0x00000ad2       0x3b C:\Users\itx\workspace\sdr\libs\libarm_cortexM4lf_math.a(arm_fir_f32.o)
 .ARM.attributes
                0x00000b0d       0x3b C:\Users\itx\workspace\sdr\libs\libarm_cortexM4lf_math.a(arm_fir_decimate_f32.o)
 .ARM.attributes
                0x00000b48       0x3b C:\Users\itx\workspace\sdr\libs\libarm_cortexM4lf_math.a(arm_cmplx_mag_f32.o)
 .ARM.attributes
                0x00000b83       0x3b C:\Users\itx\workspace\sdr\libs\libarm_cortexM4lf_math.a(arm_sin_f32.o)
 .ARM.attributes
                0x00000bbe       0x3b C:\Users\itx\workspace\sdr\libs\libarm_cortexM4lf_math.a(arm_cos_f32.o)
 .ARM.attributes
                0x00000bf9       0x3b C:\Users\itx\workspace\sdr\libs\libarm_cortexM4lf_math.a(arm_sub_f32.o)
 .ARM.attributes
                0x00000c34       0x3b C:\Users\itx\workspace\sdr\libs\libarm_cortexM4lf_math.a(arm_scale_f32.o)
 .ARM.attributes
                0x00000c6f       0x3b C:\Users\itx\workspace\sdr\libs\libarm_cortexM4lf_math.a(arm_mult_f32.o)
 .ARM.attributes
                0x00000caa       0x3b C:\Users\itx\workspace\sdr\libs\libarm_cortexM4lf_math.a(arm_add_f32.o)
 .ARM.attributes
                0x00000ce5       0x3b C:\Users\itx\workspace\sdr\libs\libarm_cortexM4lf_math.a(arm_common_tables.o)
 .ARM.attributes
                0x00000d20       0x36 C:\Users\itx\workspace\sdr\libs\libm.a(lib_a-s_fabs.o)
 .ARM.attributes
                0x00000d56       0x36 C:\Users\itx\workspace\sdr\libs\libm.a(lib_a-s_pow10.o)
 .ARM.attributes
                0x00000d8c       0x36 C:\Users\itx\workspace\sdr\libs\libm.a(lib_a-sf_ceil.o)
 .ARM.attributes
                0x00000dc2       0x36 C:\Users\itx\workspace\sdr\libs\libm.a(lib_a-sf_floor.o)
 .ARM.attributes
                0x00000df8       0x36 C:\Users\itx\workspace\sdr\libs\libm.a(lib_a-sf_round.o)
 .ARM.attributes
                0x00000e2e       0x36 C:\Users\itx\workspace\sdr\libs\libm.a(lib_a-w_log10.o)
 .ARM.attributes
                0x00000e64       0x36 C:\Users\itx\workspace\sdr\libs\libm.a(lib_a-w_pow.o)
 .ARM.attributes
                0x00000e9a       0x36 C:\Users\itx\workspace\sdr\libs\libm.a(lib_a-w_sqrt.o)
 .ARM.attributes
                0x00000ed0       0x36 C:\Users\itx\workspace\sdr\libs\libm.a(lib_a-wf_log10.o)
 .ARM.attributes
                0x00000f06       0x36 C:\Users\itx\workspace\sdr\libs\libm.a(lib_a-wf_pow.o)
 .ARM.attributes
                0x00000f3c       0x36 C:\Users\itx\workspace\sdr\libs\libm.a(lib_a-wf_sqrt.o)
 .ARM.attributes
                0x00000f72       0x36 C:\Users\itx\workspace\sdr\libs\libm.a(lib_a-e_log10.o)
 .ARM.attributes
                0x00000fa8       0x36 C:\Users\itx\workspace\sdr\libs\libm.a(lib_a-e_pow.o)
 .ARM.attributes
                0x00000fde       0x36 C:\Users\itx\workspace\sdr\libs\libm.a(lib_a-e_sqrt.o)
 .ARM.attributes
                0x00001014       0x36 C:\Users\itx\workspace\sdr\libs\libm.a(lib_a-ef_log10.o)
 .ARM.attributes
                0x0000104a       0x36 C:\Users\itx\workspace\sdr\libs\libm.a(lib_a-ef_pow.o)
 .ARM.attributes
                0x00001080       0x36 C:\Users\itx\workspace\sdr\libs\libm.a(lib_a-ef_sqrt.o)
 .ARM.attributes
                0x000010b6       0x36 C:\Users\itx\workspace\sdr\libs\libm.a(lib_a-s_finite.o)
 .ARM.attributes
                0x000010ec       0x36 C:\Users\itx\workspace\sdr\libs\libm.a(lib_a-s_fpclassify.o)
 .ARM.attributes
                0x00001122       0x36 C:\Users\itx\workspace\sdr\libs\libm.a(lib_a-s_lib_ver.o)
 .ARM.attributes
                0x00001158       0x36 C:\Users\itx\workspace\sdr\libs\libm.a(lib_a-s_matherr.o)
 .ARM.attributes
                0x0000118e       0x36 C:\Users\itx\workspace\sdr\libs\libm.a(lib_a-s_nan.o)
 .ARM.attributes
                0x000011c4       0x36 C:\Users\itx\workspace\sdr\libs\libm.a(lib_a-s_rint.o)
 .ARM.attributes
                0x000011fa       0x36 C:\Users\itx\workspace\sdr\libs\libm.a(lib_a-s_scalbn.o)
 .ARM.attributes
                0x00001230       0x36 C:\Users\itx\workspace\sdr\libs\libm.a(lib_a-sf_fabs.o)
 .ARM.attributes
                0x00001266       0x36 C:\Users\itx\workspace\sdr\libs\libm.a(lib_a-sf_finite.o)
 .ARM.attributes
                0x0000129c       0x36 C:\Users\itx\workspace\sdr\libs\libm.a(lib_a-sf_fpclassify.o)
 .ARM.attributes
                0x000012d2       0x36 C:\Users\itx\workspace\sdr\libs\libm.a(lib_a-sf_nan.o)
 .ARM.attributes
                0x00001308       0x36 C:\Users\itx\workspace\sdr\libs\libm.a(lib_a-sf_scalbn.o)
 .ARM.attributes
                0x0000133e       0x36 C:\Users\itx\workspace\sdr\libs\libm.a(lib_a-e_log.o)
 .ARM.attributes
                0x00001374       0x36 C:\Users\itx\workspace\sdr\libs\libm.a(lib_a-ef_log.o)
 .ARM.attributes
                0x000013aa       0x36 C:\Users\itx\workspace\sdr\libs\libm.a(lib_a-s_copysign.o)
 .ARM.attributes
                0x000013e0       0x36 C:\Users\itx\workspace\sdr\libs\libm.a(lib_a-sf_copysign.o)
 .ARM.attributes
                0x00001416       0x22 d:/armtc/armgcc/4.9 2015q3/bin/../lib/gcc/arm-none-eabi/4.9.3/armv7e-m/fpu\libgcc.a(_arm_addsubdf3.o)
 .ARM.attributes
                0x00001438       0x22 d:/armtc/armgcc/4.9 2015q3/bin/../lib/gcc/arm-none-eabi/4.9.3/armv7e-m/fpu\libgcc.a(_arm_muldivdf3.o)
 .ARM.attributes
                0x0000145a       0x22 d:/armtc/armgcc/4.9 2015q3/bin/../lib/gcc/arm-none-eabi/4.9.3/armv7e-m/fpu\libgcc.a(_arm_cmpdf2.o)
 .ARM.attributes
                0x0000147c       0x22 d:/armtc/armgcc/4.9 2015q3/bin/../lib/gcc/arm-none-eabi/4.9.3/armv7e-m/fpu\libgcc.a(_arm_fixunsdfsi.o)
 .ARM.attributes
                0x0000149e       0x22 d:/armtc/armgcc/4.9 2015q3/bin/../lib/gcc/arm-none-eabi/4.9.3/armv7e-m/fpu\libgcc.a(_arm_truncdfsf2.o)
 .ARM.attributes
                0x000014c0       0x34 d:/armtc/armgcc/4.9 2015q3/bin/../lib/gcc/arm-none-eabi/4.9.3/../../../../arm-none-eabi/lib/armv7e-m/fpu\libg_nano.a(lib_a-errno.o)
 .ARM.attributes
                0x000014f4       0x34 d:/armtc/armgcc/4.9 2015q3/bin/../lib/gcc/arm-none-eabi/4.9.3/../../../../arm-none-eabi/lib/armv7e-m/fpu\libg_nano.a(lib_a-malloc.o)
 .ARM.attributes
                0x00001528       0x34 d:/armtc/armgcc/4.9 2015q3/bin/../lib/gcc/arm-none-eabi/4.9.3/../../../../arm-none-eabi/lib/armv7e-m/fpu\libg_nano.a(lib_a-memcmp.o)
 .ARM.attributes
                0x0000155c       0x34 d:/armtc/armgcc/4.9 2015q3/bin/../lib/gcc/arm-none-eabi/4.9.3/../../../../arm-none-eabi/lib/armv7e-m/fpu\libg_nano.a(lib_a-memset.o)
 .ARM.attributes
                0x00001590       0x34 d:/armtc/armgcc/4.9 2015q3/bin/../lib/gcc/arm-none-eabi/4.9.3/../../../../arm-none-eabi/lib/armv7e-m/fpu\libg_nano.a(lib_a-nano-mallocr.o)
 .ARM.attributes
                0x000015c4       0x34 d:/armtc/armgcc/4.9 2015q3/bin/../lib/gcc/arm-none-eabi/4.9.3/../../../../arm-none-eabi/lib/armv7e-m/fpu\libg_nano.a(lib_a-sbrkr.o)
 .ARM.attributes
                0x000015f8       0x34 d:/armtc/armgcc/4.9 2015q3/bin/../lib/gcc/arm-none-eabi/4.9.3/../../../../arm-none-eabi/lib/armv7e-m/fpu\libg_nano.a(lib_a-strcpy.o)
 .ARM.attributes
                0x0000162c       0x34 d:/armtc/armgcc/4.9 2015q3/bin/../lib/gcc/arm-none-eabi/4.9.3/../../../../arm-none-eabi/lib/armv7e-m/fpu\libg_nano.a(lib_a-strlen.o)

.debug
 *(.debug)

.line
 *(.line)

.debug_srcinfo
 *(.debug_srcinfo)

.debug_sfnames
 *(.debug_sfnames)

.debug_aranges  0x00000000     0x14a0
 *(.debug_aranges)
 .debug_aranges
                0x00000000       0xb0 ./system/src/stm32f4/stm32f4xx_dma.o
 .debug_aranges
                0x000000b0       0x88 ./system/src/stm32f4/stm32f4xx_gpio.o
 .debug_aranges
                0x00000138      0x120 ./system/src/stm32f4/stm32f4xx_i2c.o
 .debug_aranges
                0x00000258      0x178 ./system/src/stm32f4/stm32f4xx_rcc.o
 .debug_aranges
                0x000003d0       0xe0 ./system/src/stm32f4/stm32f4xx_spi.o
 .debug_aranges
                0x000004b0      0x2d8 ./system/src/stm32f4/stm32f4xx_tim.o
 .debug_aranges
                0x00000788       0x28 ./system/src/newlib/_exit.o
 .debug_aranges
                0x000007b0       0x20 ./system/src/newlib/_sbrk.o
 .debug_aranges
                0x000007d0       0x40 ./system/src/newlib/_startup.o
 .debug_aranges
                0x00000810       0x30 ./system/src/newlib/_syscalls.o
 .debug_aranges
                0x00000840       0x28 ./system/src/cortexm/_initialize_hardware.o
 .debug_aranges
                0x00000868       0x20 ./system/src/cortexm/_reset_hardware.o
 .debug_aranges
                0x00000888       0x80 ./system/src/cortexm/exception_handlers.o
 .debug_aranges
                0x00000908       0x28 ./system/src/cmsis/system_stm32f4xx.o
 .debug_aranges
                0x00000930       0x20 ./system/src/cmsis/vectors_stm32f407xx.o
 .debug_aranges
                0x00000950      0x138 ./src/ui/ui.o
 .debug_aranges
                0x00000a88       0xa0 ./src/stdio/printf.o
 .debug_aranges
                0x00000b28       0x60 ./src/si570/ui_si570.o
 .debug_aranges
                0x00000b88       0xe8 ./src/ili9341/tm_stm32f4_dma.o
 .debug_aranges
                0x00000c70       0x98 ./src/ili9341/tm_stm32f4_gpio.o
 .debug_aranges
                0x00000d08       0x48 ./src/i2c/mchf_hw_i2c.o
 .debug_aranges
                0x00000d50      0x148 ./src/hy28b/ui_lcd_hy28.o
 .debug_aranges
                0x00000e98       0x18 ./src/hy28b/ui_lcd_hy28_fonts.o
 .debug_aranges
                0x00000eb0       0x38 ./src/encoder/ui_rotary.o
 .debug_aranges
                0x00000ee8       0x38 ./src/codec/audio.o
 .debug_aranges
                0x00000f20       0x60 ./src/codec/codec.o
 .debug_aranges
                0x00000f80       0x68 ./src/codec/cyclesleep.o
 .debug_aranges
                0x00000fe8       0x30 ./src/codec/i2s.o
 .debug_aranges
                0x00001018       0x38 ./src/button/tm_stm32f4_button.o
 .debug_aranges
                0x00001050       0x70 ./src/button/tm_stm32f4_delay.o
 .debug_aranges
                0x000010c0       0x78 ./src/main.o
 .debug_aranges
                0x00001138       0x20 C:\Users\itx\workspace\sdr\libs\libarm_cortexM4lf_math.a(arm_copy_q15.o)
 .debug_aranges
                0x00001158       0x20 C:\Users\itx\workspace\sdr\libs\libarm_cortexM4lf_math.a(arm_copy_f32.o)
 .debug_aranges
                0x00001178       0x20 C:\Users\itx\workspace\sdr\libs\libarm_cortexM4lf_math.a(arm_min_q15.o)
 .debug_aranges
                0x00001198       0x20 C:\Users\itx\workspace\sdr\libs\libarm_cortexM4lf_math.a(arm_min_f32.o)
 .debug_aranges
                0x000011b8       0x20 C:\Users\itx\workspace\sdr\libs\libarm_cortexM4lf_math.a(arm_mean_q15.o)
 .debug_aranges
                0x000011d8       0x20 C:\Users\itx\workspace\sdr\libs\libarm_cortexM4lf_math.a(arm_mean_f32.o)
 .debug_aranges
                0x000011f8       0x20 C:\Users\itx\workspace\sdr\libs\libarm_cortexM4lf_math.a(arm_max_q15.o)
 .debug_aranges
                0x00001218       0x20 C:\Users\itx\workspace\sdr\libs\libarm_cortexM4lf_math.a(arm_max_f32.o)
 .debug_aranges
                0x00001238       0x20 C:\Users\itx\workspace\sdr\libs\libarm_cortexM4lf_math.a(arm_rfft_init_f32.o)
 .debug_aranges
                0x00001258       0x30 C:\Users\itx\workspace\sdr\libs\libarm_cortexM4lf_math.a(arm_rfft_f32.o)
 .debug_aranges
                0x00001288       0x20 C:\Users\itx\workspace\sdr\libs\libarm_cortexM4lf_math.a(arm_cfft_radix4_init_f32.o)
 .debug_aranges
                0x000012a8       0x38 C:\Users\itx\workspace\sdr\libs\libarm_cortexM4lf_math.a(arm_cfft_radix4_f32.o)
 .debug_aranges
                0x000012e0       0x20 C:\Users\itx\workspace\sdr\libs\libarm_cortexM4lf_math.a(arm_lms_norm_init_f32.o)
 .debug_aranges
                0x00001300       0x20 C:\Users\itx\workspace\sdr\libs\libarm_cortexM4lf_math.a(arm_lms_norm_f32.o)
 .debug_aranges
                0x00001320       0x20 C:\Users\itx\workspace\sdr\libs\libarm_cortexM4lf_math.a(arm_iir_lattice_f32.o)
 .debug_aranges
                0x00001340       0x20 C:\Users\itx\workspace\sdr\libs\libarm_cortexM4lf_math.a(arm_fir_interpolate_f32.o)
 .debug_aranges
                0x00001360       0x20 C:\Users\itx\workspace\sdr\libs\libarm_cortexM4lf_math.a(arm_fir_init_f32.o)
 .debug_aranges
                0x00001380       0x20 C:\Users\itx\workspace\sdr\libs\libarm_cortexM4lf_math.a(arm_fir_f32.o)
 .debug_aranges
                0x000013a0       0x20 C:\Users\itx\workspace\sdr\libs\libarm_cortexM4lf_math.a(arm_fir_decimate_f32.o)
 .debug_aranges
                0x000013c0       0x20 C:\Users\itx\workspace\sdr\libs\libarm_cortexM4lf_math.a(arm_cmplx_mag_f32.o)
 .debug_aranges
                0x000013e0       0x20 C:\Users\itx\workspace\sdr\libs\libarm_cortexM4lf_math.a(arm_sin_f32.o)
 .debug_aranges
                0x00001400       0x20 C:\Users\itx\workspace\sdr\libs\libarm_cortexM4lf_math.a(arm_cos_f32.o)
 .debug_aranges
                0x00001420       0x20 C:\Users\itx\workspace\sdr\libs\libarm_cortexM4lf_math.a(arm_sub_f32.o)
 .debug_aranges
                0x00001440       0x20 C:\Users\itx\workspace\sdr\libs\libarm_cortexM4lf_math.a(arm_scale_f32.o)
 .debug_aranges
                0x00001460       0x20 C:\Users\itx\workspace\sdr\libs\libarm_cortexM4lf_math.a(arm_mult_f32.o)
 .debug_aranges
                0x00001480       0x20 C:\Users\itx\workspace\sdr\libs\libarm_cortexM4lf_math.a(arm_add_f32.o)

.debug_pubnames
 *(.debug_pubnames)

.debug_info     0x00000000    0x20143
 *(.debug_info .gnu.linkonce.wi.*)
 .debug_info    0x00000000      0x71e ./system/src/stm32f4/stm32f4xx_dma.o
 .debug_info    0x0000071e      0x7ae ./system/src/stm32f4/stm32f4xx_gpio.o
 .debug_info    0x00000ecc      0xb99 ./system/src/stm32f4/stm32f4xx_i2c.o
 .debug_info    0x00001a65      0xccc ./system/src/stm32f4/stm32f4xx_rcc.o
 .debug_info    0x00002731      0xba0 ./system/src/stm32f4/stm32f4xx_spi.o
 .debug_info    0x000032d1     0x24a9 ./system/src/stm32f4/stm32f4xx_tim.o
 .debug_info    0x0000577a      0x100 ./system/src/newlib/_exit.o
 .debug_info    0x0000587a      0x121 ./system/src/newlib/_sbrk.o
 .debug_info    0x0000599b      0x4ed ./system/src/newlib/_startup.o
 .debug_info    0x00005e88      0x1b8 ./system/src/newlib/_syscalls.o
 .debug_info    0x00006040      0x290 ./system/src/cortexm/_initialize_hardware.o
 .debug_info    0x000062d0      0x2aa ./system/src/cortexm/_reset_hardware.o
 .debug_info    0x0000657a      0x289 ./system/src/cortexm/exception_handlers.o
 .debug_info    0x00006803      0x58b ./system/src/cmsis/system_stm32f4xx.o
 .debug_info    0x00006d8e       0xcd ./system/src/cmsis/vectors_stm32f407xx.o
 .debug_info    0x00006e5b     0x59bf ./src/ui/ui.o
 .debug_info    0x0000c81a     0x136a ./src/stdio/printf.o
 .debug_info    0x0000db84      0xc98 ./src/si570/ui_si570.o
 .debug_info    0x0000e81c      0xc6c ./src/ili9341/tm_stm32f4_dma.o
 .debug_info    0x0000f488      0x942 ./src/ili9341/tm_stm32f4_gpio.o
 .debug_info    0x0000fdca     0x10ea ./src/i2c/mchf_hw_i2c.o
 .debug_info    0x00010eb4     0x4506 ./src/hy28b/ui_lcd_hy28.o
 .debug_info    0x000153ba      0x230 ./src/hy28b/ui_lcd_hy28_fonts.o
 .debug_info    0x000155ea      0x9b7 ./src/encoder/ui_rotary.o
 .debug_info    0x00015fa1     0x24f4 ./src/codec/audio.o
 .debug_info    0x00018495      0xedb ./src/codec/codec.o
 .debug_info    0x00019370      0x413 ./src/codec/cyclesleep.o
 .debug_info    0x00019783      0xbc4 ./src/codec/i2s.o
 .debug_info    0x0001a347      0x519 ./src/button/tm_stm32f4_button.o
 .debug_info    0x0001a860      0xa75 ./src/button/tm_stm32f4_delay.o
 .debug_info    0x0001b2d5     0x1c30 ./src/main.o
 .debug_info    0x0001cf05      0x189 C:\Users\itx\workspace\sdr\libs\libarm_cortexM4lf_math.a(arm_copy_q15.o)
 .debug_info    0x0001d08e       0xfb C:\Users\itx\workspace\sdr\libs\libarm_cortexM4lf_math.a(arm_copy_f32.o)
 .debug_info    0x0001d189      0x146 C:\Users\itx\workspace\sdr\libs\libarm_cortexM4lf_math.a(arm_min_q15.o)
 .debug_info    0x0001d2cf      0x13a C:\Users\itx\workspace\sdr\libs\libarm_cortexM4lf_math.a(arm_min_f32.o)
 .debug_info    0x0001d409      0x12c C:\Users\itx\workspace\sdr\libs\libarm_cortexM4lf_math.a(arm_mean_q15.o)
 .debug_info    0x0001d535      0x106 C:\Users\itx\workspace\sdr\libs\libarm_cortexM4lf_math.a(arm_mean_f32.o)
 .debug_info    0x0001d63b      0x146 C:\Users\itx\workspace\sdr\libs\libarm_cortexM4lf_math.a(arm_max_q15.o)
 .debug_info    0x0001d781      0x13a C:\Users\itx\workspace\sdr\libs\libarm_cortexM4lf_math.a(arm_max_f32.o)
 .debug_info    0x0001d8bb      0x2e7 C:\Users\itx\workspace\sdr\libs\libarm_cortexM4lf_math.a(arm_rfft_init_f32.o)
 .debug_info    0x0001dba2      0x477 C:\Users\itx\workspace\sdr\libs\libarm_cortexM4lf_math.a(arm_rfft_f32.o)
 .debug_info    0x0001e019      0x24c C:\Users\itx\workspace\sdr\libs\libarm_cortexM4lf_math.a(arm_cfft_radix4_init_f32.o)
 .debug_info    0x0001e265      0x573 C:\Users\itx\workspace\sdr\libs\libarm_cortexM4lf_math.a(arm_cfft_radix4_f32.o)
 .debug_info    0x0001e7d8      0x198 C:\Users\itx\workspace\sdr\libs\libarm_cortexM4lf_math.a(arm_lms_norm_init_f32.o)
 .debug_info    0x0001e970      0x27e C:\Users\itx\workspace\sdr\libs\libarm_cortexM4lf_math.a(arm_lms_norm_f32.o)
 .debug_info    0x0001ebee      0x235 C:\Users\itx\workspace\sdr\libs\libarm_cortexM4lf_math.a(arm_iir_lattice_f32.o)
 .debug_info    0x0001ee23      0x22b C:\Users\itx\workspace\sdr\libs\libarm_cortexM4lf_math.a(arm_fir_interpolate_f32.o)
 .debug_info    0x0001f04e      0x15f C:\Users\itx\workspace\sdr\libs\libarm_cortexM4lf_math.a(arm_fir_init_f32.o)
 .debug_info    0x0001f1ad      0x25a C:\Users\itx\workspace\sdr\libs\libarm_cortexM4lf_math.a(arm_fir_f32.o)
 .debug_info    0x0001f407      0x22a C:\Users\itx\workspace\sdr\libs\libarm_cortexM4lf_math.a(arm_fir_decimate_f32.o)
 .debug_info    0x0001f631      0x22d C:\Users\itx\workspace\sdr\libs\libarm_cortexM4lf_math.a(arm_cmplx_mag_f32.o)
 .debug_info    0x0001f85e      0x1c8 C:\Users\itx\workspace\sdr\libs\libarm_cortexM4lf_math.a(arm_sin_f32.o)
 .debug_info    0x0001fa26      0x1c0 C:\Users\itx\workspace\sdr\libs\libarm_cortexM4lf_math.a(arm_cos_f32.o)
 .debug_info    0x0001fbe6      0x10a C:\Users\itx\workspace\sdr\libs\libarm_cortexM4lf_math.a(arm_sub_f32.o)
 .debug_info    0x0001fcf0      0x109 C:\Users\itx\workspace\sdr\libs\libarm_cortexM4lf_math.a(arm_scale_f32.o)
 .debug_info    0x0001fdf9      0x10a C:\Users\itx\workspace\sdr\libs\libarm_cortexM4lf_math.a(arm_mult_f32.o)
 .debug_info    0x0001ff03      0x10a C:\Users\itx\workspace\sdr\libs\libarm_cortexM4lf_math.a(arm_add_f32.o)
 .debug_info    0x0002000d      0x136 C:\Users\itx\workspace\sdr\libs\libarm_cortexM4lf_math.a(arm_common_tables.o)

.debug_abbrev   0x00000000     0x572d
 *(.debug_abbrev)
 .debug_abbrev  0x00000000      0x175 ./system/src/stm32f4/stm32f4xx_dma.o
 .debug_abbrev  0x00000175      0x1f8 ./system/src/stm32f4/stm32f4xx_gpio.o
 .debug_abbrev  0x0000036d      0x1ef ./system/src/stm32f4/stm32f4xx_i2c.o
 .debug_abbrev  0x0000055c      0x28b ./system/src/stm32f4/stm32f4xx_rcc.o
 .debug_abbrev  0x000007e7      0x1e7 ./system/src/stm32f4/stm32f4xx_spi.o
 .debug_abbrev  0x000009ce      0x28a ./system/src/stm32f4/stm32f4xx_tim.o
 .debug_abbrev  0x00000c58       0xb8 ./system/src/newlib/_exit.o
 .debug_abbrev  0x00000d10       0xb8 ./system/src/newlib/_sbrk.o
 .debug_abbrev  0x00000dc8      0x22c ./system/src/newlib/_startup.o
 .debug_abbrev  0x00000ff4       0xeb ./system/src/newlib/_syscalls.o
 .debug_abbrev  0x000010df       0xf5 ./system/src/cortexm/_initialize_hardware.o
 .debug_abbrev  0x000011d4       0xe7 ./system/src/cortexm/_reset_hardware.o
 .debug_abbrev  0x000012bb       0xee ./system/src/cortexm/exception_handlers.o
 .debug_abbrev  0x000013a9      0x15f ./system/src/cmsis/system_stm32f4xx.o
 .debug_abbrev  0x00001508       0x9a ./system/src/cmsis/vectors_stm32f407xx.o
 .debug_abbrev  0x000015a2      0x4b1 ./src/ui/ui.o
 .debug_abbrev  0x00001a53      0x3bf ./src/stdio/printf.o
 .debug_abbrev  0x00001e12      0x37b ./src/si570/ui_si570.o
 .debug_abbrev  0x0000218d      0x2b8 ./src/ili9341/tm_stm32f4_dma.o
 .debug_abbrev  0x00002445      0x1ea ./src/ili9341/tm_stm32f4_gpio.o
 .debug_abbrev  0x0000262f      0x270 ./src/i2c/mchf_hw_i2c.o
 .debug_abbrev  0x0000289f      0x440 ./src/hy28b/ui_lcd_hy28.o
 .debug_abbrev  0x00002cdf       0xbe ./src/hy28b/ui_lcd_hy28_fonts.o
 .debug_abbrev  0x00002d9d      0x159 ./src/encoder/ui_rotary.o
 .debug_abbrev  0x00002ef6      0x3db ./src/codec/audio.o
 .debug_abbrev  0x000032d1      0x2a7 ./src/codec/codec.o
 .debug_abbrev  0x00003578      0x1ee ./src/codec/cyclesleep.o
 .debug_abbrev  0x00003766      0x241 ./src/codec/i2s.o
 .debug_abbrev  0x000039a7      0x22f ./src/button/tm_stm32f4_button.o
 .debug_abbrev  0x00003bd6      0x369 ./src/button/tm_stm32f4_delay.o
 .debug_abbrev  0x00003f3f      0x390 ./src/main.o
 .debug_abbrev  0x000042cf       0xae C:\Users\itx\workspace\sdr\libs\libarm_cortexM4lf_math.a(arm_copy_q15.o)
 .debug_abbrev  0x0000437d       0x82 C:\Users\itx\workspace\sdr\libs\libarm_cortexM4lf_math.a(arm_copy_f32.o)
 .debug_abbrev  0x000043ff       0xaf C:\Users\itx\workspace\sdr\libs\libarm_cortexM4lf_math.a(arm_min_q15.o)
 .debug_abbrev  0x000044ae       0xb1 C:\Users\itx\workspace\sdr\libs\libarm_cortexM4lf_math.a(arm_min_f32.o)
 .debug_abbrev  0x0000455f       0x91 C:\Users\itx\workspace\sdr\libs\libarm_cortexM4lf_math.a(arm_mean_q15.o)
 .debug_abbrev  0x000045f0       0xa0 C:\Users\itx\workspace\sdr\libs\libarm_cortexM4lf_math.a(arm_mean_f32.o)
 .debug_abbrev  0x00004690       0xaf C:\Users\itx\workspace\sdr\libs\libarm_cortexM4lf_math.a(arm_max_q15.o)
 .debug_abbrev  0x0000473f       0xb1 C:\Users\itx\workspace\sdr\libs\libarm_cortexM4lf_math.a(arm_max_f32.o)
 .debug_abbrev  0x000047f0      0x10d C:\Users\itx\workspace\sdr\libs\libarm_cortexM4lf_math.a(arm_rfft_init_f32.o)
 .debug_abbrev  0x000048fd      0x125 C:\Users\itx\workspace\sdr\libs\libarm_cortexM4lf_math.a(arm_rfft_f32.o)
 .debug_abbrev  0x00004a22      0x109 C:\Users\itx\workspace\sdr\libs\libarm_cortexM4lf_math.a(arm_cfft_radix4_init_f32.o)
 .debug_abbrev  0x00004b2b      0x123 C:\Users\itx\workspace\sdr\libs\libarm_cortexM4lf_math.a(arm_cfft_radix4_f32.o)
 .debug_abbrev  0x00004c4e       0xbe C:\Users\itx\workspace\sdr\libs\libarm_cortexM4lf_math.a(arm_lms_norm_init_f32.o)
 .debug_abbrev  0x00004d0c       0xdc C:\Users\itx\workspace\sdr\libs\libarm_cortexM4lf_math.a(arm_lms_norm_f32.o)
 .debug_abbrev  0x00004de8       0xc5 C:\Users\itx\workspace\sdr\libs\libarm_cortexM4lf_math.a(arm_iir_lattice_f32.o)
 .debug_abbrev  0x00004ead       0xd4 C:\Users\itx\workspace\sdr\libs\libarm_cortexM4lf_math.a(arm_fir_interpolate_f32.o)
 .debug_abbrev  0x00004f81       0xaf C:\Users\itx\workspace\sdr\libs\libarm_cortexM4lf_math.a(arm_fir_init_f32.o)
 .debug_abbrev  0x00005030       0xd4 C:\Users\itx\workspace\sdr\libs\libarm_cortexM4lf_math.a(arm_fir_f32.o)
 .debug_abbrev  0x00005104       0xe3 C:\Users\itx\workspace\sdr\libs\libarm_cortexM4lf_math.a(arm_fir_decimate_f32.o)
 .debug_abbrev  0x000051e7       0xf5 C:\Users\itx\workspace\sdr\libs\libarm_cortexM4lf_math.a(arm_cmplx_mag_f32.o)
 .debug_abbrev  0x000052dc       0xe6 C:\Users\itx\workspace\sdr\libs\libarm_cortexM4lf_math.a(arm_sin_f32.o)
 .debug_abbrev  0x000053c2       0xe6 C:\Users\itx\workspace\sdr\libs\libarm_cortexM4lf_math.a(arm_cos_f32.o)
 .debug_abbrev  0x000054a8       0x82 C:\Users\itx\workspace\sdr\libs\libarm_cortexM4lf_math.a(arm_sub_f32.o)
 .debug_abbrev  0x0000552a       0x91 C:\Users\itx\workspace\sdr\libs\libarm_cortexM4lf_math.a(arm_scale_f32.o)
 .debug_abbrev  0x000055bb       0x82 C:\Users\itx\workspace\sdr\libs\libarm_cortexM4lf_math.a(arm_mult_f32.o)
 .debug_abbrev  0x0000563d       0x82 C:\Users\itx\workspace\sdr\libs\libarm_cortexM4lf_math.a(arm_add_f32.o)
 .debug_abbrev  0x000056bf       0x6e C:\Users\itx\workspace\sdr\libs\libarm_cortexM4lf_math.a(arm_common_tables.o)

.debug_line     0x00000000     0xb27d
 *(.debug_line)
 .debug_line    0x00000000      0x368 ./system/src/stm32f4/stm32f4xx_dma.o
 .debug_line    0x00000368      0x2be ./system/src/stm32f4/stm32f4xx_gpio.o
 .debug_line    0x00000626      0x452 ./system/src/stm32f4/stm32f4xx_i2c.o
 .debug_line    0x00000a78      0x4c5 ./system/src/stm32f4/stm32f4xx_rcc.o
 .debug_line    0x00000f3d      0x3bc ./system/src/stm32f4/stm32f4xx_spi.o
 .debug_line    0x000012f9      0xb6e ./system/src/stm32f4/stm32f4xx_tim.o
 .debug_line    0x00001e67       0xfd ./system/src/newlib/_exit.o
 .debug_line    0x00001f64       0xac ./system/src/newlib/_sbrk.o
 .debug_line    0x00002010      0x17d ./system/src/newlib/_startup.o
 .debug_line    0x0000218d      0x10e ./system/src/newlib/_syscalls.o
 .debug_line    0x0000229b       0xfd ./system/src/cortexm/_initialize_hardware.o
 .debug_line    0x00002398       0xf3 ./system/src/cortexm/_reset_hardware.o
 .debug_line    0x0000248b      0x19b ./system/src/cortexm/exception_handlers.o
 .debug_line    0x00002626      0x150 ./system/src/cmsis/system_stm32f4xx.o
 .debug_line    0x00002776       0x5f ./system/src/cmsis/vectors_stm32f407xx.o
 .debug_line    0x000027d5     0x15fe ./src/ui/ui.o
 .debug_line    0x00003dd3      0x3e8 ./src/stdio/printf.o
 .debug_line    0x000041bb      0x3f0 ./src/si570/ui_si570.o
 .debug_line    0x000045ab      0x3b7 ./src/ili9341/tm_stm32f4_dma.o
 .debug_line    0x00004962      0x301 ./src/ili9341/tm_stm32f4_gpio.o
 .debug_line    0x00004c63      0x3c1 ./src/i2c/mchf_hw_i2c.o
 .debug_line    0x00005024      0xce0 ./src/hy28b/ui_lcd_hy28.o
 .debug_line    0x00005d04      0x141 ./src/hy28b/ui_lcd_hy28_fonts.o
 .debug_line    0x00005e45      0x1ed ./src/encoder/ui_rotary.o
 .debug_line    0x00006032      0x83b ./src/codec/audio.o
 .debug_line    0x0000686d      0x330 ./src/codec/codec.o
 .debug_line    0x00006b9d      0x1e6 ./src/codec/cyclesleep.o
 .debug_line    0x00006d83      0x2b2 ./src/codec/i2s.o
 .debug_line    0x00007035      0x230 ./src/button/tm_stm32f4_button.o
 .debug_line    0x00007265      0x311 ./src/button/tm_stm32f4_delay.o
 .debug_line    0x00007576      0x5ad ./src/main.o
 .debug_line    0x00007b23      0x1b3 C:\Users\itx\workspace\sdr\libs\libarm_cortexM4lf_math.a(arm_copy_q15.o)
 .debug_line    0x00007cd6      0x185 C:\Users\itx\workspace\sdr\libs\libarm_cortexM4lf_math.a(arm_copy_f32.o)
 .debug_line    0x00007e5b      0x11d C:\Users\itx\workspace\sdr\libs\libarm_cortexM4lf_math.a(arm_min_q15.o)
 .debug_line    0x00007f78      0x142 C:\Users\itx\workspace\sdr\libs\libarm_cortexM4lf_math.a(arm_min_f32.o)
 .debug_line    0x000080ba      0x19a C:\Users\itx\workspace\sdr\libs\libarm_cortexM4lf_math.a(arm_mean_q15.o)
 .debug_line    0x00008254      0x197 C:\Users\itx\workspace\sdr\libs\libarm_cortexM4lf_math.a(arm_mean_f32.o)
 .debug_line    0x000083eb      0x11d C:\Users\itx\workspace\sdr\libs\libarm_cortexM4lf_math.a(arm_max_q15.o)
 .debug_line    0x00008508      0x141 C:\Users\itx\workspace\sdr\libs\libarm_cortexM4lf_math.a(arm_max_f32.o)
 .debug_line    0x00008649      0x15a C:\Users\itx\workspace\sdr\libs\libarm_cortexM4lf_math.a(arm_rfft_init_f32.o)
 .debug_line    0x000087a3      0x2f8 C:\Users\itx\workspace\sdr\libs\libarm_cortexM4lf_math.a(arm_rfft_f32.o)
 .debug_line    0x00008a9b      0x17b C:\Users\itx\workspace\sdr\libs\libarm_cortexM4lf_math.a(arm_cfft_radix4_init_f32.o)
 .debug_line    0x00008c16      0x98f C:\Users\itx\workspace\sdr\libs\libarm_cortexM4lf_math.a(arm_cfft_radix4_f32.o)
 .debug_line    0x000095a5      0x137 C:\Users\itx\workspace\sdr\libs\libarm_cortexM4lf_math.a(arm_lms_norm_init_f32.o)
 .debug_line    0x000096dc      0x2e2 C:\Users\itx\workspace\sdr\libs\libarm_cortexM4lf_math.a(arm_lms_norm_f32.o)
 .debug_line    0x000099be      0x29c C:\Users\itx\workspace\sdr\libs\libarm_cortexM4lf_math.a(arm_iir_lattice_f32.o)
 .debug_line    0x00009c5a      0x318 C:\Users\itx\workspace\sdr\libs\libarm_cortexM4lf_math.a(arm_fir_interpolate_f32.o)
 .debug_line    0x00009f72      0x120 C:\Users\itx\workspace\sdr\libs\libarm_cortexM4lf_math.a(arm_fir_init_f32.o)
 .debug_line    0x0000a092      0x2d9 C:\Users\itx\workspace\sdr\libs\libarm_cortexM4lf_math.a(arm_fir_f32.o)
 .debug_line    0x0000a36b      0x2a5 C:\Users\itx\workspace\sdr\libs\libarm_cortexM4lf_math.a(arm_fir_decimate_f32.o)
 .debug_line    0x0000a610      0x2b0 C:\Users\itx\workspace\sdr\libs\libarm_cortexM4lf_math.a(arm_cmplx_mag_f32.o)
 .debug_line    0x0000a8c0      0x151 C:\Users\itx\workspace\sdr\libs\libarm_cortexM4lf_math.a(arm_sin_f32.o)
 .debug_line    0x0000aa11      0x153 C:\Users\itx\workspace\sdr\libs\libarm_cortexM4lf_math.a(arm_cos_f32.o)
 .debug_line    0x0000ab64      0x17e C:\Users\itx\workspace\sdr\libs\libarm_cortexM4lf_math.a(arm_sub_f32.o)
 .debug_line    0x0000ace2      0x1a1 C:\Users\itx\workspace\sdr\libs\libarm_cortexM4lf_math.a(arm_scale_f32.o)
 .debug_line    0x0000ae83      0x17f C:\Users\itx\workspace\sdr\libs\libarm_cortexM4lf_math.a(arm_mult_f32.o)
 .debug_line    0x0000b002      0x17e C:\Users\itx\workspace\sdr\libs\libarm_cortexM4lf_math.a(arm_add_f32.o)
 .debug_line    0x0000b180       0xfd C:\Users\itx\workspace\sdr\libs\libarm_cortexM4lf_math.a(arm_common_tables.o)

.debug_frame    0x00000000     0x3c58
 *(.debug_frame)
 .debug_frame   0x00000000      0x1b8 ./system/src/stm32f4/stm32f4xx_dma.o
 .debug_frame   0x000001b8      0x160 ./system/src/stm32f4/stm32f4xx_gpio.o
 .debug_frame   0x00000318      0x274 ./system/src/stm32f4/stm32f4xx_i2c.o
 .debug_frame   0x0000058c      0x2f0 ./system/src/stm32f4/stm32f4xx_rcc.o
 .debug_frame   0x0000087c      0x1fc ./system/src/stm32f4/stm32f4xx_spi.o
 .debug_frame   0x00000a78      0x6f8 ./system/src/stm32f4/stm32f4xx_tim.o
 .debug_frame   0x00001170       0x40 ./system/src/newlib/_exit.o
 .debug_frame   0x000011b0       0x28 ./system/src/newlib/_sbrk.o
 .debug_frame   0x000011d8       0x84 ./system/src/newlib/_startup.o
 .debug_frame   0x0000125c       0x50 ./system/src/newlib/_syscalls.o
 .debug_frame   0x000012ac       0x38 ./system/src/cortexm/_initialize_hardware.o
 .debug_frame   0x000012e4       0x20 ./system/src/cortexm/_reset_hardware.o
 .debug_frame   0x00001304       0xe0 ./system/src/cortexm/exception_handlers.o
 .debug_frame   0x000013e4       0x3c ./system/src/cmsis/system_stm32f4xx.o
 .debug_frame   0x00001420       0x20 ./system/src/cmsis/vectors_stm32f407xx.o
 .debug_frame   0x00001440      0x688 ./src/ui/ui.o
 .debug_frame   0x00001ac8      0x254 ./src/stdio/printf.o
 .debug_frame   0x00001d1c      0x1e4 ./src/si570/ui_si570.o
 .debug_frame   0x00001f00      0x1e8 ./src/ili9341/tm_stm32f4_dma.o
 .debug_frame   0x000020e8      0x1bc ./src/ili9341/tm_stm32f4_gpio.o
 .debug_frame   0x000022a4       0xd0 ./src/i2c/mchf_hw_i2c.o
 .debug_frame   0x00002374      0x550 ./src/hy28b/ui_lcd_hy28.o
 .debug_frame   0x000028c4       0xb0 ./src/encoder/ui_rotary.o
 .debug_frame   0x00002974      0x108 ./src/codec/audio.o
 .debug_frame   0x00002a7c      0x110 ./src/codec/codec.o
 .debug_frame   0x00002b8c       0xc8 ./src/codec/cyclesleep.o
 .debug_frame   0x00002c54       0x94 ./src/codec/i2s.o
 .debug_frame   0x00002ce8       0x88 ./src/button/tm_stm32f4_button.o
 .debug_frame   0x00002d70      0x10c ./src/button/tm_stm32f4_delay.o
 .debug_frame   0x00002e7c      0x184 ./src/main.o
 .debug_frame   0x00003000       0x34 C:\Users\itx\workspace\sdr\libs\libarm_cortexM4lf_math.a(arm_copy_q15.o)
 .debug_frame   0x00003034       0x30 C:\Users\itx\workspace\sdr\libs\libarm_cortexM4lf_math.a(arm_copy_f32.o)
 .debug_frame   0x00003064       0x34 C:\Users\itx\workspace\sdr\libs\libarm_cortexM4lf_math.a(arm_min_q15.o)
 .debug_frame   0x00003098       0x2c C:\Users\itx\workspace\sdr\libs\libarm_cortexM4lf_math.a(arm_min_f32.o)
 .debug_frame   0x000030c4       0x38 C:\Users\itx\workspace\sdr\libs\libarm_cortexM4lf_math.a(arm_mean_q15.o)
 .debug_frame   0x000030fc       0x2c C:\Users\itx\workspace\sdr\libs\libarm_cortexM4lf_math.a(arm_mean_f32.o)
 .debug_frame   0x00003128       0x34 C:\Users\itx\workspace\sdr\libs\libarm_cortexM4lf_math.a(arm_max_q15.o)
 .debug_frame   0x0000315c       0x2c C:\Users\itx\workspace\sdr\libs\libarm_cortexM4lf_math.a(arm_max_f32.o)
 .debug_frame   0x00003188       0x2c C:\Users\itx\workspace\sdr\libs\libarm_cortexM4lf_math.a(arm_rfft_init_f32.o)
 .debug_frame   0x000031b4       0x74 C:\Users\itx\workspace\sdr\libs\libarm_cortexM4lf_math.a(arm_rfft_f32.o)
 .debug_frame   0x00003228       0x28 C:\Users\itx\workspace\sdr\libs\libarm_cortexM4lf_math.a(arm_cfft_radix4_init_f32.o)
 .debug_frame   0x00003250       0xb0 C:\Users\itx\workspace\sdr\libs\libarm_cortexM4lf_math.a(arm_cfft_radix4_f32.o)
 .debug_frame   0x00003300       0x34 C:\Users\itx\workspace\sdr\libs\libarm_cortexM4lf_math.a(arm_lms_norm_init_f32.o)
 .debug_frame   0x00003334       0x38 C:\Users\itx\workspace\sdr\libs\libarm_cortexM4lf_math.a(arm_lms_norm_f32.o)
 .debug_frame   0x0000336c       0x38 C:\Users\itx\workspace\sdr\libs\libarm_cortexM4lf_math.a(arm_iir_lattice_f32.o)
 .debug_frame   0x000033a4       0x38 C:\Users\itx\workspace\sdr\libs\libarm_cortexM4lf_math.a(arm_fir_interpolate_f32.o)
 .debug_frame   0x000033dc       0x2c C:\Users\itx\workspace\sdr\libs\libarm_cortexM4lf_math.a(arm_fir_init_f32.o)
 .debug_frame   0x00003408       0x38 C:\Users\itx\workspace\sdr\libs\libarm_cortexM4lf_math.a(arm_fir_f32.o)
 .debug_frame   0x00003440       0x38 C:\Users\itx\workspace\sdr\libs\libarm_cortexM4lf_math.a(arm_fir_decimate_f32.o)
 .debug_frame   0x00003478       0x38 C:\Users\itx\workspace\sdr\libs\libarm_cortexM4lf_math.a(arm_cmplx_mag_f32.o)
 .debug_frame   0x000034b0       0x20 C:\Users\itx\workspace\sdr\libs\libarm_cortexM4lf_math.a(arm_sin_f32.o)
 .debug_frame   0x000034d0       0x20 C:\Users\itx\workspace\sdr\libs\libarm_cortexM4lf_math.a(arm_cos_f32.o)
 .debug_frame   0x000034f0       0x34 C:\Users\itx\workspace\sdr\libs\libarm_cortexM4lf_math.a(arm_sub_f32.o)
 .debug_frame   0x00003524       0x34 C:\Users\itx\workspace\sdr\libs\libarm_cortexM4lf_math.a(arm_scale_f32.o)
 .debug_frame   0x00003558       0x34 C:\Users\itx\workspace\sdr\libs\libarm_cortexM4lf_math.a(arm_mult_f32.o)
 .debug_frame   0x0000358c       0x34 C:\Users\itx\workspace\sdr\libs\libarm_cortexM4lf_math.a(arm_add_f32.o)
 .debug_frame   0x000035c0       0x20 C:\Users\itx\workspace\sdr\libs\libm.a(lib_a-s_fabs.o)
 .debug_frame   0x000035e0       0x20 C:\Users\itx\workspace\sdr\libs\libm.a(lib_a-s_pow10.o)
 .debug_frame   0x00003600       0x28 C:\Users\itx\workspace\sdr\libs\libm.a(lib_a-sf_ceil.o)
 .debug_frame   0x00003628       0x28 C:\Users\itx\workspace\sdr\libs\libm.a(lib_a-sf_floor.o)
 .debug_frame   0x00003650       0x20 C:\Users\itx\workspace\sdr\libs\libm.a(lib_a-sf_round.o)
 .debug_frame   0x00003670       0x38 C:\Users\itx\workspace\sdr\libs\libm.a(lib_a-w_log10.o)
 .debug_frame   0x000036a8       0x3c C:\Users\itx\workspace\sdr\libs\libm.a(lib_a-w_pow.o)
 .debug_frame   0x000036e4       0x34 C:\Users\itx\workspace\sdr\libs\libm.a(lib_a-w_sqrt.o)
 .debug_frame   0x00003718       0x30 C:\Users\itx\workspace\sdr\libs\libm.a(lib_a-wf_log10.o)
 .debug_frame   0x00003748       0x3c C:\Users\itx\workspace\sdr\libs\libm.a(lib_a-wf_pow.o)
 .debug_frame   0x00003784       0x30 C:\Users\itx\workspace\sdr\libs\libm.a(lib_a-wf_sqrt.o)
 .debug_frame   0x000037b4       0x38 C:\Users\itx\workspace\sdr\libs\libm.a(lib_a-e_log10.o)
 .debug_frame   0x000037ec       0x38 C:\Users\itx\workspace\sdr\libs\libm.a(lib_a-e_pow.o)
 .debug_frame   0x00003824       0x3c C:\Users\itx\workspace\sdr\libs\libm.a(lib_a-e_sqrt.o)
 .debug_frame   0x00003860       0x30 C:\Users\itx\workspace\sdr\libs\libm.a(lib_a-ef_log10.o)
 .debug_frame   0x00003890       0x3c C:\Users\itx\workspace\sdr\libs\libm.a(lib_a-ef_pow.o)
 .debug_frame   0x000038cc       0x2c C:\Users\itx\workspace\sdr\libs\libm.a(lib_a-ef_sqrt.o)
 .debug_frame   0x000038f8       0x20 C:\Users\itx\workspace\sdr\libs\libm.a(lib_a-s_finite.o)
 .debug_frame   0x00003918       0x20 C:\Users\itx\workspace\sdr\libs\libm.a(lib_a-s_fpclassify.o)
 .debug_frame   0x00003938       0x20 C:\Users\itx\workspace\sdr\libs\libm.a(lib_a-s_matherr.o)
 .debug_frame   0x00003958       0x20 C:\Users\itx\workspace\sdr\libs\libm.a(lib_a-s_nan.o)
 .debug_frame   0x00003978       0x30 C:\Users\itx\workspace\sdr\libs\libm.a(lib_a-s_rint.o)
 .debug_frame   0x000039a8       0x28 C:\Users\itx\workspace\sdr\libs\libm.a(lib_a-s_scalbn.o)
 .debug_frame   0x000039d0       0x20 C:\Users\itx\workspace\sdr\libs\libm.a(lib_a-sf_fabs.o)
 .debug_frame   0x000039f0       0x20 C:\Users\itx\workspace\sdr\libs\libm.a(lib_a-sf_finite.o)
 .debug_frame   0x00003a10       0x20 C:\Users\itx\workspace\sdr\libs\libm.a(lib_a-sf_fpclassify.o)
 .debug_frame   0x00003a30       0x20 C:\Users\itx\workspace\sdr\libs\libm.a(lib_a-sf_nan.o)
 .debug_frame   0x00003a50       0x30 C:\Users\itx\workspace\sdr\libs\libm.a(lib_a-sf_scalbn.o)
 .debug_frame   0x00003a80       0x38 C:\Users\itx\workspace\sdr\libs\libm.a(lib_a-e_log.o)
 .debug_frame   0x00003ab8       0x28 C:\Users\itx\workspace\sdr\libs\libm.a(lib_a-ef_log.o)
 .debug_frame   0x00003ae0       0x28 C:\Users\itx\workspace\sdr\libs\libm.a(lib_a-s_copysign.o)
 .debug_frame   0x00003b08       0x20 C:\Users\itx\workspace\sdr\libs\libm.a(lib_a-sf_copysign.o)
 .debug_frame   0x00003b28       0x20 d:/armtc/armgcc/4.9 2015q3/bin/../lib/gcc/arm-none-eabi/4.9.3/../../../../arm-none-eabi/lib/armv7e-m/fpu\libg_nano.a(lib_a-errno.o)
 .debug_frame   0x00003b48       0x30 d:/armtc/armgcc/4.9 2015q3/bin/../lib/gcc/arm-none-eabi/4.9.3/../../../../arm-none-eabi/lib/armv7e-m/fpu\libg_nano.a(lib_a-malloc.o)
 .debug_frame   0x00003b78       0x28 d:/armtc/armgcc/4.9 2015q3/bin/../lib/gcc/arm-none-eabi/4.9.3/../../../../arm-none-eabi/lib/armv7e-m/fpu\libg_nano.a(lib_a-memcmp.o)
 .debug_frame   0x00003ba0       0x20 d:/armtc/armgcc/4.9 2015q3/bin/../lib/gcc/arm-none-eabi/4.9.3/../../../../arm-none-eabi/lib/armv7e-m/fpu\libg_nano.a(lib_a-memset.o)
 .debug_frame   0x00003bc0       0x2c d:/armtc/armgcc/4.9 2015q3/bin/../lib/gcc/arm-none-eabi/4.9.3/../../../../arm-none-eabi/lib/armv7e-m/fpu\libg_nano.a(lib_a-nano-mallocr.o)
 .debug_frame   0x00003bec       0x2c d:/armtc/armgcc/4.9 2015q3/bin/../lib/gcc/arm-none-eabi/4.9.3/../../../../arm-none-eabi/lib/armv7e-m/fpu\libg_nano.a(lib_a-sbrkr.o)
 .debug_frame   0x00003c18       0x20 d:/armtc/armgcc/4.9 2015q3/bin/../lib/gcc/arm-none-eabi/4.9.3/../../../../arm-none-eabi/lib/armv7e-m/fpu\libg_nano.a(lib_a-strcpy.o)
 .debug_frame   0x00003c38       0x20 d:/armtc/armgcc/4.9 2015q3/bin/../lib/gcc/arm-none-eabi/4.9.3/../../../../arm-none-eabi/lib/armv7e-m/fpu\libg_nano.a(lib_a-strlen.o)

.debug_str      0x00000000     0x70d3
 *(.debug_str)
 .debug_str     0x00000000      0x524 ./system/src/stm32f4/stm32f4xx_dma.o
                                0x5a8 (size before relaxing)
 .debug_str     0x00000524      0x283 ./system/src/stm32f4/stm32f4xx_gpio.o
                                0x526 (size before relaxing)
 .debug_str     0x000007a7      0x480 ./system/src/stm32f4/stm32f4xx_i2c.o
                                0x6ea (size before relaxing)
 .debug_str     0x00000c27      0x566 ./system/src/stm32f4/stm32f4xx_rcc.o
                                0x8ac (size before relaxing)
 .debug_str     0x0000118d      0x383 ./system/src/stm32f4/stm32f4xx_spi.o
                                0x714 (size before relaxing)
 .debug_str     0x00001510      0xb52 ./system/src/stm32f4/stm32f4xx_tim.o
                                0xe5a (size before relaxing)
 .debug_str     0x00002062       0x56 ./system/src/newlib/_exit.o
                                0x20d (size before relaxing)
 .debug_str     0x000020b8       0x77 ./system/src/newlib/_sbrk.o
                                0x23a (size before relaxing)
 .debug_str     0x0000212f      0x1f4 ./system/src/newlib/_startup.o
                                0x3d9 (size before relaxing)
 .debug_str     0x00002323       0x52 ./system/src/newlib/_syscalls.o
                                0x23a (size before relaxing)
 .debug_str     0x00002375       0xb2 ./system/src/cortexm/_initialize_hardware.o
                                0x2c6 (size before relaxing)
 .debug_str     0x00002427       0x45 ./system/src/cortexm/_reset_hardware.o
                                0x28c (size before relaxing)
 .debug_str     0x0000246c      0x11f ./system/src/cortexm/exception_handlers.o
                                0x30b (size before relaxing)
 .debug_str     0x0000258b       0x84 ./system/src/cmsis/system_stm32f4xx.o
                                0x40a (size before relaxing)
 .debug_str     0x0000260f       0x59 ./system/src/cmsis/vectors_stm32f407xx.o
                                0x20b (size before relaxing)
 .debug_str     0x00002668     0x17d5 ./src/ui/ui.o
                               0x1c7d (size before relaxing)
 .debug_str     0x00003e3d      0x46e ./src/stdio/printf.o
                                0x6bb (size before relaxing)
 .debug_str     0x000042ab      0x2f0 ./src/si570/ui_si570.o
                                0x571 (size before relaxing)
 .debug_str     0x0000459b      0x8ba ./src/ili9341/tm_stm32f4_dma.o
                                0xb3b (size before relaxing)
 .debug_str     0x00004e55      0x2a7 ./src/ili9341/tm_stm32f4_gpio.o
                                0x607 (size before relaxing)
 .debug_str     0x000050fc       0xa4 ./src/i2c/mchf_hw_i2c.o
                                0x70e (size before relaxing)
 .debug_str     0x000051a0      0x5cd ./src/hy28b/ui_lcd_hy28.o
                               0x14a8 (size before relaxing)
 .debug_str     0x0000576d       0x86 ./src/hy28b/ui_lcd_hy28_fonts.o
                                0x2f2 (size before relaxing)
 .debug_str     0x000057f3       0x60 ./src/encoder/ui_rotary.o
                                0x5ee (size before relaxing)
 .debug_str     0x00005853      0x98a ./src/codec/audio.o
                               0x1758 (size before relaxing)
 .debug_str     0x000061dd       0xe4 ./src/codec/codec.o
                                0x7f1 (size before relaxing)
 .debug_str     0x000062c1       0xc8 ./src/codec/cyclesleep.o
                                0x312 (size before relaxing)
 .debug_str     0x00006389       0xb3 ./src/codec/i2s.o
                                0xb04 (size before relaxing)
 .debug_str     0x0000643c      0x178 ./src/button/tm_stm32f4_button.o
                                0x53b (size before relaxing)
 .debug_str     0x000065b4      0x21c ./src/button/tm_stm32f4_delay.o
                                0xa5b (size before relaxing)
 .debug_str     0x000067d0      0x1ad ./src/main.o
                               0x1405 (size before relaxing)
 .debug_str     0x0000697d       0xe3 C:\Users\itx\workspace\sdr\libs\libarm_cortexM4lf_math.a(arm_copy_q15.o)
                                0x1b1 (size before relaxing)
 .debug_str     0x00006a60       0x23 C:\Users\itx\workspace\sdr\libs\libarm_cortexM4lf_math.a(arm_copy_f32.o)
                                0x191 (size before relaxing)
 .debug_str     0x00006a83       0x44 C:\Users\itx\workspace\sdr\libs\libarm_cortexM4lf_math.a(arm_min_q15.o)
                                0x1b0 (size before relaxing)
 .debug_str     0x00006ac7       0x25 C:\Users\itx\workspace\sdr\libs\libarm_cortexM4lf_math.a(arm_min_f32.o)
                                0x1ac (size before relaxing)
 .debug_str     0x00006aec       0x2c C:\Users\itx\workspace\sdr\libs\libarm_cortexM4lf_math.a(arm_mean_q15.o)
                                0x1a9 (size before relaxing)
 .debug_str     0x00006b18       0x26 C:\Users\itx\workspace\sdr\libs\libarm_cortexM4lf_math.a(arm_mean_f32.o)
                                0x197 (size before relaxing)
 .debug_str     0x00006b3e       0x2c C:\Users\itx\workspace\sdr\libs\libarm_cortexM4lf_math.a(arm_max_q15.o)
                                0x1b0 (size before relaxing)
 .debug_str     0x00006b6a       0x25 C:\Users\itx\workspace\sdr\libs\libarm_cortexM4lf_math.a(arm_max_f32.o)
                                0x1ac (size before relaxing)
 .debug_str     0x00006b8f       0x3e C:\Users\itx\workspace\sdr\libs\libarm_cortexM4lf_math.a(arm_rfft_init_f32.o)
                                0x343 (size before relaxing)
 .debug_str     0x00006bcd       0xaa C:\Users\itx\workspace\sdr\libs\libarm_cortexM4lf_math.a(arm_rfft_f32.o)
                                0x314 (size before relaxing)
 .debug_str     0x00006c77       0x65 C:\Users\itx\workspace\sdr\libs\libarm_cortexM4lf_math.a(arm_cfft_radix4_init_f32.o)
                                0x2cf (size before relaxing)
 .debug_str     0x00006cdc       0xb3 C:\Users\itx\workspace\sdr\libs\libarm_cortexM4lf_math.a(arm_cfft_radix4_f32.o)
                                0x295 (size before relaxing)
 .debug_str     0x00006d8f       0x2e C:\Users\itx\workspace\sdr\libs\libarm_cortexM4lf_math.a(arm_lms_norm_init_f32.o)
                                0x1d5 (size before relaxing)
 .debug_str     0x00006dbd       0x46 C:\Users\itx\workspace\sdr\libs\libarm_cortexM4lf_math.a(arm_lms_norm_f32.o)
                                0x1f9 (size before relaxing)
 .debug_str     0x00006e03       0x44 C:\Users\itx\workspace\sdr\libs\libarm_cortexM4lf_math.a(arm_iir_lattice_f32.o)
                                0x215 (size before relaxing)
 .debug_str     0x00006e47       0x48 C:\Users\itx\workspace\sdr\libs\libarm_cortexM4lf_math.a(arm_fir_interpolate_f32.o)
                                0x221 (size before relaxing)
 .debug_str     0x00006e8f       0x29 C:\Users\itx\workspace\sdr\libs\libarm_cortexM4lf_math.a(arm_fir_init_f32.o)
                                0x1bf (size before relaxing)
 .debug_str     0x00006eb8       0x38 C:\Users\itx\workspace\sdr\libs\libarm_cortexM4lf_math.a(arm_fir_f32.o)
                                0x1ed (size before relaxing)
 .debug_str     0x00006ef0       0x3a C:\Users\itx\workspace\sdr\libs\libarm_cortexM4lf_math.a(arm_fir_decimate_f32.o)
                                0x20e (size before relaxing)
 .debug_str     0x00006f2a       0x45 C:\Users\itx\workspace\sdr\libs\libarm_cortexM4lf_math.a(arm_cmplx_mag_f32.o)
                                0x259 (size before relaxing)
 .debug_str     0x00006f6f       0x4c C:\Users\itx\workspace\sdr\libs\libarm_cortexM4lf_math.a(arm_sin_f32.o)
                                0x1ac (size before relaxing)
 .debug_str     0x00006fbb       0x33 C:\Users\itx\workspace\sdr\libs\libarm_cortexM4lf_math.a(arm_cos_f32.o)
                                0x1ac (size before relaxing)
 .debug_str     0x00006fee       0x30 C:\Users\itx\workspace\sdr\libs\libarm_cortexM4lf_math.a(arm_sub_f32.o)
                                0x198 (size before relaxing)
 .debug_str     0x0000701e       0x26 C:\Users\itx\workspace\sdr\libs\libarm_cortexM4lf_math.a(arm_scale_f32.o)
                                0x19b (size before relaxing)
 .debug_str     0x00007044       0x25 C:\Users\itx\workspace\sdr\libs\libarm_cortexM4lf_math.a(arm_mult_f32.o)
                                0x19a (size before relaxing)
 .debug_str     0x00007069       0x24 C:\Users\itx\workspace\sdr\libs\libarm_cortexM4lf_math.a(arm_add_f32.o)
                                0x198 (size before relaxing)
 .debug_str     0x0000708d       0x46 C:\Users\itx\workspace\sdr\libs\libarm_cortexM4lf_math.a(arm_common_tables.o)
                                0x1ad (size before relaxing)

.debug_loc      0x00000000    0x110f4
 *(.debug_loc)
 .debug_loc     0x00000000      0x480 ./system/src/stm32f4/stm32f4xx_dma.o
 .debug_loc     0x00000480      0x380 ./system/src/stm32f4/stm32f4xx_gpio.o
 .debug_loc     0x00000800      0x710 ./system/src/stm32f4/stm32f4xx_i2c.o
 .debug_loc     0x00000f10      0xb97 ./system/src/stm32f4/stm32f4xx_rcc.o
 .debug_loc     0x00001aa7      0x6a1 ./system/src/stm32f4/stm32f4xx_spi.o
 .debug_loc     0x00002148     0x1f7d ./system/src/stm32f4/stm32f4xx_tim.o
 .debug_loc     0x000040c5       0x21 ./system/src/newlib/_exit.o
 .debug_loc     0x000040e6       0x5f ./system/src/newlib/_sbrk.o
 .debug_loc     0x00004145      0x220 ./system/src/newlib/_startup.o
 .debug_loc     0x00004365       0x63 ./system/src/newlib/_syscalls.o
 .debug_loc     0x000043c8      0x13f ./system/src/cmsis/system_stm32f4xx.o
 .debug_loc     0x00004507     0x21cc ./src/ui/ui.o
 .debug_loc     0x000066d3     0x1057 ./src/stdio/printf.o
 .debug_loc     0x0000772a      0xa27 ./src/si570/ui_si570.o
 .debug_loc     0x00008151      0x940 ./src/ili9341/tm_stm32f4_dma.o
 .debug_loc     0x00008a91      0x5a9 ./src/ili9341/tm_stm32f4_gpio.o
 .debug_loc     0x0000903a      0x53b ./src/i2c/mchf_hw_i2c.o
 .debug_loc     0x00009575     0x21e4 ./src/hy28b/ui_lcd_hy28.o
 .debug_loc     0x0000b759      0x78f ./src/codec/audio.o
 .debug_loc     0x0000bee8      0x1c7 ./src/codec/codec.o
 .debug_loc     0x0000c0af      0x175 ./src/codec/cyclesleep.o
 .debug_loc     0x0000c224      0x199 ./src/codec/i2s.o
 .debug_loc     0x0000c3bd      0x113 ./src/button/tm_stm32f4_button.o
 .debug_loc     0x0000c4d0      0x229 ./src/button/tm_stm32f4_delay.o
 .debug_loc     0x0000c6f9      0x297 ./src/main.o
 .debug_loc     0x0000c990      0x164 C:\Users\itx\workspace\sdr\libs\libarm_cortexM4lf_math.a(arm_copy_q15.o)
 .debug_loc     0x0000caf4      0x138 C:\Users\itx\workspace\sdr\libs\libarm_cortexM4lf_math.a(arm_copy_f32.o)
 .debug_loc     0x0000cc2c       0xce C:\Users\itx\workspace\sdr\libs\libarm_cortexM4lf_math.a(arm_min_q15.o)
 .debug_loc     0x0000ccfa       0xd9 C:\Users\itx\workspace\sdr\libs\libarm_cortexM4lf_math.a(arm_min_f32.o)
 .debug_loc     0x0000cdd3      0x12e C:\Users\itx\workspace\sdr\libs\libarm_cortexM4lf_math.a(arm_mean_q15.o)
 .debug_loc     0x0000cf01      0x119 C:\Users\itx\workspace\sdr\libs\libarm_cortexM4lf_math.a(arm_mean_f32.o)
 .debug_loc     0x0000d01a       0xce C:\Users\itx\workspace\sdr\libs\libarm_cortexM4lf_math.a(arm_max_q15.o)
 .debug_loc     0x0000d0e8       0xd9 C:\Users\itx\workspace\sdr\libs\libarm_cortexM4lf_math.a(arm_max_f32.o)
 .debug_loc     0x0000d1c1       0xe5 C:\Users\itx\workspace\sdr\libs\libarm_cortexM4lf_math.a(arm_rfft_init_f32.o)
 .debug_loc     0x0000d2a6      0x5ae C:\Users\itx\workspace\sdr\libs\libarm_cortexM4lf_math.a(arm_rfft_f32.o)
 .debug_loc     0x0000d854      0x1cb C:\Users\itx\workspace\sdr\libs\libarm_cortexM4lf_math.a(arm_cfft_radix4_init_f32.o)
 .debug_loc     0x0000da1f      0xb6f C:\Users\itx\workspace\sdr\libs\libarm_cortexM4lf_math.a(arm_cfft_radix4_f32.o)
 .debug_loc     0x0000e58e       0xd2 C:\Users\itx\workspace\sdr\libs\libarm_cortexM4lf_math.a(arm_lms_norm_init_f32.o)
 .debug_loc     0x0000e660      0x6e4 C:\Users\itx\workspace\sdr\libs\libarm_cortexM4lf_math.a(arm_lms_norm_f32.o)
 .debug_loc     0x0000ed44      0x630 C:\Users\itx\workspace\sdr\libs\libarm_cortexM4lf_math.a(arm_iir_lattice_f32.o)
 .debug_loc     0x0000f374      0x45a C:\Users\itx\workspace\sdr\libs\libarm_cortexM4lf_math.a(arm_fir_interpolate_f32.o)
 .debug_loc     0x0000f7ce       0xa6 C:\Users\itx\workspace\sdr\libs\libarm_cortexM4lf_math.a(arm_fir_init_f32.o)
 .debug_loc     0x0000f874      0x755 C:\Users\itx\workspace\sdr\libs\libarm_cortexM4lf_math.a(arm_fir_f32.o)
 .debug_loc     0x0000ffc9      0x3fe C:\Users\itx\workspace\sdr\libs\libarm_cortexM4lf_math.a(arm_fir_decimate_f32.o)
 .debug_loc     0x000103c7      0x3fe C:\Users\itx\workspace\sdr\libs\libarm_cortexM4lf_math.a(arm_cmplx_mag_f32.o)
 .debug_loc     0x000107c5      0x17a C:\Users\itx\workspace\sdr\libs\libarm_cortexM4lf_math.a(arm_sin_f32.o)
 .debug_loc     0x0001093f      0x15e C:\Users\itx\workspace\sdr\libs\libarm_cortexM4lf_math.a(arm_cos_f32.o)
 .debug_loc     0x00010a9d      0x1ad C:\Users\itx\workspace\sdr\libs\libarm_cortexM4lf_math.a(arm_sub_f32.o)
 .debug_loc     0x00010c4a      0x150 C:\Users\itx\workspace\sdr\libs\libarm_cortexM4lf_math.a(arm_scale_f32.o)
 .debug_loc     0x00010d9a      0x1ad C:\Users\itx\workspace\sdr\libs\libarm_cortexM4lf_math.a(arm_mult_f32.o)
 .debug_loc     0x00010f47      0x1ad C:\Users\itx\workspace\sdr\libs\libarm_cortexM4lf_math.a(arm_add_f32.o)

.debug_macinfo
 *(.debug_macinfo)

.debug_weaknames
 *(.debug_weaknames)

.debug_funcnames
 *(.debug_funcnames)

.debug_typenames
 *(.debug_typenames)

.debug_varnames
 *(.debug_varnames)
OUTPUT(sdr.elf elf32-littlearm)

.debug_ranges   0x00000000     0x1bc0
 .debug_ranges  0x00000000       0xa0 ./system/src/stm32f4/stm32f4xx_dma.o
 .debug_ranges  0x000000a0       0x78 ./system/src/stm32f4/stm32f4xx_gpio.o
 .debug_ranges  0x00000118      0x110 ./system/src/stm32f4/stm32f4xx_i2c.o
 .debug_ranges  0x00000228      0x180 ./system/src/stm32f4/stm32f4xx_rcc.o
 .debug_ranges  0x000003a8       0xd0 ./system/src/stm32f4/stm32f4xx_spi.o
 .debug_ranges  0x00000478      0x370 ./system/src/stm32f4/stm32f4xx_tim.o
 .debug_ranges  0x000007e8       0x18 ./system/src/newlib/_exit.o
 .debug_ranges  0x00000800       0x10 ./system/src/newlib/_sbrk.o
 .debug_ranges  0x00000810       0x80 ./system/src/newlib/_startup.o
 .debug_ranges  0x00000890       0x20 ./system/src/newlib/_syscalls.o
 .debug_ranges  0x000008b0       0x18 ./system/src/cortexm/_initialize_hardware.o
 .debug_ranges  0x000008c8       0x10 ./system/src/cortexm/_reset_hardware.o
 .debug_ranges  0x000008d8       0x70 ./system/src/cortexm/exception_handlers.o
 .debug_ranges  0x00000948       0x30 ./system/src/cmsis/system_stm32f4xx.o
 .debug_ranges  0x00000978       0x10 ./system/src/cmsis/vectors_stm32f407xx.o
 .debug_ranges  0x00000988      0x280 ./src/ui/ui.o
 .debug_ranges  0x00000c08      0x108 ./src/stdio/printf.o
 .debug_ranges  0x00000d10       0xd0 ./src/si570/ui_si570.o
 .debug_ranges  0x00000de0      0x168 ./src/ili9341/tm_stm32f4_dma.o
 .debug_ranges  0x00000f48       0xa8 ./src/ili9341/tm_stm32f4_gpio.o
 .debug_ranges  0x00000ff0       0x38 ./src/i2c/mchf_hw_i2c.o
 .debug_ranges  0x00001028      0x3d8 ./src/hy28b/ui_lcd_hy28.o
 .debug_ranges  0x00001400       0x28 ./src/encoder/ui_rotary.o
 .debug_ranges  0x00001428       0xe8 ./src/codec/audio.o
 .debug_ranges  0x00001510       0x50 ./src/codec/codec.o
 .debug_ranges  0x00001560       0xc0 ./src/codec/cyclesleep.o
 .debug_ranges  0x00001620       0x40 ./src/codec/i2s.o
 .debug_ranges  0x00001660       0x28 ./src/button/tm_stm32f4_button.o
 .debug_ranges  0x00001688       0xc0 ./src/button/tm_stm32f4_delay.o
 .debug_ranges  0x00001748       0xf8 ./src/main.o
 .debug_ranges  0x00001840       0xc0 C:\Users\itx\workspace\sdr\libs\libarm_cortexM4lf_math.a(arm_copy_q15.o)
 .debug_ranges  0x00001900       0x10 C:\Users\itx\workspace\sdr\libs\libarm_cortexM4lf_math.a(arm_copy_f32.o)
 .debug_ranges  0x00001910       0x10 C:\Users\itx\workspace\sdr\libs\libarm_cortexM4lf_math.a(arm_min_q15.o)
 .debug_ranges  0x00001920       0x10 C:\Users\itx\workspace\sdr\libs\libarm_cortexM4lf_math.a(arm_min_f32.o)
 .debug_ranges  0x00001930       0x10 C:\Users\itx\workspace\sdr\libs\libarm_cortexM4lf_math.a(arm_mean_q15.o)
 .debug_ranges  0x00001940       0x10 C:\Users\itx\workspace\sdr\libs\libarm_cortexM4lf_math.a(arm_mean_f32.o)
 .debug_ranges  0x00001950       0x10 C:\Users\itx\workspace\sdr\libs\libarm_cortexM4lf_math.a(arm_max_q15.o)
 .debug_ranges  0x00001960       0x10 C:\Users\itx\workspace\sdr\libs\libarm_cortexM4lf_math.a(arm_max_f32.o)
 .debug_ranges  0x00001970       0x10 C:\Users\itx\workspace\sdr\libs\libarm_cortexM4lf_math.a(arm_rfft_init_f32.o)
 .debug_ranges  0x00001980       0x20 C:\Users\itx\workspace\sdr\libs\libarm_cortexM4lf_math.a(arm_rfft_f32.o)
 .debug_ranges  0x000019a0       0x10 C:\Users\itx\workspace\sdr\libs\libarm_cortexM4lf_math.a(arm_cfft_radix4_init_f32.o)
 .debug_ranges  0x000019b0       0x28 C:\Users\itx\workspace\sdr\libs\libarm_cortexM4lf_math.a(arm_cfft_radix4_f32.o)
 .debug_ranges  0x000019d8       0x10 C:\Users\itx\workspace\sdr\libs\libarm_cortexM4lf_math.a(arm_lms_norm_init_f32.o)
 .debug_ranges  0x000019e8       0x10 C:\Users\itx\workspace\sdr\libs\libarm_cortexM4lf_math.a(arm_lms_norm_f32.o)
 .debug_ranges  0x000019f8       0x10 C:\Users\itx\workspace\sdr\libs\libarm_cortexM4lf_math.a(arm_iir_lattice_f32.o)
 .debug_ranges  0x00001a08       0x10 C:\Users\itx\workspace\sdr\libs\libarm_cortexM4lf_math.a(arm_fir_interpolate_f32.o)
 .debug_ranges  0x00001a18       0x10 C:\Users\itx\workspace\sdr\libs\libarm_cortexM4lf_math.a(arm_fir_init_f32.o)
 .debug_ranges  0x00001a28       0x10 C:\Users\itx\workspace\sdr\libs\libarm_cortexM4lf_math.a(arm_fir_f32.o)
 .debug_ranges  0x00001a38       0x10 C:\Users\itx\workspace\sdr\libs\libarm_cortexM4lf_math.a(arm_fir_decimate_f32.o)
 .debug_ranges  0x00001a48      0x118 C:\Users\itx\workspace\sdr\libs\libarm_cortexM4lf_math.a(arm_cmplx_mag_f32.o)
 .debug_ranges  0x00001b60       0x10 C:\Users\itx\workspace\sdr\libs\libarm_cortexM4lf_math.a(arm_sin_f32.o)
 .debug_ranges  0x00001b70       0x10 C:\Users\itx\workspace\sdr\libs\libarm_cortexM4lf_math.a(arm_cos_f32.o)
 .debug_ranges  0x00001b80       0x10 C:\Users\itx\workspace\sdr\libs\libarm_cortexM4lf_math.a(arm_sub_f32.o)
 .debug_ranges  0x00001b90       0x10 C:\Users\itx\workspace\sdr\libs\libarm_cortexM4lf_math.a(arm_scale_f32.o)
 .debug_ranges  0x00001ba0       0x10 C:\Users\itx\workspace\sdr\libs\libarm_cortexM4lf_math.a(arm_mult_f32.o)
 .debug_ranges  0x00001bb0       0x10 C:\Users\itx\workspace\sdr\libs\libarm_cortexM4lf_math.a(arm_add_f32.o)
